

Microchip MPLAB XC8 Assembler V2.40 build 20220703182018 
                                                                                               Fri Jun 20 18:19:13 2025

Microchip MPLAB XC8 C Compiler v2.40 (Free license) build 20220703182018 Og1 
     1                           	processor	16F887
     2                           	pagewidth 120
     3                           	opt	flic
     4                           	psect	idataBANK0,global,class=CODE,delta=2,noexec
     5                           	psect	strings,global,class=STRING,delta=2,noexec
     6                           	psect	cinit,global,class=CODE,merge=1,delta=2
     7                           	psect	bssBANK0,global,class=BANK0,space=1,delta=1,noexec
     8                           	psect	dataBANK0,global,class=BANK0,space=1,delta=1,noexec
     9                           	psect	bssBANK1,global,class=BANK1,space=1,delta=1,noexec
    10                           	psect	cstackCOMMON,global,class=COMMON,space=1,delta=1,noexec
    11                           	psect	cstackBANK0,global,class=BANK0,space=1,delta=1,noexec
    12                           	psect	maintext,global,class=CODE,split=1,delta=2
    13                           	psect	text1,local,class=CODE,merge=1,delta=2
    14                           	psect	text2,local,class=CODE,merge=1,delta=2
    15                           	psect	text3,local,class=CODE,merge=1,delta=2
    16                           	psect	text4,local,class=CODE,merge=1,delta=2
    17                           	psect	text5,local,class=CODE,merge=1,delta=2
    18                           	psect	text6,local,class=CODE,merge=1,delta=2
    19                           	psect	text7,local,class=CODE,merge=1,delta=2,group=1
    20                           	psect	text8,local,class=CODE,merge=1,delta=2
    21                           	psect	text9,local,class=CODE,merge=1,delta=2,group=1
    22                           	psect	text10,local,class=CODE,merge=1,delta=2,group=1
    23                           	psect	text11,local,class=CODE,merge=1,delta=2,group=1
    24                           	psect	text12,local,class=CODE,merge=1,delta=2,group=1
    25                           	psect	text13,local,class=CODE,merge=1,delta=2,group=1
    26                           	psect	text14,local,class=CODE,merge=1,delta=2,group=1
    27                           	psect	text15,local,class=CODE,merge=1,delta=2,group=1
    28                           	psect	idloc,global,abs,ovrld,class=IDLOC,space=5,delta=2,noexec
    29                           	psect	config,global,abs,ovrld,class=CONFIG,space=4,delta=2,noexec
    30                           	dabs	1,0x7E,2
    31     0000                     
    32                           ; Version 2.40
    33                           ; Generated 17/11/2021 GMT
    34                           ; 
    35                           ; Copyright © 2021, Microchip Technology Inc. and its subsidiaries ("Microchip")
    36                           ; All rights reserved.
    37                           ; 
    38                           ; This software is developed by Microchip Technology Inc. and its subsidiaries ("Microch
      +                          ip").
    39                           ; 
    40                           ; Redistribution and use in source and binary forms, with or without modification, are
    41                           ; permitted provided that the following conditions are met:
    42                           ; 
    43                           ;     1. Redistributions of source code must retain the above copyright notice, this lis
      +                          t of
    44                           ;        conditions and the following disclaimer.
    45                           ; 
    46                           ;     2. Redistributions in binary form must reproduce the above copyright notice, this 
      +                          list
    47                           ;        of conditions and the following disclaimer in the documentation and/or other
    48                           ;        materials provided with the distribution. Publication is not required when
    49                           ;        this file is used in an embedded application.
    50                           ; 
    51                           ;     3. Microchip's name may not be used to endorse or promote products derived from th
      +                          is
    52                           ;        software without specific prior written permission.
    53                           ; 
    54                           ; THIS SOFTWARE IS PROVIDED BY MICROCHIP "AS IS" AND ANY EXPRESS OR IMPLIED WARRANTIES,
    55                           ; INCLUDING, BUT NOT LIMITED TO, THE IMPLIED WARRANTIES OF MERCHANTABILITY AND FITNESS F
      +                          OR
    56                           ; PURPOSE ARE DISCLAIMED.  IN NO EVENT SHALL MICROCHIP BE LIABLE FOR ANY DIRECT, INDIREC
      +                          T,
    57                           ; INCIDENTAL, SPECIAL, EXEMPLARY, OR CONSEQUENTIAL DAMAGES (INCLUDING BUT NOT LIMITED TO
    58                           ; PROCUREMENT OF SUBSTITUTE GOODS OR SERVICES; LOSS OF USE, DATA OR PROFITS; OR BUSINESS
    59                           ; INTERRUPTION) HOWSOEVER CAUSED AND ON ANY THEORY OF LIABILITY, WHETHER IN CONTRACT, ST
      +                          RICT
    60                           ; LIABILITY, OR TORT (INCLUDING NEGLIGENCE OR OTHERWISE) ARISING IN ANY WAY OUT OF THE U
      +                          SE OF
    61                           ; THIS SOFTWARE, EVEN IF ADVISED OF THE POSSIBILITY OF SUCH DAMAGE.
    62                           ; 
    63                           ; 
    64                           ; Code-generator required, PIC16F887 Definitions
    65                           ; 
    66                           ; SFR Addresses
    67     0000                     	;# 
    68     0001                     	;# 
    69     0002                     	;# 
    70     0003                     	;# 
    71     0004                     	;# 
    72     0005                     	;# 
    73     0006                     	;# 
    74     0007                     	;# 
    75     0008                     	;# 
    76     0009                     	;# 
    77     000A                     	;# 
    78     000B                     	;# 
    79     000C                     	;# 
    80     000D                     	;# 
    81     000E                     	;# 
    82     000E                     	;# 
    83     000F                     	;# 
    84     0010                     	;# 
    85     0011                     	;# 
    86     0012                     	;# 
    87     0013                     	;# 
    88     0014                     	;# 
    89     0015                     	;# 
    90     0015                     	;# 
    91     0016                     	;# 
    92     0017                     	;# 
    93     0018                     	;# 
    94     0019                     	;# 
    95     001A                     	;# 
    96     001B                     	;# 
    97     001B                     	;# 
    98     001C                     	;# 
    99     001D                     	;# 
   100     001E                     	;# 
   101     001F                     	;# 
   102     0081                     	;# 
   103     0085                     	;# 
   104     0086                     	;# 
   105     0087                     	;# 
   106     0088                     	;# 
   107     0089                     	;# 
   108     008C                     	;# 
   109     008D                     	;# 
   110     008E                     	;# 
   111     008F                     	;# 
   112     0090                     	;# 
   113     0091                     	;# 
   114     0092                     	;# 
   115     0093                     	;# 
   116     0093                     	;# 
   117     0093                     	;# 
   118     0094                     	;# 
   119     0095                     	;# 
   120     0096                     	;# 
   121     0097                     	;# 
   122     0098                     	;# 
   123     0099                     	;# 
   124     009A                     	;# 
   125     009B                     	;# 
   126     009C                     	;# 
   127     009D                     	;# 
   128     009E                     	;# 
   129     009F                     	;# 
   130     0105                     	;# 
   131     0107                     	;# 
   132     0108                     	;# 
   133     0109                     	;# 
   134     010C                     	;# 
   135     010C                     	;# 
   136     010D                     	;# 
   137     010E                     	;# 
   138     010F                     	;# 
   139     0185                     	;# 
   140     0187                     	;# 
   141     0188                     	;# 
   142     0189                     	;# 
   143     018C                     	;# 
   144     018D                     	;# 
   145     0000                     	;# 
   146     0001                     	;# 
   147     0002                     	;# 
   148     0003                     	;# 
   149     0004                     	;# 
   150     0005                     	;# 
   151     0006                     	;# 
   152     0007                     	;# 
   153     0008                     	;# 
   154     0009                     	;# 
   155     000A                     	;# 
   156     000B                     	;# 
   157     000C                     	;# 
   158     000D                     	;# 
   159     000E                     	;# 
   160     000E                     	;# 
   161     000F                     	;# 
   162     0010                     	;# 
   163     0011                     	;# 
   164     0012                     	;# 
   165     0013                     	;# 
   166     0014                     	;# 
   167     0015                     	;# 
   168     0015                     	;# 
   169     0016                     	;# 
   170     0017                     	;# 
   171     0018                     	;# 
   172     0019                     	;# 
   173     001A                     	;# 
   174     001B                     	;# 
   175     001B                     	;# 
   176     001C                     	;# 
   177     001D                     	;# 
   178     001E                     	;# 
   179     001F                     	;# 
   180     0081                     	;# 
   181     0085                     	;# 
   182     0086                     	;# 
   183     0087                     	;# 
   184     0088                     	;# 
   185     0089                     	;# 
   186     008C                     	;# 
   187     008D                     	;# 
   188     008E                     	;# 
   189     008F                     	;# 
   190     0090                     	;# 
   191     0091                     	;# 
   192     0092                     	;# 
   193     0093                     	;# 
   194     0093                     	;# 
   195     0093                     	;# 
   196     0094                     	;# 
   197     0095                     	;# 
   198     0096                     	;# 
   199     0097                     	;# 
   200     0098                     	;# 
   201     0099                     	;# 
   202     009A                     	;# 
   203     009B                     	;# 
   204     009C                     	;# 
   205     009D                     	;# 
   206     009E                     	;# 
   207     009F                     	;# 
   208     0105                     	;# 
   209     0107                     	;# 
   210     0108                     	;# 
   211     0109                     	;# 
   212     010C                     	;# 
   213     010C                     	;# 
   214     010D                     	;# 
   215     010E                     	;# 
   216     010F                     	;# 
   217     0185                     	;# 
   218     0187                     	;# 
   219     0188                     	;# 
   220     0189                     	;# 
   221     018C                     	;# 
   222     018D                     	;# 
   223                           
   224                           	psect	idataBANK0
   225     0D3D                     __pidataBANK0:
   226                           
   227                           ;initializer for _i
   228     0D3D  3401               	retlw	1
   229     0D3E  3400               	retlw	0
   230     0018                     _RCSTA	set	24
   231     001F                     _ADCON0	set	31
   232     0009                     _PORTE	set	9
   233     0007                     _PORTC	set	7
   234     0006                     _PORTB	set	6
   235     0005                     _PORTA	set	5
   236     001A                     _RCREG	set	26
   237     001E                     _ADRESH	set	30
   238     0008                     _PORTD	set	8
   239     0065                     _RCIF	set	101
   240     0030                     _RB0	set	48
   241     00F9                     _GO	set	249
   242     0048                     _RE0	set	72
   243     0049                     _RE1	set	73
   244     0098                     _TXSTA	set	152
   245     0099                     _SPBRG	set	153
   246     009F                     _ADCON1	set	159
   247     0089                     _TRISE	set	137
   248     0088                     _TRISD	set	136
   249     0087                     _TRISC	set	135
   250     0086                     _TRISB	set	134
   251     0085                     _TRISA	set	133
   252     009E                     _ADRESL	set	158
   253     0189                     _ANSELH	set	393
   254     0188                     _ANSEL	set	392
   255                           
   256                           	psect	strings
   257     0800                     __pstrings:
   258     0800                     stringtab:
   259     0800                     __stringtab:
   260                           
   261                           ;	String table - string pointers are 1 byte each
   262     0800  1BFF               	btfsc	btemp+1,7
   263     0801  280A               	ljmp	stringcode
   264     0802  1383               	bcf	3,7
   265     0803  187F               	btfsc	btemp+1,0
   266     0804  1783               	bsf	3,7
   267     0805  0800               	movf	0,w
   268     0806  0A84               	incf	4,f
   269     0807  1903               	skipnz
   270     0808  0AFF               	incf	btemp+1,f
   271     0809  0008               	return
   272     080A                     stringcode:
   273     080A                     stringdir:
   274     080A  3008               	movlw	high stringdir
   275     080B  008A               	movwf	10
   276     080C  0804               	movf	4,w
   277     080D  0A84               	incf	4,f
   278     080E  0782               	addwf	2,f
   279     080F                     __stringbase:
   280     080F  3400               	retlw	0
   281     0810                     __end_of__stringtab:
   282     0810                     STR_2:
   283     0810  3453               	retlw	83	;'S'
   284     0811  3445               	retlw	69	;'E'
   285     0812  3454               	retlw	84	;'T'
   286     0813  3420               	retlw	32	;' '
   287     0814  3454               	retlw	84	;'T'
   288     0815  3445               	retlw	69	;'E'
   289     0816  344D               	retlw	77	;'M'
   290     0817  3450               	retlw	80	;'P'
   291     0818  3420               	retlw	32	;' '
   292     0819  343A               	retlw	58	;':'
   293     081A  3400               	retlw	0
   294     081B                     STR_3:
   295     081B  3452               	retlw	82	;'R'
   296     081C  344F               	retlw	79	;'O'
   297     081D  344F               	retlw	79	;'O'
   298     081E  344D               	retlw	77	;'M'
   299     081F  3420               	retlw	32	;' '
   300     0820  3454               	retlw	84	;'T'
   301     0821  3445               	retlw	69	;'E'
   302     0822  344D               	retlw	77	;'M'
   303     0823  3450               	retlw	80	;'P'
   304     0824  343A               	retlw	58	;':'
   305     0825  3400               	retlw	0
   306     0826                     STR_1:
   307     0826  3445               	retlw	69	;'E'
   308     0827  3452               	retlw	82	;'R'
   309     0828  3452               	retlw	82	;'R'
   310     0829  344F               	retlw	79	;'O'
   311     082A  3452               	retlw	82	;'R'
   312     082B  3400               	retlw	0
   313                           
   314                           	psect	cinit
   315     07DA                     start_initialization:	
   316                           ; #config settings
   317                           
   318     07DA                     __initialization:
   319                           
   320                           ; Initialize objects allocated to BANK0
   321     07DA  120A  158A  253D  120A  118A  	fcall	__pidataBANK0	;fetch initializer
   322     07DF  00EC               	movwf	__pdataBANK0& (0+127)
   323     07E0  120A  158A  253E  120A  118A  	fcall	__pidataBANK0+1	;fetch initializer
   324     07E5  00ED               	movwf	(__pdataBANK0+1)& (0+127)
   325                           
   326                           ; Clear objects allocated to BANK1
   327     07E6  1683               	bsf	3,5	;RP0=1, select bank1
   328     07E7  1303               	bcf	3,6	;RP1=0, select bank1
   329     07E8  01A0               	clrf	__pbssBANK1& (0+127)
   330     07E9  01A1               	clrf	(__pbssBANK1+1)& (0+127)
   331     07EA  01A2               	clrf	(__pbssBANK1+2)& (0+127)
   332     07EB  01A3               	clrf	(__pbssBANK1+3)& (0+127)
   333     07EC  01A4               	clrf	(__pbssBANK1+4)& (0+127)
   334     07ED  01A5               	clrf	(__pbssBANK1+5)& (0+127)
   335     07EE  01A6               	clrf	(__pbssBANK1+6)& (0+127)
   336     07EF  01A7               	clrf	(__pbssBANK1+7)& (0+127)
   337     07F0  01A8               	clrf	(__pbssBANK1+8)& (0+127)
   338     07F1  01A9               	clrf	(__pbssBANK1+9)& (0+127)
   339                           
   340                           ; Clear objects allocated to BANK0
   341     07F2  1283               	bcf	3,5	;RP0=0, select bank0
   342     07F3  1303               	bcf	3,6	;RP1=0, select bank0
   343     07F4  01E4               	clrf	__pbssBANK0& (0+127)
   344     07F5  01E5               	clrf	(__pbssBANK0+1)& (0+127)
   345     07F6  01E6               	clrf	(__pbssBANK0+2)& (0+127)
   346     07F7  01E7               	clrf	(__pbssBANK0+3)& (0+127)
   347     07F8  01E8               	clrf	(__pbssBANK0+4)& (0+127)
   348     07F9  01E9               	clrf	(__pbssBANK0+5)& (0+127)
   349     07FA  01EA               	clrf	(__pbssBANK0+6)& (0+127)
   350     07FB  01EB               	clrf	(__pbssBANK0+7)& (0+127)
   351     07FC                     end_of_initialization:	
   352                           ;End of C runtime variable initialization code
   353                           
   354     07FC                     __end_of__initialization:
   355     07FC  0183               	clrf	3
   356     07FD  120A  158A  2F73   	ljmp	_main	;jump to C main() function
   357                           
   358                           	psect	bssBANK0
   359     0064                     __pbssBANK0:
   360     0064                     _int_set_temp:
   361     0064                     	ds	2
   362     0066                     _dv_temp:
   363     0066                     	ds	2
   364     0068                     _dv:
   365     0068                     	ds	2
   366     006A                     _count:
   367     006A                     	ds	2
   368                           
   369                           	psect	dataBANK0
   370     006C                     __pdataBANK0:
   371     006C                     _i:
   372     006C                     	ds	2
   373                           
   374                           	psect	bssBANK1
   375     00A0                     __pbssBANK1:
   376     00A0                     _set_temp:
   377     00A0                     	ds	5
   378     00A5                     _room_temp:
   379     00A5                     	ds	5
   380                           
   381                           	psect	cstackCOMMON
   382     0070                     __pcstackCOMMON:
   383     0070                     ?_delay:
   384     0070                     ?_enable:	
   385                           ; 1 bytes @ 0x0
   386                           
   387     0070                     ?_temp_compare:	
   388                           ; 1 bytes @ 0x0
   389                           
   390     0070                     ?_receive:	
   391                           ; 1 bytes @ 0x0
   392                           
   393     0070                     ?_main:	
   394                           ; 1 bytes @ 0x0
   395                           
   396     0070                     ?__Umul8_16:	
   397                           ; 1 bytes @ 0x0
   398                           
   399     0070                     ?_adc:	
   400                           ; 2 bytes @ 0x0
   401                           
   402     0070                     ?___wmul:	
   403                           ; 2 bytes @ 0x0
   404                           
   405     0070                     ?___awdiv:	
   406                           ; 2 bytes @ 0x0
   407                           
   408     0070                     ?___xxtofl:	
   409                           ; 2 bytes @ 0x0
   410                           
   411     0070                     __Umul8_16@multiplicand:	
   412                           ; 4 bytes @ 0x0
   413                           
   414     0070                     delay@t:	
   415                           ; 1 bytes @ 0x0
   416                           
   417     0070                     ___wmul@multiplier:	
   418                           ; 2 bytes @ 0x0
   419                           
   420     0070                     ___awdiv@divisor:	
   421                           ; 2 bytes @ 0x0
   422                           
   423     0070                     ___xxtofl@val:	
   424                           ; 2 bytes @ 0x0
   425                           
   426                           
   427                           ; 4 bytes @ 0x0
   428     0070                     	ds	2
   429     0072                     ??__Umul8_16:
   430     0072                     ??_delay:	
   431                           ; 1 bytes @ 0x2
   432                           
   433     0072                     ??_enable:	
   434                           ; 1 bytes @ 0x2
   435                           
   436     0072                     ?_lcd:	
   437                           ; 1 bytes @ 0x2
   438                           
   439     0072                     lcd@rs:	
   440                           ; 1 bytes @ 0x2
   441                           
   442     0072                     ___wmul@multiplicand:	
   443                           ; 2 bytes @ 0x2
   444                           
   445     0072                     ___awdiv@dividend:	
   446                           ; 2 bytes @ 0x2
   447                           
   448                           
   449                           ; 2 bytes @ 0x2
   450     0072                     	ds	2
   451     0074                     ??___wmul:
   452     0074                     ??___awdiv:	
   453                           ; 1 bytes @ 0x4
   454                           
   455     0074                     ??___xxtofl:	
   456                           ; 1 bytes @ 0x4
   457                           
   458     0074                     lcd@data:	
   459                           ; 1 bytes @ 0x4
   460                           
   461     0074                     ___wmul@product:	
   462                           ; 1 bytes @ 0x4
   463                           
   464     0074                     __Umul8_16@product:	
   465                           ; 2 bytes @ 0x4
   466                           
   467                           
   468                           ; 2 bytes @ 0x4
   469     0074                     	ds	1
   470     0075                     ??_lcd:
   471     0075                     ?_print:	
   472                           ; 1 bytes @ 0x5
   473                           
   474     0075                     ___awdiv@counter:	
   475                           ; 1 bytes @ 0x5
   476                           
   477     0075                     print@ptr:	
   478                           ; 1 bytes @ 0x5
   479                           
   480                           
   481                           ; 2 bytes @ 0x5
   482     0075                     	ds	1
   483     0076                     ___awdiv@sign:
   484     0076                     __Umul8_16@word_mpld:	
   485                           ; 1 bytes @ 0x6
   486                           
   487                           
   488                           ; 2 bytes @ 0x6
   489     0076                     	ds	1
   490     0077                     ??_print:
   491     0077                     ___awdiv@quotient:	
   492                           ; 1 bytes @ 0x7
   493                           
   494                           
   495                           ; 2 bytes @ 0x7
   496     0077                     	ds	1
   497     0078                     __Umul8_16@multiplier:
   498     0078                     ___xxtofl@sign:	
   499                           ; 1 bytes @ 0x8
   500                           
   501                           
   502                           ; 1 bytes @ 0x8
   503     0078                     	ds	1
   504     0079                     ?___awmod:
   505     0079                     ___xxtofl@exp:	
   506                           ; 2 bytes @ 0x9
   507                           
   508     0079                     ___awmod@divisor:	
   509                           ; 1 bytes @ 0x9
   510                           
   511                           
   512                           ; 2 bytes @ 0x9
   513     0079                     	ds	1
   514     007A                     print@addrs:
   515     007A                     ___xxtofl@arg:	
   516                           ; 1 bytes @ 0xA
   517                           
   518                           
   519                           ; 4 bytes @ 0xA
   520     007A                     	ds	1
   521     007B                     print@j:
   522     007B                     ___awmod@dividend:	
   523                           ; 2 bytes @ 0xB
   524                           
   525                           
   526                           ; 2 bytes @ 0xB
   527     007B                     	ds	2
   528     007D                     ??___awmod:
   529                           
   530                           ; 1 bytes @ 0xD
   531     007D                     	ds	1
   532     007E                     ??_adc:
   533     007E                     ??_receive:	
   534                           ; 1 bytes @ 0xE
   535                           
   536     007E                     ??_main:	
   537                           ; 1 bytes @ 0xE
   538                           
   539                           
   540                           	psect	cstackBANK0
   541     0020                     __pcstackBANK0:	
   542                           ; 1 bytes @ 0xE
   543                           
   544     0020                     ?___flmul:
   545     0020                     ___awmod@counter:	
   546                           ; 4 bytes @ 0x0
   547                           
   548     0020                     ___flmul@b:	
   549                           ; 1 bytes @ 0x0
   550                           
   551                           
   552                           ; 4 bytes @ 0x0
   553     0020                     	ds	1
   554     0021                     ___awmod@sign:
   555                           
   556                           ; 1 bytes @ 0x1
   557     0021                     	ds	1
   558     0022                     ??_temp_compare:
   559                           
   560                           ; 1 bytes @ 0x2
   561     0022                     	ds	2
   562     0024                     ___flmul@a:
   563                           
   564                           ; 4 bytes @ 0x4
   565     0024                     	ds	4
   566     0028                     ??___flmul:
   567                           
   568                           ; 1 bytes @ 0x8
   569     0028                     	ds	5
   570     002D                     ___flmul@sign:
   571                           
   572                           ; 1 bytes @ 0xD
   573     002D                     	ds	1
   574     002E                     ___flmul@grs:
   575                           
   576                           ; 4 bytes @ 0xE
   577     002E                     	ds	4
   578     0032                     ___flmul@aexp:
   579                           
   580                           ; 1 bytes @ 0x12
   581     0032                     	ds	1
   582     0033                     ___flmul@bexp:
   583                           
   584                           ; 1 bytes @ 0x13
   585     0033                     	ds	1
   586     0034                     ___flmul@prod:
   587                           
   588                           ; 4 bytes @ 0x14
   589     0034                     	ds	4
   590     0038                     ___flmul@temp:
   591                           
   592                           ; 2 bytes @ 0x18
   593     0038                     	ds	2
   594     003A                     ?___fldiv:
   595     003A                     ___fldiv@a:	
   596                           ; 4 bytes @ 0x1A
   597                           
   598                           
   599                           ; 4 bytes @ 0x1A
   600     003A                     	ds	4
   601     003E                     ___fldiv@b:
   602                           
   603                           ; 4 bytes @ 0x1E
   604     003E                     	ds	4
   605     0042                     ??___fldiv:
   606                           
   607                           ; 1 bytes @ 0x22
   608     0042                     	ds	5
   609     0047                     ___fldiv@rem:
   610                           
   611                           ; 4 bytes @ 0x27
   612     0047                     	ds	4
   613     004B                     ___fldiv@sign:
   614                           
   615                           ; 1 bytes @ 0x2B
   616     004B                     	ds	1
   617     004C                     ___fldiv@new_exp:
   618                           
   619                           ; 2 bytes @ 0x2C
   620     004C                     	ds	2
   621     004E                     ___fldiv@grs:
   622                           
   623                           ; 4 bytes @ 0x2E
   624     004E                     	ds	4
   625     0052                     ___fldiv@bexp:
   626                           
   627                           ; 1 bytes @ 0x32
   628     0052                     	ds	1
   629     0053                     ___fldiv@aexp:
   630                           
   631                           ; 1 bytes @ 0x33
   632     0053                     	ds	1
   633     0054                     ?___fltol:
   634     0054                     ___fltol@f1:	
   635                           ; 4 bytes @ 0x34
   636                           
   637                           
   638                           ; 4 bytes @ 0x34
   639     0054                     	ds	4
   640     0058                     ??___fltol:
   641                           
   642                           ; 1 bytes @ 0x38
   643     0058                     	ds	4
   644     005C                     ___fltol@sign1:
   645                           
   646                           ; 1 bytes @ 0x3C
   647     005C                     	ds	1
   648     005D                     ___fltol@exp1:
   649                           
   650                           ; 1 bytes @ 0x3D
   651     005D                     	ds	1
   652     005E                     adc@p:
   653                           
   654                           ; 2 bytes @ 0x3E
   655     005E                     	ds	2
   656     0060                     adc@q:
   657                           
   658                           ; 2 bytes @ 0x40
   659     0060                     	ds	2
   660     0062                     adc@r:
   661                           
   662                           ; 2 bytes @ 0x42
   663     0062                     	ds	2
   664                           
   665                           	psect	maintext
   666     0F73                     __pmaintext:	
   667 ;;
   668 ;;Main: autosize = 0, tempsize = 0, incstack = 0, save=0
   669 ;;
   670 ;; *************** function _main *****************
   671 ;; Defined at:
   672 ;;		line 127 in file "ac.c"
   673 ;; Parameters:    Size  Location     Type
   674 ;;		None
   675 ;; Auto vars:     Size  Location     Type
   676 ;;		None
   677 ;; Return value:  Size  Location     Type
   678 ;;                  1    wreg      void 
   679 ;; Registers used:
   680 ;;		wreg, fsr0l, fsr0h, status,2, status,0, btemp+1, pclath, cstack
   681 ;; Tracked objects:
   682 ;;		On entry : B00/0
   683 ;;		On exit  : 0/0
   684 ;;		Unchanged: 0/0
   685 ;; Data sizes:     COMMON   BANK0   BANK1   BANK3   BANK2
   686 ;;      Params:         0       0       0       0       0
   687 ;;      Locals:         0       0       0       0       0
   688 ;;      Temps:          0       0       0       0       0
   689 ;;      Totals:         0       0       0       0       0
   690 ;;Total ram usage:        0 bytes
   691 ;; Hardware stack levels required when called: 6
   692 ;; This function calls:
   693 ;;		_adc
   694 ;;		_lcd
   695 ;;		_print
   696 ;;		_receive
   697 ;; This function is called by:
   698 ;;		Startup code after reset
   699 ;; This function uses a non-reentrant model
   700 ;;
   701                           
   702     0F73                     _main:	
   703                           ;psect for function _main
   704                           
   705     0F73                     l1928:	
   706                           ;incstack = 0
   707                           ; Regs used in _main: [wreg-fsr0h+status,2+status,0+btemp+1+pclath+cstack]
   708                           
   709                           
   710                           ;ac.c: 129:     PORTA=0x00;
   711     0F73  1283               	bcf	3,5	;RP0=0, select bank0
   712     0F74  1303               	bcf	3,6	;RP1=0, select bank0
   713     0F75  0185               	clrf	5	;volatile
   714     0F76                     l1930:
   715                           
   716                           ;ac.c: 130:     TRISA=0x0D;
   717     0F76  300D               	movlw	13
   718     0F77  1683               	bsf	3,5	;RP0=1, select bank1
   719     0F78  1303               	bcf	3,6	;RP1=0, select bank1
   720     0F79  0085               	movwf	5	;volatile
   721     0F7A                     l1932:
   722                           
   723                           ;ac.c: 131:     PORTB=0x00;
   724     0F7A  1283               	bcf	3,5	;RP0=0, select bank0
   725     0F7B  1303               	bcf	3,6	;RP1=0, select bank0
   726     0F7C  0186               	clrf	6	;volatile
   727     0F7D                     l1934:
   728                           
   729                           ;ac.c: 132:     TRISB=0x00;
   730     0F7D  1683               	bsf	3,5	;RP0=1, select bank1
   731     0F7E  1303               	bcf	3,6	;RP1=0, select bank1
   732     0F7F  0186               	clrf	6	;volatile
   733     0F80                     l1936:
   734                           
   735                           ;ac.c: 133:     PORTC=0x00;
   736     0F80  1283               	bcf	3,5	;RP0=0, select bank0
   737     0F81  1303               	bcf	3,6	;RP1=0, select bank0
   738     0F82  0187               	clrf	7	;volatile
   739                           
   740                           ;ac.c: 134:     TRISC=0x80;
   741     0F83  3080               	movlw	128
   742     0F84  1683               	bsf	3,5	;RP0=1, select bank1
   743     0F85  1303               	bcf	3,6	;RP1=0, select bank1
   744     0F86  0087               	movwf	7	;volatile
   745     0F87                     l1938:
   746                           
   747                           ;ac.c: 135:     PORTD=0x00;
   748     0F87  1283               	bcf	3,5	;RP0=0, select bank0
   749     0F88  1303               	bcf	3,6	;RP1=0, select bank0
   750     0F89  0188               	clrf	8	;volatile
   751     0F8A                     l1940:
   752                           
   753                           ;ac.c: 136:     TRISD=0x00;
   754     0F8A  1683               	bsf	3,5	;RP0=1, select bank1
   755     0F8B  1303               	bcf	3,6	;RP1=0, select bank1
   756     0F8C  0188               	clrf	8	;volatile
   757     0F8D                     l1942:
   758                           
   759                           ;ac.c: 137:     PORTE=0x00;
   760     0F8D  1283               	bcf	3,5	;RP0=0, select bank0
   761     0F8E  1303               	bcf	3,6	;RP1=0, select bank0
   762     0F8F  0189               	clrf	9	;volatile
   763     0F90                     l1944:
   764                           
   765                           ;ac.c: 138:     TRISE=0x00;
   766     0F90  1683               	bsf	3,5	;RP0=1, select bank1
   767     0F91  1303               	bcf	3,6	;RP1=0, select bank1
   768     0F92  0189               	clrf	9	;volatile
   769                           
   770                           ;ac.c: 140:     ADCON0=0x81;
   771     0F93  3081               	movlw	129
   772     0F94  1283               	bcf	3,5	;RP0=0, select bank0
   773     0F95  1303               	bcf	3,6	;RP1=0, select bank0
   774     0F96  009F               	movwf	31	;volatile
   775                           
   776                           ;ac.c: 141:     ADCON1=0xb0;
   777     0F97  30B0               	movlw	176
   778     0F98  1683               	bsf	3,5	;RP0=1, select bank1
   779     0F99  1303               	bcf	3,6	;RP1=0, select bank1
   780     0F9A  009F               	movwf	31	;volatile
   781                           
   782                           ;ac.c: 142:     ANSEL=0x01;
   783     0F9B  3001               	movlw	1
   784     0F9C  1683               	bsf	3,5	;RP0=1, select bank3
   785     0F9D  1703               	bsf	3,6	;RP1=1, select bank3
   786     0F9E  0088               	movwf	8	;volatile
   787     0F9F                     l1946:
   788                           
   789                           ;ac.c: 143:     ANSELH=0x00;
   790     0F9F  0189               	clrf	9	;volatile
   791     0FA0                     l1948:
   792                           
   793                           ;ac.c: 145:     SPBRG=25;
   794     0FA0  3019               	movlw	25
   795     0FA1  1683               	bsf	3,5	;RP0=1, select bank1
   796     0FA2  1303               	bcf	3,6	;RP1=0, select bank1
   797     0FA3  0099               	movwf	25	;volatile
   798     0FA4                     l1950:
   799                           
   800                           ;ac.c: 146:     TXSTA=0x26;
   801     0FA4  3026               	movlw	38
   802     0FA5  0098               	movwf	24	;volatile
   803     0FA6                     l1952:
   804                           
   805                           ;ac.c: 147:     RCSTA=0x90;
   806     0FA6  3090               	movlw	144
   807     0FA7  1283               	bcf	3,5	;RP0=0, select bank0
   808     0FA8  1303               	bcf	3,6	;RP1=0, select bank0
   809     0FA9  0098               	movwf	24	;volatile
   810     0FAA                     l1954:
   811                           
   812                           ;ac.c: 149:     lcd(0,0x38);
   813     0FAA  3000               	movlw	0
   814     0FAB  00F2               	movwf	lcd@rs
   815     0FAC  00F3               	movwf	lcd@rs+1
   816     0FAD  3038               	movlw	56
   817     0FAE  00F4               	movwf	lcd@data
   818     0FAF  120A  158A  254E  120A  158A  	fcall	_lcd
   819     0FB4                     l1956:
   820                           
   821                           ;ac.c: 150:     lcd(0,0x0c);
   822     0FB4  3000               	movlw	0
   823     0FB5  00F2               	movwf	lcd@rs
   824     0FB6  00F3               	movwf	lcd@rs+1
   825     0FB7  300C               	movlw	12
   826     0FB8  00F4               	movwf	lcd@data
   827     0FB9  120A  158A  254E  120A  158A  	fcall	_lcd
   828     0FBE                     l1958:
   829                           
   830                           ;ac.c: 151:     lcd(0,0x01);
   831     0FBE  3000               	movlw	0
   832     0FBF  00F2               	movwf	lcd@rs
   833     0FC0  00F3               	movwf	lcd@rs+1
   834     0FC1  01F4               	clrf	lcd@data
   835     0FC2  0AF4               	incf	lcd@data,f
   836     0FC3  120A  158A  254E  120A  158A  	fcall	_lcd
   837     0FC8                     l1960:
   838                           
   839                           ;ac.c: 152:     lcd(0,0x80);
   840     0FC8  3000               	movlw	0
   841     0FC9  00F2               	movwf	lcd@rs
   842     0FCA  00F3               	movwf	lcd@rs+1
   843     0FCB  3080               	movlw	128
   844     0FCC  00F4               	movwf	lcd@data
   845     0FCD  120A  158A  254E  120A  158A  	fcall	_lcd
   846     0FD2                     l1962:
   847                           
   848                           ;ac.c: 154:     set_temp[0]='0';
   849     0FD2  3030               	movlw	48
   850     0FD3  1683               	bsf	3,5	;RP0=1, select bank1
   851     0FD4  1303               	bcf	3,6	;RP1=0, select bank1
   852     0FD5  00A0               	movwf	_set_temp^(0+128)
   853     0FD6                     l1964:
   854                           
   855                           ;ac.c: 156:     {;ac.c: 157:         if(count==0)
   856     0FD6  1283               	bcf	3,5	;RP0=0, select bank0
   857     0FD7  1303               	bcf	3,6	;RP1=0, select bank0
   858     0FD8  086A               	movf	_count,w
   859     0FD9  046B               	iorwf	_count+1,w
   860     0FDA  1D03               	btfss	3,2
   861     0FDB  2FDD               	goto	u2641
   862     0FDC  2FDE               	goto	u2640
   863     0FDD                     u2641:
   864     0FDD  2FF7               	goto	l1972
   865     0FDE                     u2640:
   866     0FDE                     l1966:
   867                           
   868                           ;ac.c: 158:         {;ac.c: 159:             adc();
   869     0FDE  120A  118A  20E1  120A  158A  	fcall	_adc
   870     0FE3                     l1968:
   871                           
   872                           ;ac.c: 160:             print(0x80,"ROOM TEMP:");
   873     0FE3  300C               	movlw	(low ((STR_3-__stringbase)| (0+32768)))& (0+255)
   874     0FE4  00F5               	movwf	print@ptr
   875     0FE5  3080               	movlw	128
   876     0FE6  00F6               	movwf	print@ptr+1
   877     0FE7  3080               	movlw	128
   878     0FE8  120A  158A  25E6  120A  158A  	fcall	_print
   879     0FED                     l1970:
   880                           
   881                           ;ac.c: 161:             print(0x8b,room_temp);
   882     0FED  30A5               	movlw	(low (_room_temp| 0))& (0+255)
   883     0FEE  00F5               	movwf	print@ptr
   884     0FEF  3000               	movlw	0
   885     0FF0  00F6               	movwf	print@ptr+1
   886     0FF1  308B               	movlw	139
   887     0FF2  120A  158A  25E6  120A  158A  	fcall	_print
   888     0FF7                     l1972:
   889                           
   890                           ;ac.c: 163:         receive();
   891     0FF7  120A  158A  25A0  120A  158A  	fcall	_receive
   892     0FFC  2FD6               	goto	l1964
   893     0FFD  120A  118A  2800   	ljmp	start
   894     1000                     __end_of_main:
   895                           
   896                           	psect	text1
   897     0DA0                     __ptext1:	
   898 ;; *************** function _receive *****************
   899 ;; Defined at:
   900 ;;		line 107 in file "ac.c"
   901 ;; Parameters:    Size  Location     Type
   902 ;;		None
   903 ;; Auto vars:     Size  Location     Type
   904 ;;		None
   905 ;; Return value:  Size  Location     Type
   906 ;;                  1    wreg      void 
   907 ;; Registers used:
   908 ;;		wreg, fsr0l, fsr0h, status,2, status,0, btemp+1, pclath, cstack
   909 ;; Tracked objects:
   910 ;;		On entry : 0/0
   911 ;;		On exit  : 0/0
   912 ;;		Unchanged: 0/0
   913 ;; Data sizes:     COMMON   BANK0   BANK1   BANK3   BANK2
   914 ;;      Params:         0       0       0       0       0
   915 ;;      Locals:         0       0       0       0       0
   916 ;;      Temps:          0       0       0       0       0
   917 ;;      Totals:         0       0       0       0       0
   918 ;;Total ram usage:        0 bytes
   919 ;; Hardware stack levels used: 1
   920 ;; Hardware stack levels required when called: 5
   921 ;; This function calls:
   922 ;;		_print
   923 ;;		_temp_compare
   924 ;; This function is called by:
   925 ;;		_main
   926 ;; This function uses a non-reentrant model
   927 ;;
   928                           
   929     0DA0                     _receive:	
   930                           ;psect for function _receive
   931                           
   932     0DA0                     l1904:	
   933                           ;incstack = 0
   934                           ; Regs used in _receive: [wreg-fsr0h+status,2+status,0+btemp+1+pclath+cstack]
   935                           
   936                           
   937                           ;ac.c: 109:     if(RCIF==1)
   938     0DA0  1283               	bcf	3,5	;RP0=0, select bank0
   939     0DA1  1303               	bcf	3,6	;RP1=0, select bank0
   940     0DA2  1E8C               	btfss	12,5	;volatile
   941     0DA3  2DA5               	goto	u2621
   942     0DA4  2DA6               	goto	u2620
   943     0DA5                     u2621:
   944     0DA5  2DE5               	goto	l109
   945     0DA6                     u2620:
   946     0DA6                     l1906:
   947                           
   948                           ;ac.c: 110:     {;ac.c: 111:         set_temp[i]=RCREG;
   949     0DA6  086C               	movf	_i,w
   950     0DA7  3EA0               	addlw	(low (_set_temp| 0))& (0+255)
   951     0DA8  0084               	movwf	4
   952     0DA9  081A               	movf	26,w	;volatile
   953     0DAA  1383               	bcf	3,7	;select IRP bank1
   954     0DAB  0080               	movwf	0
   955     0DAC                     l1908:
   956                           
   957                           ;ac.c: 112:         i++;
   958     0DAC  3001               	movlw	1
   959     0DAD  07EC               	addwf	_i,f
   960     0DAE  1803               	skipnc
   961     0DAF  0AED               	incf	_i+1,f
   962     0DB0  3000               	movlw	0
   963     0DB1  07ED               	addwf	_i+1,f
   964     0DB2                     l1910:
   965                           
   966                           ;ac.c: 113:         if(i==3)
   967     0DB2  3003               	movlw	3
   968     0DB3  066C               	xorwf	_i,w
   969     0DB4  046D               	iorwf	_i+1,w
   970     0DB5  1D03               	btfss	3,2
   971     0DB6  2DB8               	goto	u2631
   972     0DB7  2DB9               	goto	u2630
   973     0DB8                     u2631:
   974     0DB8  2DE2               	goto	l1926
   975     0DB9                     u2630:
   976     0DB9                     l1912:
   977                           
   978                           ;ac.c: 114:         {;ac.c: 115:             count++;
   979     0DB9  3001               	movlw	1
   980     0DBA  07EA               	addwf	_count,f
   981     0DBB  1803               	skipnc
   982     0DBC  0AEB               	incf	_count+1,f
   983     0DBD  3000               	movlw	0
   984     0DBE  07EB               	addwf	_count+1,f
   985     0DBF                     l1914:
   986                           
   987                           ;ac.c: 116:             set_temp[i]='C';
   988     0DBF  086C               	movf	_i,w
   989     0DC0  3EA0               	addlw	(low (_set_temp| 0))& (0+255)
   990     0DC1  0084               	movwf	4
   991     0DC2  3043               	movlw	67
   992     0DC3  0080               	movwf	0
   993     0DC4                     l1916:
   994                           
   995                           ;ac.c: 117:             i=1;
   996     0DC4  3001               	movlw	1
   997     0DC5  00EC               	movwf	_i
   998     0DC6  3000               	movlw	0
   999     0DC7  00ED               	movwf	_i+1
  1000     0DC8                     l1918:
  1001                           
  1002                           ;ac.c: 118:             RB0=1;
  1003     0DC8  1406               	bsf	6,0	;volatile
  1004     0DC9                     l1920:
  1005                           
  1006                           ;ac.c: 119:             print(0xc0,"SET TEMP :");
  1007     0DC9  3001               	movlw	(low ((STR_2-__stringbase)| (0+32768)))& (0+255)
  1008     0DCA  00F5               	movwf	print@ptr
  1009     0DCB  3080               	movlw	128
  1010     0DCC  00F6               	movwf	print@ptr+1
  1011     0DCD  30C0               	movlw	192
  1012     0DCE  120A  158A  25E6  120A  158A  	fcall	_print
  1013     0DD3                     l1922:
  1014                           
  1015                           ;ac.c: 120:             print(0xcb,set_temp);
  1016     0DD3  30A0               	movlw	(low (_set_temp| 0))& (0+255)
  1017     0DD4  00F5               	movwf	print@ptr
  1018     0DD5  3000               	movlw	0
  1019     0DD6  00F6               	movwf	print@ptr+1
  1020     0DD7  30CB               	movlw	203
  1021     0DD8  120A  158A  25E6  120A  158A  	fcall	_print
  1022     0DDD                     l1924:
  1023                           
  1024                           ;ac.c: 121:             temp_compare();
  1025     0DDD  120A  118A  219F  120A  158A  	fcall	_temp_compare
  1026     0DE2                     l1926:
  1027                           
  1028                           ;ac.c: 123:         RCIF=0;
  1029     0DE2  1283               	bcf	3,5	;RP0=0, select bank0
  1030     0DE3  1303               	bcf	3,6	;RP1=0, select bank0
  1031     0DE4  128C               	bcf	12,5	;volatile
  1032     0DE5                     l109:
  1033     0DE5  0008               	return
  1034     0DE6                     __end_of_receive:
  1035                           
  1036                           	psect	text2
  1037     019F                     __ptext2:	
  1038 ;; *************** function _temp_compare *****************
  1039 ;; Defined at:
  1040 ;;		line 72 in file "ac.c"
  1041 ;; Parameters:    Size  Location     Type
  1042 ;;		None
  1043 ;; Auto vars:     Size  Location     Type
  1044 ;;		None
  1045 ;; Return value:  Size  Location     Type
  1046 ;;                  1    wreg      void 
  1047 ;; Registers used:
  1048 ;;		wreg, fsr0l, fsr0h, status,2, status,0, btemp+1, pclath, cstack
  1049 ;; Tracked objects:
  1050 ;;		On entry : 0/0
  1051 ;;		On exit  : 0/0
  1052 ;;		Unchanged: 0/0
  1053 ;; Data sizes:     COMMON   BANK0   BANK1   BANK3   BANK2
  1054 ;;      Params:         0       0       0       0       0
  1055 ;;      Locals:         0       0       0       0       0
  1056 ;;      Temps:          0       4       0       0       0
  1057 ;;      Totals:         0       4       0       0       0
  1058 ;;Total ram usage:        4 bytes
  1059 ;; Hardware stack levels used: 1
  1060 ;; Hardware stack levels required when called: 4
  1061 ;; This function calls:
  1062 ;;		___awdiv
  1063 ;;		___awmod
  1064 ;;		___wmul
  1065 ;;		_delay
  1066 ;;		_lcd
  1067 ;;		_print
  1068 ;; This function is called by:
  1069 ;;		_receive
  1070 ;; This function uses a non-reentrant model
  1071 ;;
  1072                           
  1073     019F                     _temp_compare:	
  1074                           ;psect for function _temp_compare
  1075                           
  1076     019F                     l1478:	
  1077                           ;incstack = 0
  1078                           ; Regs used in _temp_compare: [wreg-fsr0h+status,2+status,0+btemp+1+pclath+cstack]
  1079                           
  1080                           
  1081                           ;ac.c: 74:     int_set_temp=(((int)set_temp[1] - 48) * 10) + ((int)set_temp[2] - 48);
  1082     019F  1683               	bsf	3,5	;RP0=1, select bank1
  1083     01A0  1303               	bcf	3,6	;RP1=0, select bank1
  1084     01A1  0821               	movf	(_set_temp^(0+128)+1),w
  1085     01A2  1283               	bcf	3,5	;RP0=0, select bank0
  1086     01A3  1303               	bcf	3,6	;RP1=0, select bank0
  1087     01A4  00A2               	movwf	??_temp_compare
  1088     01A5  01A3               	clrf	??_temp_compare+1
  1089     01A6  0822               	movf	??_temp_compare,w
  1090     01A7  00F0               	movwf	___wmul@multiplier
  1091     01A8  0823               	movf	??_temp_compare+1,w
  1092     01A9  00F1               	movwf	___wmul@multiplier+1
  1093     01AA  300A               	movlw	10
  1094     01AB  00F2               	movwf	___wmul@multiplicand
  1095     01AC  3000               	movlw	0
  1096     01AD  00F3               	movwf	___wmul@multiplicand+1
  1097     01AE  120A  118A  2004  120A  118A  	fcall	___wmul
  1098     01B3  1683               	bsf	3,5	;RP0=1, select bank1
  1099     01B4  1303               	bcf	3,6	;RP1=0, select bank1
  1100     01B5  0822               	movf	(_set_temp^(0+128)+2),w
  1101     01B6  0770               	addwf	?___wmul,w
  1102     01B7  1283               	bcf	3,5	;RP0=0, select bank0
  1103     01B8  1303               	bcf	3,6	;RP1=0, select bank0
  1104     01B9  00A4               	movwf	??_temp_compare+2
  1105     01BA  3000               	movlw	0
  1106     01BB  1803               	skipnc
  1107     01BC  3001               	movlw	1
  1108     01BD  0771               	addwf	?___wmul+1,w
  1109     01BE  00A5               	movwf	??_temp_compare+3
  1110     01BF  0824               	movf	??_temp_compare+2,w
  1111     01C0  3EF0               	addlw	240
  1112     01C1  00E4               	movwf	_int_set_temp
  1113     01C2  0825               	movf	??_temp_compare+3,w
  1114     01C3  1803               	skipnc
  1115     01C4  3E01               	addlw	1
  1116     01C5  3EFD               	addlw	253
  1117     01C6  00E5               	movwf	_int_set_temp+1
  1118     01C7                     l1480:
  1119                           
  1120                           ;ac.c: 76:     if( (int_set_temp<18) || (int_set_temp>35) )
  1121     01C7  0865               	movf	_int_set_temp+1,w
  1122     01C8  3A80               	xorlw	128
  1123     01C9  00FF               	movwf	btemp+1
  1124     01CA  3080               	movlw	128
  1125     01CB  027F               	subwf	btemp+1,w
  1126     01CC  1D03               	skipz
  1127     01CD  29D0               	goto	u1655
  1128     01CE  3012               	movlw	18
  1129     01CF  0264               	subwf	_int_set_temp,w
  1130     01D0                     u1655:
  1131     01D0  1C03               	skipc
  1132     01D1  29D3               	goto	u1651
  1133     01D2  29D4               	goto	u1650
  1134     01D3                     u1651:
  1135     01D3  29E3               	goto	l1484
  1136     01D4                     u1650:
  1137     01D4                     l1482:
  1138     01D4  1283               	bcf	3,5	;RP0=0, select bank0
  1139     01D5  1303               	bcf	3,6	;RP1=0, select bank0
  1140     01D6  0865               	movf	_int_set_temp+1,w
  1141     01D7  3A80               	xorlw	128
  1142     01D8  00FF               	movwf	btemp+1
  1143     01D9  3080               	movlw	128
  1144     01DA  027F               	subwf	btemp+1,w
  1145     01DB  1D03               	skipz
  1146     01DC  29DF               	goto	u1665
  1147     01DD  3024               	movlw	36
  1148     01DE  0264               	subwf	_int_set_temp,w
  1149     01DF                     u1665:
  1150     01DF  1C03               	skipc
  1151     01E0  29E2               	goto	u1661
  1152     01E1  29E3               	goto	u1660
  1153     01E2                     u1661:
  1154     01E2  29F8               	goto	l1488
  1155     01E3                     u1660:
  1156     01E3                     l1484:
  1157                           
  1158                           ;ac.c: 77:     {;ac.c: 78:         lcd(0,0x01);
  1159     01E3  3000               	movlw	0
  1160     01E4  00F2               	movwf	lcd@rs
  1161     01E5  00F3               	movwf	lcd@rs+1
  1162     01E6  01F4               	clrf	lcd@data
  1163     01E7  0AF4               	incf	lcd@data,f
  1164     01E8  120A  158A  254E  120A  118A  	fcall	_lcd
  1165     01ED                     l1486:
  1166                           
  1167                           ;ac.c: 79:         print(0x80,"ERROR");
  1168     01ED  3017               	movlw	(low ((STR_1-__stringbase)| (0+32768)))& (0+255)
  1169     01EE  00F5               	movwf	print@ptr
  1170     01EF  3080               	movlw	128
  1171     01F0  00F6               	movwf	print@ptr+1
  1172     01F1  3080               	movlw	128
  1173     01F2  120A  158A  25E6  120A  118A  	fcall	_print
  1174                           
  1175                           ;ac.c: 80:     }
  1176     01F7  2AC1               	goto	l104
  1177     01F8                     l1488:
  1178     01F8  1283               	bcf	3,5	;RP0=0, select bank0
  1179     01F9  1303               	bcf	3,6	;RP1=0, select bank0
  1180     01FA  0865               	movf	_int_set_temp+1,w
  1181     01FB  3A80               	xorlw	128
  1182     01FC  00A2               	movwf	??_temp_compare
  1183     01FD  0867               	movf	_dv_temp+1,w
  1184     01FE  3A80               	xorlw	128
  1185     01FF  0222               	subwf	??_temp_compare,w
  1186     0200  1D03               	skipz
  1187     0201  2A04               	goto	u1675
  1188     0202  0866               	movf	_dv_temp,w
  1189     0203  0264               	subwf	_int_set_temp,w
  1190     0204                     u1675:
  1191     0204  1803               	skipnc
  1192     0205  2A07               	goto	u1671
  1193     0206  2A08               	goto	u1670
  1194     0207                     u1671:
  1195     0207  2A5E               	goto	l1504
  1196     0208                     u1670:
  1197     0208  2A4A               	goto	l1502
  1198     0209                     l1492:
  1199                           
  1200                           ;ac.c: 84:         {;ac.c: 85:             dv_temp--;
  1201     0209  30FF               	movlw	255
  1202     020A  1283               	bcf	3,5	;RP0=0, select bank0
  1203     020B  1303               	bcf	3,6	;RP1=0, select bank0
  1204     020C  07E6               	addwf	_dv_temp,f
  1205     020D  1803               	skipnc
  1206     020E  0AE7               	incf	_dv_temp+1,f
  1207     020F  30FF               	movlw	255
  1208     0210  07E7               	addwf	_dv_temp+1,f
  1209     0211                     l1494:
  1210                           
  1211                           ;ac.c: 86:             room_temp[1]=(dv_temp/10)+48;
  1212     0211  300A               	movlw	10
  1213     0212  00F0               	movwf	___awdiv@divisor
  1214     0213  3000               	movlw	0
  1215     0214  00F1               	movwf	___awdiv@divisor+1
  1216     0215  0867               	movf	_dv_temp+1,w
  1217     0216  00F3               	movwf	___awdiv@dividend+1
  1218     0217  0866               	movf	_dv_temp,w
  1219     0218  00F2               	movwf	___awdiv@dividend
  1220     0219  120A  158A  2694  120A  118A  	fcall	___awdiv
  1221     021E  0870               	movf	?___awdiv,w
  1222     021F  3E30               	addlw	48
  1223     0220  1683               	bsf	3,5	;RP0=1, select bank1
  1224     0221  1303               	bcf	3,6	;RP1=0, select bank1
  1225     0222  00A6               	movwf	(_room_temp^(0+128)+1)
  1226     0223                     l1496:
  1227                           
  1228                           ;ac.c: 87:             room_temp[2]=(dv_temp%10)+48;
  1229     0223  300A               	movlw	10
  1230     0224  00F9               	movwf	___awmod@divisor
  1231     0225  3000               	movlw	0
  1232     0226  00FA               	movwf	___awmod@divisor+1
  1233     0227  1283               	bcf	3,5	;RP0=0, select bank0
  1234     0228  1303               	bcf	3,6	;RP1=0, select bank0
  1235     0229  0867               	movf	_dv_temp+1,w
  1236     022A  00FC               	movwf	___awmod@dividend+1
  1237     022B  0866               	movf	_dv_temp,w
  1238     022C  00FB               	movwf	___awmod@dividend
  1239     022D  120A  158A  2639  120A  118A  	fcall	___awmod
  1240     0232  0879               	movf	?___awmod,w
  1241     0233  3E30               	addlw	48
  1242     0234  1683               	bsf	3,5	;RP0=1, select bank1
  1243     0235  1303               	bcf	3,6	;RP1=0, select bank1
  1244     0236  00A7               	movwf	(_room_temp^(0+128)+2)
  1245     0237                     l1498:
  1246                           
  1247                           ;ac.c: 88:             print(0x8b,room_temp);
  1248     0237  30A5               	movlw	(low (_room_temp| 0))& (0+255)
  1249     0238  00F5               	movwf	print@ptr
  1250     0239  3000               	movlw	0
  1251     023A  00F6               	movwf	print@ptr+1
  1252     023B  308B               	movlw	139
  1253     023C  120A  158A  25E6  120A  118A  	fcall	_print
  1254     0241                     l1500:
  1255                           
  1256                           ;ac.c: 89:             delay(20000);
  1257     0241  3020               	movlw	32
  1258     0242  00F0               	movwf	delay@t
  1259     0243  304E               	movlw	78
  1260     0244  00F1               	movwf	delay@t+1
  1261     0245  120A  158A  253F  120A  118A  	fcall	_delay
  1262     024A                     l1502:
  1263     024A  1283               	bcf	3,5	;RP0=0, select bank0
  1264     024B  1303               	bcf	3,6	;RP1=0, select bank0
  1265     024C  0865               	movf	_int_set_temp+1,w
  1266     024D  3A80               	xorlw	128
  1267     024E  00A2               	movwf	??_temp_compare
  1268     024F  0867               	movf	_dv_temp+1,w
  1269     0250  3A80               	xorlw	128
  1270     0251  0222               	subwf	??_temp_compare,w
  1271     0252  1D03               	skipz
  1272     0253  2A56               	goto	u1685
  1273     0254  0866               	movf	_dv_temp,w
  1274     0255  0264               	subwf	_int_set_temp,w
  1275     0256                     u1685:
  1276     0256  1C03               	skipc
  1277     0257  2A59               	goto	u1681
  1278     0258  2A5A               	goto	u1680
  1279     0259                     u1681:
  1280     0259  2A09               	goto	l1492
  1281     025A                     u1680:
  1282     025A                     l98:
  1283                           
  1284                           ;ac.c: 91:         RB0=0;
  1285     025A  1283               	bcf	3,5	;RP0=0, select bank0
  1286     025B  1303               	bcf	3,6	;RP1=0, select bank0
  1287     025C  1006               	bcf	6,0	;volatile
  1288                           
  1289                           ;ac.c: 92:     }
  1290     025D  2AC1               	goto	l104
  1291     025E                     l1504:
  1292     025E  1283               	bcf	3,5	;RP0=0, select bank0
  1293     025F  1303               	bcf	3,6	;RP1=0, select bank0
  1294     0260  0867               	movf	_dv_temp+1,w
  1295     0261  3A80               	xorlw	128
  1296     0262  00A2               	movwf	??_temp_compare
  1297     0263  0865               	movf	_int_set_temp+1,w
  1298     0264  3A80               	xorlw	128
  1299     0265  0222               	subwf	??_temp_compare,w
  1300     0266  1D03               	skipz
  1301     0267  2A6A               	goto	u1695
  1302     0268  0864               	movf	_int_set_temp,w
  1303     0269  0266               	subwf	_dv_temp,w
  1304     026A                     u1695:
  1305     026A  1803               	skipnc
  1306     026B  2A6D               	goto	u1691
  1307     026C  2A6E               	goto	u1690
  1308     026D                     u1691:
  1309     026D  2AC1               	goto	l104
  1310     026E                     u1690:
  1311     026E  2AB0               	goto	l1518
  1312     026F                     l1508:
  1313                           
  1314                           ;ac.c: 96:         {;ac.c: 97:             dv_temp++;
  1315     026F  3001               	movlw	1
  1316     0270  1283               	bcf	3,5	;RP0=0, select bank0
  1317     0271  1303               	bcf	3,6	;RP1=0, select bank0
  1318     0272  07E6               	addwf	_dv_temp,f
  1319     0273  1803               	skipnc
  1320     0274  0AE7               	incf	_dv_temp+1,f
  1321     0275  3000               	movlw	0
  1322     0276  07E7               	addwf	_dv_temp+1,f
  1323     0277                     l1510:
  1324                           
  1325                           ;ac.c: 98:             room_temp[1]=(dv_temp/10)+48;
  1326     0277  300A               	movlw	10
  1327     0278  00F0               	movwf	___awdiv@divisor
  1328     0279  3000               	movlw	0
  1329     027A  00F1               	movwf	___awdiv@divisor+1
  1330     027B  0867               	movf	_dv_temp+1,w
  1331     027C  00F3               	movwf	___awdiv@dividend+1
  1332     027D  0866               	movf	_dv_temp,w
  1333     027E  00F2               	movwf	___awdiv@dividend
  1334     027F  120A  158A  2694  120A  118A  	fcall	___awdiv
  1335     0284  0870               	movf	?___awdiv,w
  1336     0285  3E30               	addlw	48
  1337     0286  1683               	bsf	3,5	;RP0=1, select bank1
  1338     0287  1303               	bcf	3,6	;RP1=0, select bank1
  1339     0288  00A6               	movwf	(_room_temp^(0+128)+1)
  1340     0289                     l1512:
  1341                           
  1342                           ;ac.c: 99:             room_temp[2]=(dv_temp%10)+48;
  1343     0289  300A               	movlw	10
  1344     028A  00F9               	movwf	___awmod@divisor
  1345     028B  3000               	movlw	0
  1346     028C  00FA               	movwf	___awmod@divisor+1
  1347     028D  1283               	bcf	3,5	;RP0=0, select bank0
  1348     028E  1303               	bcf	3,6	;RP1=0, select bank0
  1349     028F  0867               	movf	_dv_temp+1,w
  1350     0290  00FC               	movwf	___awmod@dividend+1
  1351     0291  0866               	movf	_dv_temp,w
  1352     0292  00FB               	movwf	___awmod@dividend
  1353     0293  120A  158A  2639  120A  118A  	fcall	___awmod
  1354     0298  0879               	movf	?___awmod,w
  1355     0299  3E30               	addlw	48
  1356     029A  1683               	bsf	3,5	;RP0=1, select bank1
  1357     029B  1303               	bcf	3,6	;RP1=0, select bank1
  1358     029C  00A7               	movwf	(_room_temp^(0+128)+2)
  1359     029D                     l1514:
  1360                           
  1361                           ;ac.c: 100:             print(0x8b,room_temp);
  1362     029D  30A5               	movlw	(low (_room_temp| 0))& (0+255)
  1363     029E  00F5               	movwf	print@ptr
  1364     029F  3000               	movlw	0
  1365     02A0  00F6               	movwf	print@ptr+1
  1366     02A1  308B               	movlw	139
  1367     02A2  120A  158A  25E6  120A  118A  	fcall	_print
  1368     02A7                     l1516:
  1369                           
  1370                           ;ac.c: 101:             delay(20000);
  1371     02A7  3020               	movlw	32
  1372     02A8  00F0               	movwf	delay@t
  1373     02A9  304E               	movlw	78
  1374     02AA  00F1               	movwf	delay@t+1
  1375     02AB  120A  158A  253F  120A  118A  	fcall	_delay
  1376     02B0                     l1518:
  1377     02B0  1283               	bcf	3,5	;RP0=0, select bank0
  1378     02B1  1303               	bcf	3,6	;RP1=0, select bank0
  1379     02B2  0867               	movf	_dv_temp+1,w
  1380     02B3  3A80               	xorlw	128
  1381     02B4  00A2               	movwf	??_temp_compare
  1382     02B5  0865               	movf	_int_set_temp+1,w
  1383     02B6  3A80               	xorlw	128
  1384     02B7  0222               	subwf	??_temp_compare,w
  1385     02B8  1D03               	skipz
  1386     02B9  2ABC               	goto	u1705
  1387     02BA  0864               	movf	_int_set_temp,w
  1388     02BB  0266               	subwf	_dv_temp,w
  1389     02BC                     u1705:
  1390     02BC  1C03               	skipc
  1391     02BD  2ABF               	goto	u1701
  1392     02BE  2AC0               	goto	u1700
  1393     02BF                     u1701:
  1394     02BF  2A6F               	goto	l1508
  1395     02C0                     u1700:
  1396     02C0  2A5A               	goto	l98
  1397     02C1                     l104:
  1398     02C1  0008               	return
  1399     02C2                     __end_of_temp_compare:
  1400                           
  1401                           	psect	text3
  1402     0DE6                     __ptext3:	
  1403 ;; *************** function _print *****************
  1404 ;; Defined at:
  1405 ;;		line 43 in file "ac.c"
  1406 ;; Parameters:    Size  Location     Type
  1407 ;;  addrs           1    wreg     unsigned char 
  1408 ;;  ptr             2    5[COMMON] PTR unsigned char 
  1409 ;;		 -> STR_3(11), STR_2(11), STR_1(6), set_temp(5), 
  1410 ;;		 -> room_temp(5), 
  1411 ;; Auto vars:     Size  Location     Type
  1412 ;;  addrs           1   10[COMMON] unsigned char 
  1413 ;;  j               2   11[COMMON] int 
  1414 ;; Return value:  Size  Location     Type
  1415 ;;                  1    wreg      void 
  1416 ;; Registers used:
  1417 ;;		wreg, fsr0l, fsr0h, status,2, status,0, btemp+1, pclath, cstack
  1418 ;; Tracked objects:
  1419 ;;		On entry : 0/0
  1420 ;;		On exit  : 0/0
  1421 ;;		Unchanged: 0/0
  1422 ;; Data sizes:     COMMON   BANK0   BANK1   BANK3   BANK2
  1423 ;;      Params:         2       0       0       0       0
  1424 ;;      Locals:         3       0       0       0       0
  1425 ;;      Temps:          3       0       0       0       0
  1426 ;;      Totals:         8       0       0       0       0
  1427 ;;Total ram usage:        8 bytes
  1428 ;; Hardware stack levels used: 1
  1429 ;; Hardware stack levels required when called: 3
  1430 ;; This function calls:
  1431 ;;		_lcd
  1432 ;; This function is called by:
  1433 ;;		_temp_compare
  1434 ;;		_receive
  1435 ;;		_main
  1436 ;; This function uses a non-reentrant model
  1437 ;;
  1438                           
  1439     0DE6                     _print:	
  1440                           ;psect for function _print
  1441                           
  1442                           
  1443                           ;incstack = 0
  1444                           ; Regs used in _print: [wreg-fsr0h+status,2+status,0+btemp+1+pclath+cstack]
  1445                           ;print@addrs stored from wreg
  1446     0DE6  00FA               	movwf	print@addrs
  1447     0DE7                     l1358:
  1448                           
  1449                           ;ac.c: 43: void print(char addrs,char *ptr);ac.c: 44: {;ac.c: 45:     int j;;ac.c: 46:  
      +                             for(j=0; *(ptr+j)!='\0' ;j++)
  1450     0DE7  01FB               	clrf	print@j
  1451     0DE8  01FC               	clrf	print@j+1
  1452     0DE9  2E1C               	goto	l1366
  1453     0DEA                     l1360:
  1454                           
  1455                           ;ac.c: 47:     {;ac.c: 48:         lcd(0,addrs+j);
  1456     0DEA  3000               	movlw	0
  1457     0DEB  00F2               	movwf	lcd@rs
  1458     0DEC  00F3               	movwf	lcd@rs+1
  1459     0DED  087B               	movf	print@j,w
  1460     0DEE  077A               	addwf	print@addrs,w
  1461     0DEF  00F4               	movwf	lcd@data
  1462     0DF0  120A  158A  254E  120A  158A  	fcall	_lcd
  1463     0DF5                     l1362:
  1464                           
  1465                           ;ac.c: 49:         lcd(1,*(ptr+j));
  1466     0DF5  3001               	movlw	1
  1467     0DF6  00F2               	movwf	lcd@rs
  1468     0DF7  3000               	movlw	0
  1469     0DF8  00F3               	movwf	lcd@rs+1
  1470     0DF9  087B               	movf	print@j,w
  1471     0DFA  0775               	addwf	print@ptr,w
  1472     0DFB  00F8               	movwf	??_print+1
  1473     0DFC  0876               	movf	print@ptr+1,w
  1474     0DFD  00F7               	movwf	??_print
  1475     0DFE  1803               	skipnc
  1476     0DFF  0AF7               	incf	??_print,f
  1477     0E00  1FFB               	btfss	print@j,7
  1478     0E01  2E03               	goto	u1360
  1479     0E02  03F7               	decf	??_print,f
  1480     0E03                     u1360:
  1481     0E03  0877               	movf	??_print,w
  1482     0E04  00F9               	movwf	??_print+2
  1483     0E05  0879               	movf	??_print+2,w
  1484     0E06  1283               	bcf	3,5	;RP0=0, select bank0
  1485     0E07  1303               	bcf	3,6	;RP1=0, select bank0
  1486     0E08  00FF               	movwf	btemp+1
  1487     0E09  0878               	movf	??_print+1,w
  1488     0E0A  0084               	movwf	4
  1489     0E0B  120A  158A  2000  120A  158A  	fcall	stringtab
  1490     0E10  00F4               	movwf	lcd@data
  1491     0E11  120A  158A  254E  120A  158A  	fcall	_lcd
  1492     0E16                     l1364:
  1493                           
  1494                           ;ac.c: 50:     }
  1495     0E16  3001               	movlw	1
  1496     0E17  07FB               	addwf	print@j,f
  1497     0E18  1803               	skipnc
  1498     0E19  0AFC               	incf	print@j+1,f
  1499     0E1A  3000               	movlw	0
  1500     0E1B  07FC               	addwf	print@j+1,f
  1501     0E1C                     l1366:
  1502     0E1C  087B               	movf	print@j,w
  1503     0E1D  0775               	addwf	print@ptr,w
  1504     0E1E  00F8               	movwf	??_print+1
  1505     0E1F  0876               	movf	print@ptr+1,w
  1506     0E20  00F7               	movwf	??_print
  1507     0E21  1803               	skipnc
  1508     0E22  0AF7               	incf	??_print,f
  1509     0E23  1FFB               	btfss	print@j,7
  1510     0E24  2E26               	goto	u1370
  1511     0E25  03F7               	decf	??_print,f
  1512     0E26                     u1370:
  1513     0E26  0877               	movf	??_print,w
  1514     0E27  00F9               	movwf	??_print+2
  1515     0E28  0879               	movf	??_print+2,w
  1516     0E29  1283               	bcf	3,5	;RP0=0, select bank0
  1517     0E2A  1303               	bcf	3,6	;RP1=0, select bank0
  1518     0E2B  00FF               	movwf	btemp+1
  1519     0E2C  0878               	movf	??_print+1,w
  1520     0E2D  0084               	movwf	4
  1521     0E2E  120A  158A  2000  120A  158A  	fcall	stringtab
  1522     0E33  3A00               	xorlw	0
  1523     0E34  1D03               	skipz
  1524     0E35  2E37               	goto	u1381
  1525     0E36  2E38               	goto	u1380
  1526     0E37                     u1381:
  1527     0E37  2DEA               	goto	l1360
  1528     0E38                     u1380:
  1529     0E38                     l82:
  1530     0E38  0008               	return
  1531     0E39                     __end_of_print:
  1532                           
  1533                           	psect	text4
  1534     0D4E                     __ptext4:	
  1535 ;; *************** function _lcd *****************
  1536 ;; Defined at:
  1537 ;;		line 36 in file "ac.c"
  1538 ;; Parameters:    Size  Location     Type
  1539 ;;  rs              2    2[COMMON] int 
  1540 ;;  data            1    4[COMMON] unsigned char 
  1541 ;; Auto vars:     Size  Location     Type
  1542 ;;		None
  1543 ;; Return value:  Size  Location     Type
  1544 ;;                  1    wreg      void 
  1545 ;; Registers used:
  1546 ;;		wreg, status,2, status,0, pclath, cstack
  1547 ;; Tracked objects:
  1548 ;;		On entry : 0/0
  1549 ;;		On exit  : 0/0
  1550 ;;		Unchanged: 0/0
  1551 ;; Data sizes:     COMMON   BANK0   BANK1   BANK3   BANK2
  1552 ;;      Params:         3       0       0       0       0
  1553 ;;      Locals:         0       0       0       0       0
  1554 ;;      Temps:          0       0       0       0       0
  1555 ;;      Totals:         3       0       0       0       0
  1556 ;;Total ram usage:        3 bytes
  1557 ;; Hardware stack levels used: 1
  1558 ;; Hardware stack levels required when called: 2
  1559 ;; This function calls:
  1560 ;;		_enable
  1561 ;; This function is called by:
  1562 ;;		_print
  1563 ;;		_temp_compare
  1564 ;;		_main
  1565 ;; This function uses a non-reentrant model
  1566 ;;
  1567                           
  1568     0D4E                     _lcd:	
  1569                           ;psect for function _lcd
  1570                           
  1571     0D4E                     l1352:	
  1572                           ;incstack = 0
  1573                           ; Regs used in _lcd: [wreg+status,2+status,0+pclath+cstack]
  1574                           
  1575                           
  1576                           ;ac.c: 36: void lcd(int rs,char data);ac.c: 37: {;ac.c: 38:     RE0=rs;
  1577     0D4E  1872               	btfsc	lcd@rs,0
  1578     0D4F  2D51               	goto	u1341
  1579     0D50  2D55               	goto	u1340
  1580     0D51                     u1341:
  1581     0D51  1283               	bcf	3,5	;RP0=0, select bank0
  1582     0D52  1303               	bcf	3,6	;RP1=0, select bank0
  1583     0D53  1409               	bsf	9,0	;volatile
  1584     0D54  2D58               	goto	u1354
  1585     0D55                     u1340:
  1586     0D55  1283               	bcf	3,5	;RP0=0, select bank0
  1587     0D56  1303               	bcf	3,6	;RP1=0, select bank0
  1588     0D57  1009               	bcf	9,0	;volatile
  1589     0D58                     u1354:
  1590     0D58                     l1354:
  1591                           
  1592                           ;ac.c: 39:     PORTD=data;
  1593     0D58  0874               	movf	lcd@data,w
  1594     0D59  0088               	movwf	8	;volatile
  1595     0D5A                     l1356:
  1596                           
  1597                           ;ac.c: 40:     enable();
  1598     0D5A  120A  158A  2560  120A  158A  	fcall	_enable
  1599     0D5F                     l76:
  1600     0D5F  0008               	return
  1601     0D60                     __end_of_lcd:
  1602                           
  1603                           	psect	text5
  1604     0D60                     __ptext5:	
  1605 ;; *************** function _enable *****************
  1606 ;; Defined at:
  1607 ;;		line 29 in file "ac.c"
  1608 ;; Parameters:    Size  Location     Type
  1609 ;;		None
  1610 ;; Auto vars:     Size  Location     Type
  1611 ;;		None
  1612 ;; Return value:  Size  Location     Type
  1613 ;;                  1    wreg      void 
  1614 ;; Registers used:
  1615 ;;		wreg, status,2, status,0, pclath, cstack
  1616 ;; Tracked objects:
  1617 ;;		On entry : 0/0
  1618 ;;		On exit  : 0/0
  1619 ;;		Unchanged: 0/0
  1620 ;; Data sizes:     COMMON   BANK0   BANK1   BANK3   BANK2
  1621 ;;      Params:         0       0       0       0       0
  1622 ;;      Locals:         0       0       0       0       0
  1623 ;;      Temps:          0       0       0       0       0
  1624 ;;      Totals:         0       0       0       0       0
  1625 ;;Total ram usage:        0 bytes
  1626 ;; Hardware stack levels used: 1
  1627 ;; Hardware stack levels required when called: 1
  1628 ;; This function calls:
  1629 ;;		_delay
  1630 ;; This function is called by:
  1631 ;;		_lcd
  1632 ;; This function uses a non-reentrant model
  1633 ;;
  1634                           
  1635     0D60                     _enable:	
  1636                           ;psect for function _enable
  1637                           
  1638     0D60                     l1346:	
  1639                           ;incstack = 0
  1640                           ; Regs used in _enable: [wreg+status,2+status,0+pclath+cstack]
  1641                           
  1642                           
  1643                           ;ac.c: 31:     RE1=1;
  1644     0D60  1283               	bcf	3,5	;RP0=0, select bank0
  1645     0D61  1303               	bcf	3,6	;RP1=0, select bank0
  1646     0D62  1489               	bsf	9,1	;volatile
  1647     0D63                     l1348:
  1648                           
  1649                           ;ac.c: 32:     delay(10);
  1650     0D63  300A               	movlw	10
  1651     0D64  00F0               	movwf	delay@t
  1652     0D65  3000               	movlw	0
  1653     0D66  00F1               	movwf	delay@t+1
  1654     0D67  120A  158A  253F  120A  158A  	fcall	_delay
  1655     0D6C                     l1350:
  1656                           
  1657                           ;ac.c: 33:     RE1=0;
  1658     0D6C  1283               	bcf	3,5	;RP0=0, select bank0
  1659     0D6D  1303               	bcf	3,6	;RP1=0, select bank0
  1660     0D6E  1089               	bcf	9,1	;volatile
  1661                           
  1662                           ;ac.c: 34:     delay(10);
  1663     0D6F  300A               	movlw	10
  1664     0D70  00F0               	movwf	delay@t
  1665     0D71  3000               	movlw	0
  1666     0D72  00F1               	movwf	delay@t+1
  1667     0D73  120A  158A  253F  120A  158A  	fcall	_delay
  1668     0D78                     l73:
  1669     0D78  0008               	return
  1670     0D79                     __end_of_enable:
  1671                           
  1672                           	psect	text6
  1673     0D3F                     __ptext6:	
  1674 ;; *************** function _delay *****************
  1675 ;; Defined at:
  1676 ;;		line 25 in file "ac.c"
  1677 ;; Parameters:    Size  Location     Type
  1678 ;;  t               2    0[COMMON] unsigned int 
  1679 ;; Auto vars:     Size  Location     Type
  1680 ;;		None
  1681 ;; Return value:  Size  Location     Type
  1682 ;;                  1    wreg      void 
  1683 ;; Registers used:
  1684 ;;		wreg, status,2, status,0
  1685 ;; Tracked objects:
  1686 ;;		On entry : 0/0
  1687 ;;		On exit  : 0/0
  1688 ;;		Unchanged: 0/0
  1689 ;; Data sizes:     COMMON   BANK0   BANK1   BANK3   BANK2
  1690 ;;      Params:         2       0       0       0       0
  1691 ;;      Locals:         0       0       0       0       0
  1692 ;;      Temps:          0       0       0       0       0
  1693 ;;      Totals:         2       0       0       0       0
  1694 ;;Total ram usage:        2 bytes
  1695 ;; Hardware stack levels used: 1
  1696 ;; This function calls:
  1697 ;;		Nothing
  1698 ;; This function is called by:
  1699 ;;		_enable
  1700 ;;		_temp_compare
  1701 ;; This function uses a non-reentrant model
  1702 ;;
  1703                           
  1704     0D3F                     _delay:	
  1705                           ;psect for function _delay
  1706                           
  1707     0D3F                     l1342:	
  1708                           ;incstack = 0
  1709                           ; Regs used in _delay: [wreg+status,2+status,0]
  1710                           
  1711     0D3F                     l1344:	
  1712                           ;ac.c: 25: void delay(unsigned int t);ac.c: 26: {;ac.c: 27:     while(t--);
  1713                           
  1714     0D3F  3001               	movlw	1
  1715     0D40  02F0               	subwf	delay@t,f
  1716     0D41  3000               	movlw	0
  1717     0D42  1C03               	skipc
  1718     0D43  03F1               	decf	delay@t+1,f
  1719     0D44  02F1               	subwf	delay@t+1,f
  1720     0D45  0A70               	incf	delay@t,w
  1721     0D46  1D03               	skipz
  1722     0D47  2D4C               	goto	u1331
  1723     0D48  0A71               	incf	delay@t+1,w
  1724     0D49  1D03               	btfss	3,2
  1725     0D4A  2D4C               	goto	u1331
  1726     0D4B  2D4D               	goto	u1330
  1727     0D4C                     u1331:
  1728     0D4C  2D3F               	goto	l1344
  1729     0D4D                     u1330:
  1730     0D4D                     l70:
  1731     0D4D  0008               	return
  1732     0D4E                     __end_of_delay:
  1733                           
  1734                           	psect	text7
  1735     0004                     __ptext7:	
  1736 ;; *************** function ___wmul *****************
  1737 ;; Defined at:
  1738 ;;		line 15 in file "C:\Program Files\Microchip\xc8\v2.40\pic\sources\c90\common\Umul16.c"
  1739 ;; Parameters:    Size  Location     Type
  1740 ;;  multiplier      2    0[COMMON] unsigned int 
  1741 ;;  multiplicand    2    2[COMMON] unsigned int 
  1742 ;; Auto vars:     Size  Location     Type
  1743 ;;  product         2    4[COMMON] unsigned int 
  1744 ;; Return value:  Size  Location     Type
  1745 ;;                  2    0[COMMON] unsigned int 
  1746 ;; Registers used:
  1747 ;;		wreg, status,2, status,0
  1748 ;; Tracked objects:
  1749 ;;		On entry : 0/0
  1750 ;;		On exit  : 0/0
  1751 ;;		Unchanged: 0/0
  1752 ;; Data sizes:     COMMON   BANK0   BANK1   BANK3   BANK2
  1753 ;;      Params:         4       0       0       0       0
  1754 ;;      Locals:         2       0       0       0       0
  1755 ;;      Temps:          0       0       0       0       0
  1756 ;;      Totals:         6       0       0       0       0
  1757 ;;Total ram usage:        6 bytes
  1758 ;; Hardware stack levels used: 1
  1759 ;; This function calls:
  1760 ;;		Nothing
  1761 ;; This function is called by:
  1762 ;;		_temp_compare
  1763 ;; This function uses a non-reentrant model
  1764 ;;
  1765                           
  1766     0004                     ___wmul:	
  1767                           ;psect for function ___wmul
  1768                           
  1769     0004                     l1368:	
  1770                           ;incstack = 0
  1771                           ; Regs used in ___wmul: [wreg+status,2+status,0]
  1772                           
  1773     0004  01F4               	clrf	___wmul@product
  1774     0005  01F5               	clrf	___wmul@product+1
  1775     0006                     l1370:
  1776     0006  1C70               	btfss	___wmul@multiplier,0
  1777     0007  2809               	goto	u1391
  1778     0008  280A               	goto	u1390
  1779     0009                     u1391:
  1780     0009  2810               	goto	l204
  1781     000A                     u1390:
  1782     000A                     l1372:
  1783     000A  0872               	movf	___wmul@multiplicand,w
  1784     000B  07F4               	addwf	___wmul@product,f
  1785     000C  1803               	skipnc
  1786     000D  0AF5               	incf	___wmul@product+1,f
  1787     000E  0873               	movf	___wmul@multiplicand+1,w
  1788     000F  07F5               	addwf	___wmul@product+1,f
  1789     0010                     l204:
  1790     0010  3001               	movlw	1
  1791     0011                     u1405:
  1792     0011  1003               	clrc
  1793     0012  0DF2               	rlf	___wmul@multiplicand,f
  1794     0013  0DF3               	rlf	___wmul@multiplicand+1,f
  1795     0014  3EFF               	addlw	-1
  1796     0015  1D03               	skipz
  1797     0016  2811               	goto	u1405
  1798     0017                     l1374:
  1799     0017  3001               	movlw	1
  1800     0018                     u1415:
  1801     0018  1003               	clrc
  1802     0019  0CF1               	rrf	___wmul@multiplier+1,f
  1803     001A  0CF0               	rrf	___wmul@multiplier,f
  1804     001B  3EFF               	addlw	-1
  1805     001C  1D03               	skipz
  1806     001D  2818               	goto	u1415
  1807     001E                     l1376:
  1808     001E  0870               	movf	___wmul@multiplier,w
  1809     001F  0471               	iorwf	___wmul@multiplier+1,w
  1810     0020  1D03               	btfss	3,2
  1811     0021  2823               	goto	u1421
  1812     0022  2824               	goto	u1420
  1813     0023                     u1421:
  1814     0023  2806               	goto	l1370
  1815     0024                     u1420:
  1816     0024                     l1378:
  1817     0024  0875               	movf	___wmul@product+1,w
  1818     0025  00F1               	movwf	?___wmul+1
  1819     0026  0874               	movf	___wmul@product,w
  1820     0027  00F0               	movwf	?___wmul
  1821     0028                     l206:
  1822     0028  0008               	return
  1823     0029                     __end_of___wmul:
  1824                           
  1825                           	psect	text8
  1826     00E1                     __ptext8:	
  1827 ;; *************** function _adc *****************
  1828 ;; Defined at:
  1829 ;;		line 53 in file "ac.c"
  1830 ;; Parameters:    Size  Location     Type
  1831 ;;		None
  1832 ;; Auto vars:     Size  Location     Type
  1833 ;;  r               2   66[BANK0 ] int 
  1834 ;;  q               2   64[BANK0 ] int 
  1835 ;;  p               2   62[BANK0 ] int 
  1836 ;; Return value:  Size  Location     Type
  1837 ;;                  2   84[None  ] int 
  1838 ;; Registers used:
  1839 ;;		wreg, status,2, status,0, btemp+1, pclath, cstack
  1840 ;; Tracked objects:
  1841 ;;		On entry : 0/0
  1842 ;;		On exit  : 0/0
  1843 ;;		Unchanged: 0/0
  1844 ;; Data sizes:     COMMON   BANK0   BANK1   BANK3   BANK2
  1845 ;;      Params:         0       0       0       0       0
  1846 ;;      Locals:         0       6       0       0       0
  1847 ;;      Temps:          0       0       0       0       0
  1848 ;;      Totals:         0       6       0       0       0
  1849 ;;Total ram usage:        6 bytes
  1850 ;; Hardware stack levels used: 1
  1851 ;; Hardware stack levels required when called: 2
  1852 ;; This function calls:
  1853 ;;		___awdiv
  1854 ;;		___awmod
  1855 ;;		___fldiv
  1856 ;;		___flmul
  1857 ;;		___fltol
  1858 ;;		___xxtofl
  1859 ;; This function is called by:
  1860 ;;		_main
  1861 ;; This function uses a non-reentrant model
  1862 ;;
  1863                           
  1864     00E1                     _adc:	
  1865                           ;psect for function _adc
  1866                           
  1867     00E1                     l1882:	
  1868                           ;incstack = 0
  1869                           ; Regs used in _adc: [wreg+status,2+status,0+btemp+1+pclath+cstack]
  1870                           
  1871                           
  1872                           ;ac.c: 55:     GO=1;
  1873     00E1  1283               	bcf	3,5	;RP0=0, select bank0
  1874     00E2  1303               	bcf	3,6	;RP1=0, select bank0
  1875     00E3  149F               	bsf	31,1	;volatile
  1876                           
  1877                           ;ac.c: 56:     while(GO)
  1878     00E4  28ED               	goto	l1886
  1879     00E5                     l1884:
  1880                           
  1881                           ;ac.c: 57:     {;ac.c: 58:         dv=(ADRESL+(ADRESH*256));
  1882     00E5  081E               	movf	30,w	;volatile
  1883     00E6  00E9               	movwf	_dv+1
  1884     00E7  1683               	bsf	3,5	;RP0=1, select bank1
  1885     00E8  1303               	bcf	3,6	;RP1=0, select bank1
  1886     00E9  081E               	movf	30,w	;volatile
  1887     00EA  1283               	bcf	3,5	;RP0=0, select bank0
  1888     00EB  1303               	bcf	3,6	;RP1=0, select bank0
  1889     00EC  00E8               	movwf	_dv
  1890     00ED                     l1886:
  1891                           
  1892                           ;ac.c: 56:     while(GO)
  1893     00ED  189F               	btfsc	31,1	;volatile
  1894     00EE  28F0               	goto	u2611
  1895     00EF  28F1               	goto	u2610
  1896     00F0                     u2611:
  1897     00F0  28E5               	goto	l1884
  1898     00F1                     u2610:
  1899     00F1                     l1888:
  1900                           
  1901                           ;ac.c: 61:     dv_temp=(((float)dv*150.0)/1023);
  1902     00F1  0868               	movf	_dv,w
  1903     00F2  00F0               	movwf	___xxtofl@val
  1904     00F3  0869               	movf	_dv+1,w
  1905     00F4  00F1               	movwf	___xxtofl@val+1
  1906     00F5  3000               	movlw	0
  1907     00F6  1BF1               	btfsc	___xxtofl@val+1,7
  1908     00F7  30FF               	movlw	255
  1909     00F8  00F2               	movwf	___xxtofl@val+2
  1910     00F9  00F3               	movwf	___xxtofl@val+3
  1911     00FA  3001               	movlw	1
  1912     00FB  120A  118A  2029  120A  118A  	fcall	___xxtofl
  1913     0100  0873               	movf	?___xxtofl+3,w
  1914     0101  1283               	bcf	3,5	;RP0=0, select bank0
  1915     0102  1303               	bcf	3,6	;RP1=0, select bank0
  1916     0103  00A7               	movwf	___flmul@a+3
  1917     0104  0872               	movf	?___xxtofl+2,w
  1918     0105  00A6               	movwf	___flmul@a+2
  1919     0106  0871               	movf	?___xxtofl+1,w
  1920     0107  00A5               	movwf	___flmul@a+1
  1921     0108  0870               	movf	?___xxtofl,w
  1922     0109  00A4               	movwf	___flmul@a
  1923     010A  3043               	movlw	67
  1924     010B  00A3               	movwf	___flmul@b+3
  1925     010C  3016               	movlw	22
  1926     010D  00A2               	movwf	___flmul@b+2
  1927     010E  3000               	movlw	0
  1928     010F  00A1               	movwf	___flmul@b+1
  1929     0110  3000               	movlw	0
  1930     0111  00A0               	movwf	___flmul@b
  1931     0112  120A  118A  2495  120A  118A  	fcall	___flmul
  1932     0117  1283               	bcf	3,5	;RP0=0, select bank0
  1933     0118  1303               	bcf	3,6	;RP1=0, select bank0
  1934     0119  0823               	movf	?___flmul+3,w
  1935     011A  00C1               	movwf	___fldiv@b+3
  1936     011B  0822               	movf	?___flmul+2,w
  1937     011C  00C0               	movwf	___fldiv@b+2
  1938     011D  0821               	movf	?___flmul+1,w
  1939     011E  00BF               	movwf	___fldiv@b+1
  1940     011F  0820               	movf	?___flmul,w
  1941     0120  00BE               	movwf	___fldiv@b
  1942     0121  3044               	movlw	68
  1943     0122  00BD               	movwf	___fldiv@a+3
  1944     0123  307F               	movlw	127
  1945     0124  00BC               	movwf	___fldiv@a+2
  1946     0125  30C0               	movlw	192
  1947     0126  00BB               	movwf	___fldiv@a+1
  1948     0127  3000               	movlw	0
  1949     0128  00BA               	movwf	___fldiv@a
  1950     0129  120A  118A  22C2  120A  118A  	fcall	___fldiv
  1951     012E  1283               	bcf	3,5	;RP0=0, select bank0
  1952     012F  1303               	bcf	3,6	;RP1=0, select bank0
  1953     0130  083D               	movf	?___fldiv+3,w
  1954     0131  00D7               	movwf	___fltol@f1+3
  1955     0132  083C               	movf	?___fldiv+2,w
  1956     0133  00D6               	movwf	___fltol@f1+2
  1957     0134  083B               	movf	?___fldiv+1,w
  1958     0135  00D5               	movwf	___fltol@f1+1
  1959     0136  083A               	movf	?___fldiv,w
  1960     0137  00D4               	movwf	___fltol@f1
  1961     0138  120A  158A  26FB  120A  118A  	fcall	___fltol
  1962     013D  1283               	bcf	3,5	;RP0=0, select bank0
  1963     013E  1303               	bcf	3,6	;RP1=0, select bank0
  1964     013F  0855               	movf	?___fltol+1,w
  1965     0140  00E7               	movwf	_dv_temp+1
  1966     0141  0854               	movf	?___fltol,w
  1967     0142  00E6               	movwf	_dv_temp
  1968     0143                     l1890:
  1969                           
  1970                           ;ac.c: 62:     int p = dv_temp/100;
  1971     0143  3064               	movlw	100
  1972     0144  00F0               	movwf	___awdiv@divisor
  1973     0145  3000               	movlw	0
  1974     0146  00F1               	movwf	___awdiv@divisor+1
  1975     0147  0867               	movf	_dv_temp+1,w
  1976     0148  00F3               	movwf	___awdiv@dividend+1
  1977     0149  0866               	movf	_dv_temp,w
  1978     014A  00F2               	movwf	___awdiv@dividend
  1979     014B  120A  158A  2694  120A  118A  	fcall	___awdiv
  1980     0150  0871               	movf	?___awdiv+1,w
  1981     0151  1283               	bcf	3,5	;RP0=0, select bank0
  1982     0152  1303               	bcf	3,6	;RP1=0, select bank0
  1983     0153  00DF               	movwf	adc@p+1
  1984     0154  0870               	movf	?___awdiv,w
  1985     0155  00DE               	movwf	adc@p
  1986     0156                     l1892:
  1987                           
  1988                           ;ac.c: 63:     int q = (dv_temp/10)%10;
  1989     0156  300A               	movlw	10
  1990     0157  00F9               	movwf	___awmod@divisor
  1991     0158  3000               	movlw	0
  1992     0159  00FA               	movwf	___awmod@divisor+1
  1993     015A  300A               	movlw	10
  1994     015B  00F0               	movwf	___awdiv@divisor
  1995     015C  3000               	movlw	0
  1996     015D  00F1               	movwf	___awdiv@divisor+1
  1997     015E  0867               	movf	_dv_temp+1,w
  1998     015F  00F3               	movwf	___awdiv@dividend+1
  1999     0160  0866               	movf	_dv_temp,w
  2000     0161  00F2               	movwf	___awdiv@dividend
  2001     0162  120A  158A  2694  120A  118A  	fcall	___awdiv
  2002     0167  0871               	movf	?___awdiv+1,w
  2003     0168  00FC               	movwf	___awmod@dividend+1
  2004     0169  0870               	movf	?___awdiv,w
  2005     016A  00FB               	movwf	___awmod@dividend
  2006     016B  120A  158A  2639  120A  118A  	fcall	___awmod
  2007     0170  087A               	movf	?___awmod+1,w
  2008     0171  1283               	bcf	3,5	;RP0=0, select bank0
  2009     0172  1303               	bcf	3,6	;RP1=0, select bank0
  2010     0173  00E1               	movwf	adc@q+1
  2011     0174  0879               	movf	?___awmod,w
  2012     0175  00E0               	movwf	adc@q
  2013     0176                     l1894:
  2014                           
  2015                           ;ac.c: 64:     int r = dv_temp%10;
  2016     0176  300A               	movlw	10
  2017     0177  00F9               	movwf	___awmod@divisor
  2018     0178  3000               	movlw	0
  2019     0179  00FA               	movwf	___awmod@divisor+1
  2020     017A  0867               	movf	_dv_temp+1,w
  2021     017B  00FC               	movwf	___awmod@dividend+1
  2022     017C  0866               	movf	_dv_temp,w
  2023     017D  00FB               	movwf	___awmod@dividend
  2024     017E  120A  158A  2639  120A  118A  	fcall	___awmod
  2025     0183  087A               	movf	?___awmod+1,w
  2026     0184  1283               	bcf	3,5	;RP0=0, select bank0
  2027     0185  1303               	bcf	3,6	;RP1=0, select bank0
  2028     0186  00E3               	movwf	adc@r+1
  2029     0187  0879               	movf	?___awmod,w
  2030     0188  00E2               	movwf	adc@r
  2031     0189                     l1896:
  2032                           
  2033                           ;ac.c: 66:     room_temp[0]=p+48;
  2034     0189  085E               	movf	adc@p,w
  2035     018A  3E30               	addlw	48
  2036     018B  1683               	bsf	3,5	;RP0=1, select bank1
  2037     018C  1303               	bcf	3,6	;RP1=0, select bank1
  2038     018D  00A5               	movwf	_room_temp^(0+128)
  2039     018E                     l1898:
  2040                           
  2041                           ;ac.c: 67:     room_temp[1]=q+48;
  2042     018E  1283               	bcf	3,5	;RP0=0, select bank0
  2043     018F  1303               	bcf	3,6	;RP1=0, select bank0
  2044     0190  0860               	movf	adc@q,w
  2045     0191  3E30               	addlw	48
  2046     0192  1683               	bsf	3,5	;RP0=1, select bank1
  2047     0193  1303               	bcf	3,6	;RP1=0, select bank1
  2048     0194  00A6               	movwf	(_room_temp^(0+128)+1)
  2049     0195                     l1900:
  2050                           
  2051                           ;ac.c: 68:     room_temp[2]=r+48;
  2052     0195  1283               	bcf	3,5	;RP0=0, select bank0
  2053     0196  1303               	bcf	3,6	;RP1=0, select bank0
  2054     0197  0862               	movf	adc@r,w
  2055     0198  3E30               	addlw	48
  2056     0199  1683               	bsf	3,5	;RP0=1, select bank1
  2057     019A  1303               	bcf	3,6	;RP1=0, select bank1
  2058     019B  00A7               	movwf	(_room_temp^(0+128)+2)
  2059     019C                     l1902:
  2060                           
  2061                           ;ac.c: 69:     room_temp[3]='C';
  2062     019C  3043               	movlw	67
  2063     019D  00A8               	movwf	(_room_temp^(0+128)+3)
  2064     019E                     l88:
  2065     019E  0008               	return
  2066     019F                     __end_of_adc:
  2067                           
  2068                           	psect	text9
  2069     0029                     __ptext9:	
  2070 ;; *************** function ___xxtofl *****************
  2071 ;; Defined at:
  2072 ;;		line 10 in file "C:\Program Files\Microchip\xc8\v2.40\pic\sources\c90\common\xxtofl.c"
  2073 ;; Parameters:    Size  Location     Type
  2074 ;;  sign            1    wreg     unsigned char 
  2075 ;;  val             4    0[COMMON] long 
  2076 ;; Auto vars:     Size  Location     Type
  2077 ;;  sign            1    8[COMMON] unsigned char 
  2078 ;;  arg             4   10[COMMON] unsigned long 
  2079 ;;  exp             1    9[COMMON] unsigned char 
  2080 ;; Return value:  Size  Location     Type
  2081 ;;                  4    0[COMMON] unsigned char 
  2082 ;; Registers used:
  2083 ;;		wreg, status,2, status,0
  2084 ;; Tracked objects:
  2085 ;;		On entry : 0/0
  2086 ;;		On exit  : 0/0
  2087 ;;		Unchanged: 0/0
  2088 ;; Data sizes:     COMMON   BANK0   BANK1   BANK3   BANK2
  2089 ;;      Params:         4       0       0       0       0
  2090 ;;      Locals:         6       0       0       0       0
  2091 ;;      Temps:          4       0       0       0       0
  2092 ;;      Totals:        14       0       0       0       0
  2093 ;;Total ram usage:       14 bytes
  2094 ;; Hardware stack levels used: 1
  2095 ;; This function calls:
  2096 ;;		Nothing
  2097 ;; This function is called by:
  2098 ;;		_adc
  2099 ;; This function uses a non-reentrant model
  2100 ;;
  2101                           
  2102     0029                     ___xxtofl:	
  2103                           ;psect for function ___xxtofl
  2104                           
  2105                           
  2106                           ;incstack = 0
  2107                           ; Regs used in ___xxtofl: [wreg+status,2+status,0]
  2108                           ;___xxtofl@sign stored from wreg
  2109     0029  00F8               	movwf	___xxtofl@sign
  2110     002A                     l1838:
  2111     002A  0878               	movf	___xxtofl@sign,w
  2112     002B  1903               	btfsc	3,2
  2113     002C  282E               	goto	u2471
  2114     002D  282F               	goto	u2470
  2115     002E                     u2471:
  2116     002E  2843               	goto	l1844
  2117     002F                     u2470:
  2118     002F                     l1840:
  2119     002F  1FF3               	btfss	___xxtofl@val+3,7
  2120     0030  2832               	goto	u2481
  2121     0031  2833               	goto	u2480
  2122     0032                     u2481:
  2123     0032  2843               	goto	l1844
  2124     0033                     u2480:
  2125     0033                     l1842:
  2126     0033  0970               	comf	___xxtofl@val,w
  2127     0034  00FA               	movwf	___xxtofl@arg
  2128     0035  0971               	comf	___xxtofl@val+1,w
  2129     0036  00FB               	movwf	___xxtofl@arg+1
  2130     0037  0972               	comf	___xxtofl@val+2,w
  2131     0038  00FC               	movwf	___xxtofl@arg+2
  2132     0039  0973               	comf	___xxtofl@val+3,w
  2133     003A  00FD               	movwf	___xxtofl@arg+3
  2134     003B  0AFA               	incf	___xxtofl@arg,f
  2135     003C  1903               	skipnz
  2136     003D  0AFB               	incf	___xxtofl@arg+1,f
  2137     003E  1903               	skipnz
  2138     003F  0AFC               	incf	___xxtofl@arg+2,f
  2139     0040  1903               	skipnz
  2140     0041  0AFD               	incf	___xxtofl@arg+3,f
  2141     0042  284B               	goto	l637
  2142     0043                     l1844:
  2143     0043  0873               	movf	___xxtofl@val+3,w
  2144     0044  00FD               	movwf	___xxtofl@arg+3
  2145     0045  0872               	movf	___xxtofl@val+2,w
  2146     0046  00FC               	movwf	___xxtofl@arg+2
  2147     0047  0871               	movf	___xxtofl@val+1,w
  2148     0048  00FB               	movwf	___xxtofl@arg+1
  2149     0049  0870               	movf	___xxtofl@val,w
  2150     004A  00FA               	movwf	___xxtofl@arg
  2151     004B                     l637:
  2152     004B  0873               	movf	___xxtofl@val+3,w
  2153     004C  0472               	iorwf	___xxtofl@val+2,w
  2154     004D  0471               	iorwf	___xxtofl@val+1,w
  2155     004E  0470               	iorwf	___xxtofl@val,w
  2156     004F  1D03               	skipz
  2157     0050  2852               	goto	u2491
  2158     0051  2853               	goto	u2490
  2159     0052                     u2491:
  2160     0052  285C               	goto	l1850
  2161     0053                     u2490:
  2162     0053                     l1846:
  2163     0053  3000               	movlw	0
  2164     0054  00F3               	movwf	?___xxtofl+3
  2165     0055  3000               	movlw	0
  2166     0056  00F2               	movwf	?___xxtofl+2
  2167     0057  3000               	movlw	0
  2168     0058  00F1               	movwf	?___xxtofl+1
  2169     0059  3000               	movlw	0
  2170     005A  00F0               	movwf	?___xxtofl
  2171     005B  28E0               	goto	l639
  2172     005C                     l1850:
  2173     005C  3096               	movlw	150
  2174     005D  00F9               	movwf	___xxtofl@exp
  2175     005E  286C               	goto	l1854
  2176     005F                     l1852:
  2177     005F  3001               	movlw	1
  2178     0060  00F4               	movwf	??___xxtofl
  2179     0061  0874               	movf	??___xxtofl,w
  2180     0062  07F9               	addwf	___xxtofl@exp,f
  2181     0063  3001               	movlw	1
  2182     0064                     u2505:
  2183     0064  1003               	clrc
  2184     0065  0CFD               	rrf	___xxtofl@arg+3,f
  2185     0066  0CFC               	rrf	___xxtofl@arg+2,f
  2186     0067  0CFB               	rrf	___xxtofl@arg+1,f
  2187     0068  0CFA               	rrf	___xxtofl@arg,f
  2188     0069  3EFF               	addlw	-1
  2189     006A  1D03               	skipz
  2190     006B  2864               	goto	u2505
  2191     006C                     l1854:
  2192     006C  30FE               	movlw	254
  2193     006D  057D               	andwf	___xxtofl@arg+3,w
  2194     006E  1D03               	btfss	3,2
  2195     006F  2871               	goto	u2511
  2196     0070  2872               	goto	u2510
  2197     0071                     u2511:
  2198     0071  285F               	goto	l1852
  2199     0072                     u2510:
  2200     0072  288E               	goto	l643
  2201     0073                     l1856:
  2202     0073  3001               	movlw	1
  2203     0074  00F4               	movwf	??___xxtofl
  2204     0075  0874               	movf	??___xxtofl,w
  2205     0076  07F9               	addwf	___xxtofl@exp,f
  2206     0077                     l1858:
  2207     0077  3001               	movlw	1
  2208     0078  07FA               	addwf	___xxtofl@arg,f
  2209     0079  3000               	movlw	0
  2210     007A  1803               	skipnc
  2211     007B  3001               	movlw	1
  2212     007C  07FB               	addwf	___xxtofl@arg+1,f
  2213     007D  3000               	movlw	0
  2214     007E  1803               	skipnc
  2215     007F  3001               	movlw	1
  2216     0080  07FC               	addwf	___xxtofl@arg+2,f
  2217     0081  3000               	movlw	0
  2218     0082  1803               	skipnc
  2219     0083  3001               	movlw	1
  2220     0084  07FD               	addwf	___xxtofl@arg+3,f
  2221     0085                     l1860:
  2222     0085  3001               	movlw	1
  2223     0086                     u2525:
  2224     0086  1003               	clrc
  2225     0087  0CFD               	rrf	___xxtofl@arg+3,f
  2226     0088  0CFC               	rrf	___xxtofl@arg+2,f
  2227     0089  0CFB               	rrf	___xxtofl@arg+1,f
  2228     008A  0CFA               	rrf	___xxtofl@arg,f
  2229     008B  3EFF               	addlw	-1
  2230     008C  1D03               	skipz
  2231     008D  2886               	goto	u2525
  2232     008E                     l643:
  2233     008E  30FF               	movlw	255
  2234     008F  057D               	andwf	___xxtofl@arg+3,w
  2235     0090  1D03               	btfss	3,2
  2236     0091  2893               	goto	u2531
  2237     0092  2894               	goto	u2530
  2238     0093                     u2531:
  2239     0093  2873               	goto	l1856
  2240     0094                     u2530:
  2241     0094  28A0               	goto	l1864
  2242     0095                     l1862:
  2243     0095  3001               	movlw	1
  2244     0096  02F9               	subwf	___xxtofl@exp,f
  2245     0097  3001               	movlw	1
  2246     0098  00F4               	movwf	??___xxtofl
  2247     0099                     u2545:
  2248     0099  1003               	clrc
  2249     009A  0DFA               	rlf	___xxtofl@arg,f
  2250     009B  0DFB               	rlf	___xxtofl@arg+1,f
  2251     009C  0DFC               	rlf	___xxtofl@arg+2,f
  2252     009D  0DFD               	rlf	___xxtofl@arg+3,f
  2253     009E  0BF4               	decfsz	??___xxtofl,f
  2254     009F  2899               	goto	u2545
  2255     00A0                     l1864:
  2256     00A0  1BFC               	btfsc	___xxtofl@arg+2,7
  2257     00A1  28A3               	goto	u2551
  2258     00A2  28A4               	goto	u2550
  2259     00A3                     u2551:
  2260     00A3  28AA               	goto	l650
  2261     00A4                     u2550:
  2262     00A4                     l1866:
  2263     00A4  3002               	movlw	2
  2264     00A5  0279               	subwf	___xxtofl@exp,w
  2265     00A6  1803               	skipnc
  2266     00A7  28A9               	goto	u2561
  2267     00A8  28AA               	goto	u2560
  2268     00A9                     u2561:
  2269     00A9  2895               	goto	l1862
  2270     00AA                     u2560:
  2271     00AA                     l650:
  2272     00AA  1879               	btfsc	___xxtofl@exp,0
  2273     00AB  28AD               	goto	u2571
  2274     00AC  28AE               	goto	u2570
  2275     00AD                     u2571:
  2276     00AD  28B6               	goto	l651
  2277     00AE                     u2570:
  2278     00AE                     l1868:
  2279     00AE  30FF               	movlw	255
  2280     00AF  05FA               	andwf	___xxtofl@arg,f
  2281     00B0  30FF               	movlw	255
  2282     00B1  05FB               	andwf	___xxtofl@arg+1,f
  2283     00B2  307F               	movlw	127
  2284     00B3  05FC               	andwf	___xxtofl@arg+2,f
  2285     00B4  30FF               	movlw	255
  2286     00B5  05FD               	andwf	___xxtofl@arg+3,f
  2287     00B6                     l651:
  2288     00B6  1003               	clrc
  2289     00B7  0CF9               	rrf	___xxtofl@exp,f
  2290     00B8                     l1870:
  2291     00B8  0879               	movf	___xxtofl@exp,w
  2292     00B9  00F4               	movwf	??___xxtofl
  2293     00BA  01F5               	clrf	??___xxtofl+1
  2294     00BB  01F6               	clrf	??___xxtofl+2
  2295     00BC  01F7               	clrf	??___xxtofl+3
  2296     00BD  3018               	movlw	24
  2297     00BE                     u2585:
  2298     00BE  1003               	clrc
  2299     00BF  0DF4               	rlf	??___xxtofl,f
  2300     00C0  0DF5               	rlf	??___xxtofl+1,f
  2301     00C1  0DF6               	rlf	??___xxtofl+2,f
  2302     00C2  0DF7               	rlf	??___xxtofl+3,f
  2303     00C3                     u2580:
  2304     00C3  3EFF               	addlw	-1
  2305     00C4  1D03               	skipz
  2306     00C5  28BE               	goto	u2585
  2307     00C6  0874               	movf	??___xxtofl,w
  2308     00C7  04FA               	iorwf	___xxtofl@arg,f
  2309     00C8  0875               	movf	??___xxtofl+1,w
  2310     00C9  04FB               	iorwf	___xxtofl@arg+1,f
  2311     00CA  0876               	movf	??___xxtofl+2,w
  2312     00CB  04FC               	iorwf	___xxtofl@arg+2,f
  2313     00CC  0877               	movf	??___xxtofl+3,w
  2314     00CD  04FD               	iorwf	___xxtofl@arg+3,f
  2315     00CE                     l1872:
  2316     00CE  0878               	movf	___xxtofl@sign,w
  2317     00CF  1903               	btfsc	3,2
  2318     00D0  28D2               	goto	u2591
  2319     00D1  28D3               	goto	u2590
  2320     00D2                     u2591:
  2321     00D2  28D8               	goto	l1878
  2322     00D3                     u2590:
  2323     00D3                     l1874:
  2324     00D3  1FF3               	btfss	___xxtofl@val+3,7
  2325     00D4  28D6               	goto	u2601
  2326     00D5  28D7               	goto	u2600
  2327     00D6                     u2601:
  2328     00D6  28D8               	goto	l1878
  2329     00D7                     u2600:
  2330     00D7                     l1876:
  2331     00D7  17FD               	bsf	___xxtofl@arg+3,7
  2332     00D8                     l1878:
  2333     00D8  087D               	movf	___xxtofl@arg+3,w
  2334     00D9  00F3               	movwf	?___xxtofl+3
  2335     00DA  087C               	movf	___xxtofl@arg+2,w
  2336     00DB  00F2               	movwf	?___xxtofl+2
  2337     00DC  087B               	movf	___xxtofl@arg+1,w
  2338     00DD  00F1               	movwf	?___xxtofl+1
  2339     00DE  087A               	movf	___xxtofl@arg,w
  2340     00DF  00F0               	movwf	?___xxtofl
  2341     00E0                     l639:
  2342     00E0  0008               	return
  2343     00E1                     __end_of___xxtofl:
  2344                           
  2345                           	psect	text10
  2346     0EFB                     __ptext10:	
  2347 ;; *************** function ___fltol *****************
  2348 ;; Defined at:
  2349 ;;		line 43 in file "C:\Program Files\Microchip\xc8\v2.40\pic\sources\c90\common\fltol.c"
  2350 ;; Parameters:    Size  Location     Type
  2351 ;;  f1              4   52[BANK0 ] unsigned char 
  2352 ;; Auto vars:     Size  Location     Type
  2353 ;;  exp1            1   61[BANK0 ] unsigned char 
  2354 ;;  sign1           1   60[BANK0 ] unsigned char 
  2355 ;; Return value:  Size  Location     Type
  2356 ;;                  4   52[BANK0 ] long 
  2357 ;; Registers used:
  2358 ;;		wreg, status,2, status,0
  2359 ;; Tracked objects:
  2360 ;;		On entry : 0/0
  2361 ;;		On exit  : 0/0
  2362 ;;		Unchanged: 0/0
  2363 ;; Data sizes:     COMMON   BANK0   BANK1   BANK3   BANK2
  2364 ;;      Params:         0       4       0       0       0
  2365 ;;      Locals:         0       2       0       0       0
  2366 ;;      Temps:          0       4       0       0       0
  2367 ;;      Totals:         0      10       0       0       0
  2368 ;;Total ram usage:       10 bytes
  2369 ;; Hardware stack levels used: 1
  2370 ;; This function calls:
  2371 ;;		Nothing
  2372 ;; This function is called by:
  2373 ;;		_adc
  2374 ;; This function uses a non-reentrant model
  2375 ;;
  2376                           
  2377     0EFB                     ___fltol:	
  2378                           ;psect for function ___fltol
  2379                           
  2380     0EFB                     l1520:	
  2381                           ;incstack = 0
  2382                           ; Regs used in ___fltol: [wreg+status,2+status,0]
  2383                           
  2384     0EFB  1003               	clrc
  2385     0EFC  1283               	bcf	3,5	;RP0=0, select bank0
  2386     0EFD  1303               	bcf	3,6	;RP1=0, select bank0
  2387     0EFE  0D56               	rlf	___fltol@f1+2,w
  2388     0EFF  0D57               	rlf	___fltol@f1+3,w
  2389     0F00  00DD               	movwf	___fltol@exp1
  2390     0F01  085D               	movf	___fltol@exp1,w
  2391     0F02  1D03               	btfss	3,2
  2392     0F03  2F05               	goto	u1711
  2393     0F04  2F06               	goto	u1710
  2394     0F05                     u1711:
  2395     0F05  2F0F               	goto	l1526
  2396     0F06                     u1710:
  2397     0F06                     l1522:
  2398     0F06  3000               	movlw	0
  2399     0F07  00D7               	movwf	?___fltol+3
  2400     0F08  3000               	movlw	0
  2401     0F09  00D6               	movwf	?___fltol+2
  2402     0F0A  3000               	movlw	0
  2403     0F0B  00D5               	movwf	?___fltol+1
  2404     0F0C  3000               	movlw	0
  2405     0F0D  00D4               	movwf	?___fltol
  2406     0F0E  2F72               	goto	l390
  2407     0F0F                     l1526:
  2408     0F0F  0854               	movf	___fltol@f1,w
  2409     0F10  00D8               	movwf	??___fltol
  2410     0F11  0855               	movf	___fltol@f1+1,w
  2411     0F12  00D9               	movwf	??___fltol+1
  2412     0F13  0856               	movf	___fltol@f1+2,w
  2413     0F14  00DA               	movwf	??___fltol+2
  2414     0F15  0857               	movf	___fltol@f1+3,w
  2415     0F16  00DB               	movwf	??___fltol+3
  2416     0F17  301F               	movlw	31
  2417     0F18                     u1725:
  2418     0F18  1003               	clrc
  2419     0F19  0CDB               	rrf	??___fltol+3,f
  2420     0F1A  0CDA               	rrf	??___fltol+2,f
  2421     0F1B  0CD9               	rrf	??___fltol+1,f
  2422     0F1C  0CD8               	rrf	??___fltol,f
  2423     0F1D                     u1720:
  2424     0F1D  3EFF               	addlw	-1
  2425     0F1E  1D03               	skipz
  2426     0F1F  2F18               	goto	u1725
  2427     0F20  0858               	movf	??___fltol,w
  2428     0F21  00DC               	movwf	___fltol@sign1
  2429     0F22                     l1528:
  2430     0F22  17D6               	bsf	___fltol@f1+2,7
  2431     0F23                     l1530:
  2432     0F23  30FF               	movlw	255
  2433     0F24  05D4               	andwf	___fltol@f1,f
  2434     0F25  30FF               	movlw	255
  2435     0F26  05D5               	andwf	___fltol@f1+1,f
  2436     0F27  30FF               	movlw	255
  2437     0F28  05D6               	andwf	___fltol@f1+2,f
  2438     0F29  3000               	movlw	0
  2439     0F2A  05D7               	andwf	___fltol@f1+3,f
  2440     0F2B                     l1532:
  2441     0F2B  3096               	movlw	150
  2442     0F2C  02DD               	subwf	___fltol@exp1,f
  2443     0F2D                     l1534:
  2444     0F2D  1FDD               	btfss	___fltol@exp1,7
  2445     0F2E  2F30               	goto	u1731
  2446     0F2F  2F31               	goto	u1730
  2447     0F30                     u1731:
  2448     0F30  2F4B               	goto	l1544
  2449     0F31                     u1730:
  2450     0F31                     l1536:
  2451     0F31  085D               	movf	___fltol@exp1,w
  2452     0F32  3A80               	xorlw	128
  2453     0F33  3E97               	addlw	151
  2454     0F34  1803               	skipnc
  2455     0F35  2F37               	goto	u1741
  2456     0F36  2F38               	goto	u1740
  2457     0F37                     u1741:
  2458     0F37  2F39               	goto	l1542
  2459     0F38                     u1740:
  2460     0F38  2F06               	goto	l1522
  2461     0F39                     l1542:
  2462     0F39  3001               	movlw	1
  2463     0F3A                     u1755:
  2464     0F3A  1003               	clrc
  2465     0F3B  0CD7               	rrf	___fltol@f1+3,f
  2466     0F3C  0CD6               	rrf	___fltol@f1+2,f
  2467     0F3D  0CD5               	rrf	___fltol@f1+1,f
  2468     0F3E  0CD4               	rrf	___fltol@f1,f
  2469     0F3F  3EFF               	addlw	-1
  2470     0F40  1D03               	skipz
  2471     0F41  2F3A               	goto	u1755
  2472     0F42  3001               	movlw	1
  2473     0F43  00D8               	movwf	??___fltol
  2474     0F44  0858               	movf	??___fltol,w
  2475     0F45  07DD               	addwf	___fltol@exp1,f
  2476     0F46  1D03               	btfss	3,2
  2477     0F47  2F49               	goto	u1761
  2478     0F48  2F4A               	goto	u1760
  2479     0F49                     u1761:
  2480     0F49  2F39               	goto	l1542
  2481     0F4A                     u1760:
  2482     0F4A  2F62               	goto	l1552
  2483     0F4B                     l1544:
  2484     0F4B  3020               	movlw	32
  2485     0F4C  025D               	subwf	___fltol@exp1,w
  2486     0F4D  1C03               	skipc
  2487     0F4E  2F50               	goto	u1771
  2488     0F4F  2F51               	goto	u1770
  2489     0F50                     u1771:
  2490     0F50  2F5D               	goto	l397
  2491     0F51                     u1770:
  2492     0F51  2F06               	goto	l1522
  2493     0F52                     l1550:
  2494     0F52  3001               	movlw	1
  2495     0F53  00D8               	movwf	??___fltol
  2496     0F54                     u1785:
  2497     0F54  1003               	clrc
  2498     0F55  0DD4               	rlf	___fltol@f1,f
  2499     0F56  0DD5               	rlf	___fltol@f1+1,f
  2500     0F57  0DD6               	rlf	___fltol@f1+2,f
  2501     0F58  0DD7               	rlf	___fltol@f1+3,f
  2502     0F59  0BD8               	decfsz	??___fltol,f
  2503     0F5A  2F54               	goto	u1785
  2504     0F5B  3001               	movlw	1
  2505     0F5C  02DD               	subwf	___fltol@exp1,f
  2506     0F5D                     l397:
  2507     0F5D  085D               	movf	___fltol@exp1,w
  2508     0F5E  1D03               	btfss	3,2
  2509     0F5F  2F61               	goto	u1791
  2510     0F60  2F62               	goto	u1790
  2511     0F61                     u1791:
  2512     0F61  2F52               	goto	l1550
  2513     0F62                     u1790:
  2514     0F62                     l1552:
  2515     0F62  085C               	movf	___fltol@sign1,w
  2516     0F63  1903               	btfsc	3,2
  2517     0F64  2F66               	goto	u1801
  2518     0F65  2F67               	goto	u1800
  2519     0F66                     u1801:
  2520     0F66  2F72               	goto	l400
  2521     0F67                     u1800:
  2522     0F67                     l1554:
  2523     0F67  09D4               	comf	___fltol@f1,f
  2524     0F68  09D5               	comf	___fltol@f1+1,f
  2525     0F69  09D6               	comf	___fltol@f1+2,f
  2526     0F6A  09D7               	comf	___fltol@f1+3,f
  2527     0F6B  0AD4               	incf	___fltol@f1,f
  2528     0F6C  1903               	skipnz
  2529     0F6D  0AD5               	incf	___fltol@f1+1,f
  2530     0F6E  1903               	skipnz
  2531     0F6F  0AD6               	incf	___fltol@f1+2,f
  2532     0F70  1903               	skipnz
  2533     0F71  0AD7               	incf	___fltol@f1+3,f
  2534     0F72                     l400:
  2535     0F72                     l390:
  2536     0F72  0008               	return
  2537     0F73                     __end_of___fltol:
  2538                           
  2539                           	psect	text11
  2540     0495                     __ptext11:	
  2541 ;; *************** function ___flmul *****************
  2542 ;; Defined at:
  2543 ;;		line 8 in file "C:\Program Files\Microchip\xc8\v2.40\pic\sources\c90\common\sprcmul.c"
  2544 ;; Parameters:    Size  Location     Type
  2545 ;;  b               4    0[BANK0 ] long 
  2546 ;;  a               4    4[BANK0 ] long 
  2547 ;; Auto vars:     Size  Location     Type
  2548 ;;  prod            4   20[BANK0 ] struct .
  2549 ;;  grs             4   14[BANK0 ] unsigned long 
  2550 ;;  temp            2   24[BANK0 ] struct .
  2551 ;;  bexp            1   19[BANK0 ] unsigned char 
  2552 ;;  aexp            1   18[BANK0 ] unsigned char 
  2553 ;;  sign            1   13[BANK0 ] unsigned char 
  2554 ;; Return value:  Size  Location     Type
  2555 ;;                  4    0[BANK0 ] unsigned char 
  2556 ;; Registers used:
  2557 ;;		wreg, status,2, status,0, btemp+1, pclath, cstack
  2558 ;; Tracked objects:
  2559 ;;		On entry : 0/0
  2560 ;;		On exit  : 0/0
  2561 ;;		Unchanged: 0/0
  2562 ;; Data sizes:     COMMON   BANK0   BANK1   BANK3   BANK2
  2563 ;;      Params:         0       8       0       0       0
  2564 ;;      Locals:         0      13       0       0       0
  2565 ;;      Temps:          0       5       0       0       0
  2566 ;;      Totals:         0      26       0       0       0
  2567 ;;Total ram usage:       26 bytes
  2568 ;; Hardware stack levels used: 1
  2569 ;; Hardware stack levels required when called: 1
  2570 ;; This function calls:
  2571 ;;		__Umul8_16
  2572 ;; This function is called by:
  2573 ;;		_adc
  2574 ;; This function uses a non-reentrant model
  2575 ;;
  2576                           
  2577     0495                     ___flmul:	
  2578                           ;psect for function ___flmul
  2579                           
  2580     0495                     l1698:	
  2581                           ;incstack = 0
  2582                           ; Regs used in ___flmul: [wreg+status,2+status,0+btemp+1+pclath+cstack]
  2583                           
  2584     0495  1283               	bcf	3,5	;RP0=0, select bank0
  2585     0496  1303               	bcf	3,6	;RP1=0, select bank0
  2586     0497  0823               	movf	___flmul@b+3,w
  2587     0498  3980               	andlw	128
  2588     0499  00AD               	movwf	___flmul@sign
  2589     049A                     l1700:
  2590     049A  0823               	movf	___flmul@b+3,w
  2591     049B  00A8               	movwf	??___flmul
  2592     049C  0728               	addwf	??___flmul,w
  2593     049D  00B3               	movwf	___flmul@bexp
  2594     049E                     l1702:
  2595     049E  1FA2               	btfss	___flmul@b+2,7
  2596     049F  2CA1               	goto	u2101
  2597     04A0  2CA2               	goto	u2100
  2598     04A1                     u2101:
  2599     04A1  2CA3               	goto	l1706
  2600     04A2                     u2100:
  2601     04A2                     l1704:
  2602     04A2  1433               	bsf	___flmul@bexp,0
  2603     04A3                     l1706:
  2604     04A3  0833               	movf	___flmul@bexp,w
  2605     04A4  1903               	btfsc	3,2
  2606     04A5  2CA7               	goto	u2111
  2607     04A6  2CA8               	goto	u2110
  2608     04A7                     u2111:
  2609     04A7  2CB7               	goto	l1714
  2610     04A8                     u2110:
  2611     04A8                     l1708:
  2612     04A8  0A33               	incf	___flmul@bexp,w
  2613     04A9  1D03               	btfss	3,2
  2614     04AA  2CAC               	goto	u2121
  2615     04AB  2CAD               	goto	u2120
  2616     04AC                     u2121:
  2617     04AC  2CB5               	goto	l1712
  2618     04AD                     u2120:
  2619     04AD                     l1710:
  2620     04AD  3000               	movlw	0
  2621     04AE  00A3               	movwf	___flmul@b+3
  2622     04AF  3000               	movlw	0
  2623     04B0  00A2               	movwf	___flmul@b+2
  2624     04B1  3000               	movlw	0
  2625     04B2  00A1               	movwf	___flmul@b+1
  2626     04B3  3000               	movlw	0
  2627     04B4  00A0               	movwf	___flmul@b
  2628     04B5                     l1712:
  2629     04B5  17A2               	bsf	___flmul@b+2,7
  2630     04B6  2CBF               	goto	l1716
  2631     04B7                     l1714:
  2632     04B7  3000               	movlw	0
  2633     04B8  00A3               	movwf	___flmul@b+3
  2634     04B9  3000               	movlw	0
  2635     04BA  00A2               	movwf	___flmul@b+2
  2636     04BB  3000               	movlw	0
  2637     04BC  00A1               	movwf	___flmul@b+1
  2638     04BD  3000               	movlw	0
  2639     04BE  00A0               	movwf	___flmul@b
  2640     04BF                     l1716:
  2641     04BF  0827               	movf	___flmul@a+3,w
  2642     04C0  3980               	andlw	128
  2643     04C1  00A8               	movwf	??___flmul
  2644     04C2  0828               	movf	??___flmul,w
  2645     04C3  06AD               	xorwf	___flmul@sign,f
  2646     04C4                     l1718:
  2647     04C4  0827               	movf	___flmul@a+3,w
  2648     04C5  00A8               	movwf	??___flmul
  2649     04C6  0728               	addwf	??___flmul,w
  2650     04C7  00B2               	movwf	___flmul@aexp
  2651     04C8                     l1720:
  2652     04C8  1FA6               	btfss	___flmul@a+2,7
  2653     04C9  2CCB               	goto	u2131
  2654     04CA  2CCC               	goto	u2130
  2655     04CB                     u2131:
  2656     04CB  2CCD               	goto	l1724
  2657     04CC                     u2130:
  2658     04CC                     l1722:
  2659     04CC  1432               	bsf	___flmul@aexp,0
  2660     04CD                     l1724:
  2661     04CD  0832               	movf	___flmul@aexp,w
  2662     04CE  1903               	btfsc	3,2
  2663     04CF  2CD1               	goto	u2141
  2664     04D0  2CD2               	goto	u2140
  2665     04D1                     u2141:
  2666     04D1  2CE1               	goto	l1732
  2667     04D2                     u2140:
  2668     04D2                     l1726:
  2669     04D2  0A32               	incf	___flmul@aexp,w
  2670     04D3  1D03               	btfss	3,2
  2671     04D4  2CD6               	goto	u2151
  2672     04D5  2CD7               	goto	u2150
  2673     04D6                     u2151:
  2674     04D6  2CDF               	goto	l1730
  2675     04D7                     u2150:
  2676     04D7                     l1728:
  2677     04D7  3000               	movlw	0
  2678     04D8  00A7               	movwf	___flmul@a+3
  2679     04D9  3000               	movlw	0
  2680     04DA  00A6               	movwf	___flmul@a+2
  2681     04DB  3000               	movlw	0
  2682     04DC  00A5               	movwf	___flmul@a+1
  2683     04DD  3000               	movlw	0
  2684     04DE  00A4               	movwf	___flmul@a
  2685     04DF                     l1730:
  2686     04DF  17A6               	bsf	___flmul@a+2,7
  2687     04E0  2CE9               	goto	l1734
  2688     04E1                     l1732:
  2689     04E1  3000               	movlw	0
  2690     04E2  00A7               	movwf	___flmul@a+3
  2691     04E3  3000               	movlw	0
  2692     04E4  00A6               	movwf	___flmul@a+2
  2693     04E5  3000               	movlw	0
  2694     04E6  00A5               	movwf	___flmul@a+1
  2695     04E7  3000               	movlw	0
  2696     04E8  00A4               	movwf	___flmul@a
  2697     04E9                     l1734:
  2698     04E9  0832               	movf	___flmul@aexp,w
  2699     04EA  1903               	btfsc	3,2
  2700     04EB  2CED               	goto	u2161
  2701     04EC  2CEE               	goto	u2160
  2702     04ED                     u2161:
  2703     04ED  2CF3               	goto	l1738
  2704     04EE                     u2160:
  2705     04EE                     l1736:
  2706     04EE  0833               	movf	___flmul@bexp,w
  2707     04EF  1D03               	btfss	3,2
  2708     04F0  2CF2               	goto	u2171
  2709     04F1  2CF3               	goto	u2170
  2710     04F2                     u2171:
  2711     04F2  2CFC               	goto	l1742
  2712     04F3                     u2170:
  2713     04F3                     l1738:
  2714     04F3  3000               	movlw	0
  2715     04F4  00A3               	movwf	?___flmul+3
  2716     04F5  3000               	movlw	0
  2717     04F6  00A2               	movwf	?___flmul+2
  2718     04F7  3000               	movlw	0
  2719     04F8  00A1               	movwf	?___flmul+1
  2720     04F9  3000               	movlw	0
  2721     04FA  00A0               	movwf	?___flmul
  2722     04FB  2FD9               	goto	l593
  2723     04FC                     l1742:
  2724     04FC  0820               	movf	___flmul@b,w
  2725     04FD  00F0               	movwf	__Umul8_16@multiplicand
  2726     04FE  0826               	movf	___flmul@a+2,w
  2727     04FF  120A  158A  2579  120A  118A  	fcall	__Umul8_16
  2728     0504  0871               	movf	?__Umul8_16+1,w
  2729     0505  1283               	bcf	3,5	;RP0=0, select bank0
  2730     0506  1303               	bcf	3,6	;RP1=0, select bank0
  2731     0507  00B9               	movwf	___flmul@temp+1
  2732     0508  0870               	movf	?__Umul8_16,w
  2733     0509  00B8               	movwf	___flmul@temp
  2734     050A                     l1744:
  2735     050A  0838               	movf	___flmul@temp,w
  2736     050B  00A8               	movwf	??___flmul
  2737     050C  01A9               	clrf	??___flmul+1
  2738     050D  01AA               	clrf	??___flmul+2
  2739     050E  01AB               	clrf	??___flmul+3
  2740     050F  082B               	movf	??___flmul+3,w
  2741     0510  00B1               	movwf	___flmul@grs+3
  2742     0511  082A               	movf	??___flmul+2,w
  2743     0512  00B0               	movwf	___flmul@grs+2
  2744     0513  0829               	movf	??___flmul+1,w
  2745     0514  00AF               	movwf	___flmul@grs+1
  2746     0515  0828               	movf	??___flmul,w
  2747     0516  00AE               	movwf	___flmul@grs
  2748     0517                     l1746:
  2749     0517  0839               	movf	___flmul@temp+1,w
  2750     0518  00A8               	movwf	??___flmul
  2751     0519  01A9               	clrf	??___flmul+1
  2752     051A  01AA               	clrf	??___flmul+2
  2753     051B  01AB               	clrf	??___flmul+3
  2754     051C  082B               	movf	??___flmul+3,w
  2755     051D  00B7               	movwf	___flmul@prod+3
  2756     051E  082A               	movf	??___flmul+2,w
  2757     051F  00B6               	movwf	___flmul@prod+2
  2758     0520  0829               	movf	??___flmul+1,w
  2759     0521  00B5               	movwf	___flmul@prod+1
  2760     0522  0828               	movf	??___flmul,w
  2761     0523  00B4               	movwf	___flmul@prod
  2762     0524  0821               	movf	___flmul@b+1,w
  2763     0525  00F0               	movwf	__Umul8_16@multiplicand
  2764     0526  0825               	movf	___flmul@a+1,w
  2765     0527  120A  158A  2579  120A  118A  	fcall	__Umul8_16
  2766     052C  0871               	movf	?__Umul8_16+1,w
  2767     052D  1283               	bcf	3,5	;RP0=0, select bank0
  2768     052E  1303               	bcf	3,6	;RP1=0, select bank0
  2769     052F  00B9               	movwf	___flmul@temp+1
  2770     0530  0870               	movf	?__Umul8_16,w
  2771     0531  00B8               	movwf	___flmul@temp
  2772     0532                     l1748:
  2773     0532  0838               	movf	___flmul@temp,w
  2774     0533  00A8               	movwf	??___flmul
  2775     0534  01A9               	clrf	??___flmul+1
  2776     0535  01AA               	clrf	??___flmul+2
  2777     0536  01AB               	clrf	??___flmul+3
  2778     0537  0828               	movf	??___flmul,w
  2779     0538  07AE               	addwf	___flmul@grs,f
  2780     0539  0829               	movf	??___flmul+1,w
  2781     053A  1103               	clrz
  2782     053B  1803               	skipnc
  2783     053C  3E01               	addlw	1
  2784     053D  1903               	skipnz
  2785     053E  2D40               	goto	u2181
  2786     053F  07AF               	addwf	___flmul@grs+1,f
  2787     0540                     u2181:
  2788     0540  082A               	movf	??___flmul+2,w
  2789     0541  1103               	clrz
  2790     0542  1803               	skipnc
  2791     0543  3E01               	addlw	1
  2792     0544  1903               	skipnz
  2793     0545  2D47               	goto	u2182
  2794     0546  07B0               	addwf	___flmul@grs+2,f
  2795     0547                     u2182:
  2796     0547  082B               	movf	??___flmul+3,w
  2797     0548  1103               	clrz
  2798     0549  1803               	skipnc
  2799     054A  3E01               	addlw	1
  2800     054B  1903               	skipnz
  2801     054C  2D4E               	goto	u2183
  2802     054D  07B1               	addwf	___flmul@grs+3,f
  2803     054E                     u2183:
  2804     054E                     l1750:
  2805     054E  0839               	movf	___flmul@temp+1,w
  2806     054F  00A8               	movwf	??___flmul
  2807     0550  01A9               	clrf	??___flmul+1
  2808     0551  01AA               	clrf	??___flmul+2
  2809     0552  01AB               	clrf	??___flmul+3
  2810     0553  0828               	movf	??___flmul,w
  2811     0554  07B4               	addwf	___flmul@prod,f
  2812     0555  0829               	movf	??___flmul+1,w
  2813     0556  1103               	clrz
  2814     0557  1803               	skipnc
  2815     0558  3E01               	addlw	1
  2816     0559  1903               	skipnz
  2817     055A  2D5C               	goto	u2191
  2818     055B  07B5               	addwf	___flmul@prod+1,f
  2819     055C                     u2191:
  2820     055C  082A               	movf	??___flmul+2,w
  2821     055D  1103               	clrz
  2822     055E  1803               	skipnc
  2823     055F  3E01               	addlw	1
  2824     0560  1903               	skipnz
  2825     0561  2D63               	goto	u2192
  2826     0562  07B6               	addwf	___flmul@prod+2,f
  2827     0563                     u2192:
  2828     0563  082B               	movf	??___flmul+3,w
  2829     0564  1103               	clrz
  2830     0565  1803               	skipnc
  2831     0566  3E01               	addlw	1
  2832     0567  1903               	skipnz
  2833     0568  2D6A               	goto	u2193
  2834     0569  07B7               	addwf	___flmul@prod+3,f
  2835     056A                     u2193:
  2836     056A  0822               	movf	___flmul@b+2,w
  2837     056B  00F0               	movwf	__Umul8_16@multiplicand
  2838     056C  0824               	movf	___flmul@a,w
  2839     056D  120A  158A  2579  120A  118A  	fcall	__Umul8_16
  2840     0572  0871               	movf	?__Umul8_16+1,w
  2841     0573  1283               	bcf	3,5	;RP0=0, select bank0
  2842     0574  1303               	bcf	3,6	;RP1=0, select bank0
  2843     0575  00B9               	movwf	___flmul@temp+1
  2844     0576  0870               	movf	?__Umul8_16,w
  2845     0577  00B8               	movwf	___flmul@temp
  2846     0578                     l1752:
  2847     0578  0838               	movf	___flmul@temp,w
  2848     0579  00A8               	movwf	??___flmul
  2849     057A  01A9               	clrf	??___flmul+1
  2850     057B  01AA               	clrf	??___flmul+2
  2851     057C  01AB               	clrf	??___flmul+3
  2852     057D  0828               	movf	??___flmul,w
  2853     057E  07AE               	addwf	___flmul@grs,f
  2854     057F  0829               	movf	??___flmul+1,w
  2855     0580  1103               	clrz
  2856     0581  1803               	skipnc
  2857     0582  3E01               	addlw	1
  2858     0583  1903               	skipnz
  2859     0584  2D86               	goto	u2201
  2860     0585  07AF               	addwf	___flmul@grs+1,f
  2861     0586                     u2201:
  2862     0586  082A               	movf	??___flmul+2,w
  2863     0587  1103               	clrz
  2864     0588  1803               	skipnc
  2865     0589  3E01               	addlw	1
  2866     058A  1903               	skipnz
  2867     058B  2D8D               	goto	u2202
  2868     058C  07B0               	addwf	___flmul@grs+2,f
  2869     058D                     u2202:
  2870     058D  082B               	movf	??___flmul+3,w
  2871     058E  1103               	clrz
  2872     058F  1803               	skipnc
  2873     0590  3E01               	addlw	1
  2874     0591  1903               	skipnz
  2875     0592  2D94               	goto	u2203
  2876     0593  07B1               	addwf	___flmul@grs+3,f
  2877     0594                     u2203:
  2878     0594                     l1754:
  2879     0594  0839               	movf	___flmul@temp+1,w
  2880     0595  00A8               	movwf	??___flmul
  2881     0596  01A9               	clrf	??___flmul+1
  2882     0597  01AA               	clrf	??___flmul+2
  2883     0598  01AB               	clrf	??___flmul+3
  2884     0599  0828               	movf	??___flmul,w
  2885     059A  07B4               	addwf	___flmul@prod,f
  2886     059B  0829               	movf	??___flmul+1,w
  2887     059C  1103               	clrz
  2888     059D  1803               	skipnc
  2889     059E  3E01               	addlw	1
  2890     059F  1903               	skipnz
  2891     05A0  2DA2               	goto	u2211
  2892     05A1  07B5               	addwf	___flmul@prod+1,f
  2893     05A2                     u2211:
  2894     05A2  082A               	movf	??___flmul+2,w
  2895     05A3  1103               	clrz
  2896     05A4  1803               	skipnc
  2897     05A5  3E01               	addlw	1
  2898     05A6  1903               	skipnz
  2899     05A7  2DA9               	goto	u2212
  2900     05A8  07B6               	addwf	___flmul@prod+2,f
  2901     05A9                     u2212:
  2902     05A9  082B               	movf	??___flmul+3,w
  2903     05AA  1103               	clrz
  2904     05AB  1803               	skipnc
  2905     05AC  3E01               	addlw	1
  2906     05AD  1903               	skipnz
  2907     05AE  2DB0               	goto	u2213
  2908     05AF  07B7               	addwf	___flmul@prod+3,f
  2909     05B0                     u2213:
  2910     05B0                     l1756:
  2911     05B0  3008               	movlw	8
  2912     05B1  00A8               	movwf	??___flmul
  2913     05B2                     u2225:
  2914     05B2  1003               	clrc
  2915     05B3  0DAE               	rlf	___flmul@grs,f
  2916     05B4  0DAF               	rlf	___flmul@grs+1,f
  2917     05B5  0DB0               	rlf	___flmul@grs+2,f
  2918     05B6  0DB1               	rlf	___flmul@grs+3,f
  2919     05B7  0BA8               	decfsz	??___flmul,f
  2920     05B8  2DB2               	goto	u2225
  2921     05B9                     l1758:
  2922     05B9  0821               	movf	___flmul@b+1,w
  2923     05BA  00F0               	movwf	__Umul8_16@multiplicand
  2924     05BB  0824               	movf	___flmul@a,w
  2925     05BC  120A  158A  2579  120A  118A  	fcall	__Umul8_16
  2926     05C1  0871               	movf	?__Umul8_16+1,w
  2927     05C2  1283               	bcf	3,5	;RP0=0, select bank0
  2928     05C3  1303               	bcf	3,6	;RP1=0, select bank0
  2929     05C4  00B9               	movwf	___flmul@temp+1
  2930     05C5  0870               	movf	?__Umul8_16,w
  2931     05C6  00B8               	movwf	___flmul@temp
  2932     05C7                     l1760:
  2933     05C7  0838               	movf	___flmul@temp,w
  2934     05C8  00A8               	movwf	??___flmul
  2935     05C9  0839               	movf	___flmul@temp+1,w
  2936     05CA  00A9               	movwf	??___flmul+1
  2937     05CB  01AA               	clrf	??___flmul+2
  2938     05CC  01AB               	clrf	??___flmul+3
  2939     05CD  0828               	movf	??___flmul,w
  2940     05CE  07AE               	addwf	___flmul@grs,f
  2941     05CF  0829               	movf	??___flmul+1,w
  2942     05D0  1103               	clrz
  2943     05D1  1803               	skipnc
  2944     05D2  3E01               	addlw	1
  2945     05D3  1903               	skipnz
  2946     05D4  2DD6               	goto	u2231
  2947     05D5  07AF               	addwf	___flmul@grs+1,f
  2948     05D6                     u2231:
  2949     05D6  082A               	movf	??___flmul+2,w
  2950     05D7  1103               	clrz
  2951     05D8  1803               	skipnc
  2952     05D9  3E01               	addlw	1
  2953     05DA  1903               	skipnz
  2954     05DB  2DDD               	goto	u2232
  2955     05DC  07B0               	addwf	___flmul@grs+2,f
  2956     05DD                     u2232:
  2957     05DD  082B               	movf	??___flmul+3,w
  2958     05DE  1103               	clrz
  2959     05DF  1803               	skipnc
  2960     05E0  3E01               	addlw	1
  2961     05E1  1903               	skipnz
  2962     05E2  2DE4               	goto	u2233
  2963     05E3  07B1               	addwf	___flmul@grs+3,f
  2964     05E4                     u2233:
  2965     05E4                     l1762:
  2966     05E4  0820               	movf	___flmul@b,w
  2967     05E5  00F0               	movwf	__Umul8_16@multiplicand
  2968     05E6  0825               	movf	___flmul@a+1,w
  2969     05E7  120A  158A  2579  120A  118A  	fcall	__Umul8_16
  2970     05EC  0871               	movf	?__Umul8_16+1,w
  2971     05ED  1283               	bcf	3,5	;RP0=0, select bank0
  2972     05EE  1303               	bcf	3,6	;RP1=0, select bank0
  2973     05EF  00B9               	movwf	___flmul@temp+1
  2974     05F0  0870               	movf	?__Umul8_16,w
  2975     05F1  00B8               	movwf	___flmul@temp
  2976     05F2                     l1764:
  2977     05F2  0838               	movf	___flmul@temp,w
  2978     05F3  00A8               	movwf	??___flmul
  2979     05F4  0839               	movf	___flmul@temp+1,w
  2980     05F5  00A9               	movwf	??___flmul+1
  2981     05F6  01AA               	clrf	??___flmul+2
  2982     05F7  01AB               	clrf	??___flmul+3
  2983     05F8  0828               	movf	??___flmul,w
  2984     05F9  07AE               	addwf	___flmul@grs,f
  2985     05FA  0829               	movf	??___flmul+1,w
  2986     05FB  1103               	clrz
  2987     05FC  1803               	skipnc
  2988     05FD  3E01               	addlw	1
  2989     05FE  1903               	skipnz
  2990     05FF  2E01               	goto	u2241
  2991     0600  07AF               	addwf	___flmul@grs+1,f
  2992     0601                     u2241:
  2993     0601  082A               	movf	??___flmul+2,w
  2994     0602  1103               	clrz
  2995     0603  1803               	skipnc
  2996     0604  3E01               	addlw	1
  2997     0605  1903               	skipnz
  2998     0606  2E08               	goto	u2242
  2999     0607  07B0               	addwf	___flmul@grs+2,f
  3000     0608                     u2242:
  3001     0608  082B               	movf	??___flmul+3,w
  3002     0609  1103               	clrz
  3003     060A  1803               	skipnc
  3004     060B  3E01               	addlw	1
  3005     060C  1903               	skipnz
  3006     060D  2E0F               	goto	u2243
  3007     060E  07B1               	addwf	___flmul@grs+3,f
  3008     060F                     u2243:
  3009     060F                     l1766:
  3010     060F  3008               	movlw	8
  3011     0610  00A8               	movwf	??___flmul
  3012     0611                     u2255:
  3013     0611  1003               	clrc
  3014     0612  0DAE               	rlf	___flmul@grs,f
  3015     0613  0DAF               	rlf	___flmul@grs+1,f
  3016     0614  0DB0               	rlf	___flmul@grs+2,f
  3017     0615  0DB1               	rlf	___flmul@grs+3,f
  3018     0616  0BA8               	decfsz	??___flmul,f
  3019     0617  2E11               	goto	u2255
  3020     0618  0820               	movf	___flmul@b,w
  3021     0619  00F0               	movwf	__Umul8_16@multiplicand
  3022     061A  0824               	movf	___flmul@a,w
  3023     061B  120A  158A  2579  120A  118A  	fcall	__Umul8_16
  3024     0620  0871               	movf	?__Umul8_16+1,w
  3025     0621  1283               	bcf	3,5	;RP0=0, select bank0
  3026     0622  1303               	bcf	3,6	;RP1=0, select bank0
  3027     0623  00B9               	movwf	___flmul@temp+1
  3028     0624  0870               	movf	?__Umul8_16,w
  3029     0625  00B8               	movwf	___flmul@temp
  3030     0626                     l1768:
  3031     0626  0838               	movf	___flmul@temp,w
  3032     0627  00A8               	movwf	??___flmul
  3033     0628  0839               	movf	___flmul@temp+1,w
  3034     0629  00A9               	movwf	??___flmul+1
  3035     062A  01AA               	clrf	??___flmul+2
  3036     062B  01AB               	clrf	??___flmul+3
  3037     062C  0828               	movf	??___flmul,w
  3038     062D  07AE               	addwf	___flmul@grs,f
  3039     062E  0829               	movf	??___flmul+1,w
  3040     062F  1103               	clrz
  3041     0630  1803               	skipnc
  3042     0631  3E01               	addlw	1
  3043     0632  1903               	skipnz
  3044     0633  2E35               	goto	u2261
  3045     0634  07AF               	addwf	___flmul@grs+1,f
  3046     0635                     u2261:
  3047     0635  082A               	movf	??___flmul+2,w
  3048     0636  1103               	clrz
  3049     0637  1803               	skipnc
  3050     0638  3E01               	addlw	1
  3051     0639  1903               	skipnz
  3052     063A  2E3C               	goto	u2262
  3053     063B  07B0               	addwf	___flmul@grs+2,f
  3054     063C                     u2262:
  3055     063C  082B               	movf	??___flmul+3,w
  3056     063D  1103               	clrz
  3057     063E  1803               	skipnc
  3058     063F  3E01               	addlw	1
  3059     0640  1903               	skipnz
  3060     0641  2E43               	goto	u2263
  3061     0642  07B1               	addwf	___flmul@grs+3,f
  3062     0643                     u2263:
  3063     0643                     l1770:
  3064     0643  0821               	movf	___flmul@b+1,w
  3065     0644  00F0               	movwf	__Umul8_16@multiplicand
  3066     0645  0826               	movf	___flmul@a+2,w
  3067     0646  120A  158A  2579  120A  118A  	fcall	__Umul8_16
  3068     064B  0871               	movf	?__Umul8_16+1,w
  3069     064C  1283               	bcf	3,5	;RP0=0, select bank0
  3070     064D  1303               	bcf	3,6	;RP1=0, select bank0
  3071     064E  00B9               	movwf	___flmul@temp+1
  3072     064F  0870               	movf	?__Umul8_16,w
  3073     0650  00B8               	movwf	___flmul@temp
  3074     0651  0838               	movf	___flmul@temp,w
  3075     0652  00A8               	movwf	??___flmul
  3076     0653  0839               	movf	___flmul@temp+1,w
  3077     0654  00A9               	movwf	??___flmul+1
  3078     0655  01AA               	clrf	??___flmul+2
  3079     0656  01AB               	clrf	??___flmul+3
  3080     0657  0828               	movf	??___flmul,w
  3081     0658  07B4               	addwf	___flmul@prod,f
  3082     0659  0829               	movf	??___flmul+1,w
  3083     065A  1103               	clrz
  3084     065B  1803               	skipnc
  3085     065C  3E01               	addlw	1
  3086     065D  1903               	skipnz
  3087     065E  2E60               	goto	u2271
  3088     065F  07B5               	addwf	___flmul@prod+1,f
  3089     0660                     u2271:
  3090     0660  082A               	movf	??___flmul+2,w
  3091     0661  1103               	clrz
  3092     0662  1803               	skipnc
  3093     0663  3E01               	addlw	1
  3094     0664  1903               	skipnz
  3095     0665  2E67               	goto	u2272
  3096     0666  07B6               	addwf	___flmul@prod+2,f
  3097     0667                     u2272:
  3098     0667  082B               	movf	??___flmul+3,w
  3099     0668  1103               	clrz
  3100     0669  1803               	skipnc
  3101     066A  3E01               	addlw	1
  3102     066B  1903               	skipnz
  3103     066C  2E6E               	goto	u2273
  3104     066D  07B7               	addwf	___flmul@prod+3,f
  3105     066E                     u2273:
  3106     066E                     l1772:
  3107     066E  0822               	movf	___flmul@b+2,w
  3108     066F  00F0               	movwf	__Umul8_16@multiplicand
  3109     0670  0825               	movf	___flmul@a+1,w
  3110     0671  120A  158A  2579  120A  118A  	fcall	__Umul8_16
  3111     0676  0871               	movf	?__Umul8_16+1,w
  3112     0677  1283               	bcf	3,5	;RP0=0, select bank0
  3113     0678  1303               	bcf	3,6	;RP1=0, select bank0
  3114     0679  00B9               	movwf	___flmul@temp+1
  3115     067A  0870               	movf	?__Umul8_16,w
  3116     067B  00B8               	movwf	___flmul@temp
  3117     067C                     l1774:
  3118     067C  0838               	movf	___flmul@temp,w
  3119     067D  00A8               	movwf	??___flmul
  3120     067E  0839               	movf	___flmul@temp+1,w
  3121     067F  00A9               	movwf	??___flmul+1
  3122     0680  01AA               	clrf	??___flmul+2
  3123     0681  01AB               	clrf	??___flmul+3
  3124     0682  0828               	movf	??___flmul,w
  3125     0683  07B4               	addwf	___flmul@prod,f
  3126     0684  0829               	movf	??___flmul+1,w
  3127     0685  1103               	clrz
  3128     0686  1803               	skipnc
  3129     0687  3E01               	addlw	1
  3130     0688  1903               	skipnz
  3131     0689  2E8B               	goto	u2281
  3132     068A  07B5               	addwf	___flmul@prod+1,f
  3133     068B                     u2281:
  3134     068B  082A               	movf	??___flmul+2,w
  3135     068C  1103               	clrz
  3136     068D  1803               	skipnc
  3137     068E  3E01               	addlw	1
  3138     068F  1903               	skipnz
  3139     0690  2E92               	goto	u2282
  3140     0691  07B6               	addwf	___flmul@prod+2,f
  3141     0692                     u2282:
  3142     0692  082B               	movf	??___flmul+3,w
  3143     0693  1103               	clrz
  3144     0694  1803               	skipnc
  3145     0695  3E01               	addlw	1
  3146     0696  1903               	skipnz
  3147     0697  2E99               	goto	u2283
  3148     0698  07B7               	addwf	___flmul@prod+3,f
  3149     0699                     u2283:
  3150     0699  0822               	movf	___flmul@b+2,w
  3151     069A  00F0               	movwf	__Umul8_16@multiplicand
  3152     069B  0826               	movf	___flmul@a+2,w
  3153     069C  120A  158A  2579  120A  118A  	fcall	__Umul8_16
  3154     06A1  0871               	movf	?__Umul8_16+1,w
  3155     06A2  1283               	bcf	3,5	;RP0=0, select bank0
  3156     06A3  1303               	bcf	3,6	;RP1=0, select bank0
  3157     06A4  00B9               	movwf	___flmul@temp+1
  3158     06A5  0870               	movf	?__Umul8_16,w
  3159     06A6  00B8               	movwf	___flmul@temp
  3160     06A7                     l1776:
  3161     06A7  0838               	movf	___flmul@temp,w
  3162     06A8  00A8               	movwf	??___flmul
  3163     06A9  0839               	movf	___flmul@temp+1,w
  3164     06AA  00A9               	movwf	??___flmul+1
  3165     06AB  01AA               	clrf	??___flmul+2
  3166     06AC  01AB               	clrf	??___flmul+3
  3167     06AD  3008               	movlw	8
  3168     06AE                     u2295:
  3169     06AE  1003               	clrc
  3170     06AF  0DA8               	rlf	??___flmul,f
  3171     06B0  0DA9               	rlf	??___flmul+1,f
  3172     06B1  0DAA               	rlf	??___flmul+2,f
  3173     06B2  0DAB               	rlf	??___flmul+3,f
  3174     06B3                     u2290:
  3175     06B3  3EFF               	addlw	-1
  3176     06B4  1D03               	skipz
  3177     06B5  2EAE               	goto	u2295
  3178     06B6  0828               	movf	??___flmul,w
  3179     06B7  07B4               	addwf	___flmul@prod,f
  3180     06B8  0829               	movf	??___flmul+1,w
  3181     06B9  1103               	clrz
  3182     06BA  1803               	skipnc
  3183     06BB  3E01               	addlw	1
  3184     06BC  1903               	skipnz
  3185     06BD  2EBF               	goto	u2301
  3186     06BE  07B5               	addwf	___flmul@prod+1,f
  3187     06BF                     u2301:
  3188     06BF  082A               	movf	??___flmul+2,w
  3189     06C0  1103               	clrz
  3190     06C1  1803               	skipnc
  3191     06C2  3E01               	addlw	1
  3192     06C3  1903               	skipnz
  3193     06C4  2EC6               	goto	u2302
  3194     06C5  07B6               	addwf	___flmul@prod+2,f
  3195     06C6                     u2302:
  3196     06C6  082B               	movf	??___flmul+3,w
  3197     06C7  1103               	clrz
  3198     06C8  1803               	skipnc
  3199     06C9  3E01               	addlw	1
  3200     06CA  1903               	skipnz
  3201     06CB  2ECD               	goto	u2303
  3202     06CC  07B7               	addwf	___flmul@prod+3,f
  3203     06CD                     u2303:
  3204     06CD                     l1778:
  3205     06CD  082E               	movf	___flmul@grs,w
  3206     06CE  00A8               	movwf	??___flmul
  3207     06CF  082F               	movf	___flmul@grs+1,w
  3208     06D0  00A9               	movwf	??___flmul+1
  3209     06D1  0830               	movf	___flmul@grs+2,w
  3210     06D2  00AA               	movwf	??___flmul+2
  3211     06D3  0831               	movf	___flmul@grs+3,w
  3212     06D4  00AB               	movwf	??___flmul+3
  3213     06D5  3018               	movlw	24
  3214     06D6                     u2315:
  3215     06D6  1003               	clrc
  3216     06D7  0CAB               	rrf	??___flmul+3,f
  3217     06D8  0CAA               	rrf	??___flmul+2,f
  3218     06D9  0CA9               	rrf	??___flmul+1,f
  3219     06DA  0CA8               	rrf	??___flmul,f
  3220     06DB                     u2310:
  3221     06DB  3EFF               	addlw	-1
  3222     06DC  1D03               	skipz
  3223     06DD  2ED6               	goto	u2315
  3224     06DE  0828               	movf	??___flmul,w
  3225     06DF  07B4               	addwf	___flmul@prod,f
  3226     06E0  0829               	movf	??___flmul+1,w
  3227     06E1  1103               	clrz
  3228     06E2  1803               	skipnc
  3229     06E3  3E01               	addlw	1
  3230     06E4  1903               	skipnz
  3231     06E5  2EE7               	goto	u2321
  3232     06E6  07B5               	addwf	___flmul@prod+1,f
  3233     06E7                     u2321:
  3234     06E7  082A               	movf	??___flmul+2,w
  3235     06E8  1103               	clrz
  3236     06E9  1803               	skipnc
  3237     06EA  3E01               	addlw	1
  3238     06EB  1903               	skipnz
  3239     06EC  2EEE               	goto	u2322
  3240     06ED  07B6               	addwf	___flmul@prod+2,f
  3241     06EE                     u2322:
  3242     06EE  082B               	movf	??___flmul+3,w
  3243     06EF  1103               	clrz
  3244     06F0  1803               	skipnc
  3245     06F1  3E01               	addlw	1
  3246     06F2  1903               	skipnz
  3247     06F3  2EF5               	goto	u2323
  3248     06F4  07B7               	addwf	___flmul@prod+3,f
  3249     06F5                     u2323:
  3250     06F5                     l1780:
  3251     06F5  3008               	movlw	8
  3252     06F6  00A8               	movwf	??___flmul
  3253     06F7                     u2335:
  3254     06F7  1003               	clrc
  3255     06F8  0DAE               	rlf	___flmul@grs,f
  3256     06F9  0DAF               	rlf	___flmul@grs+1,f
  3257     06FA  0DB0               	rlf	___flmul@grs+2,f
  3258     06FB  0DB1               	rlf	___flmul@grs+3,f
  3259     06FC  0BA8               	decfsz	??___flmul,f
  3260     06FD  2EF7               	goto	u2335
  3261     06FE                     l1782:
  3262     06FE  0833               	movf	___flmul@bexp,w
  3263     06FF  0732               	addwf	___flmul@aexp,w
  3264     0700  00A8               	movwf	??___flmul
  3265     0701  01A9               	clrf	??___flmul+1
  3266     0702  0DA9               	rlf	??___flmul+1,f
  3267     0703  0828               	movf	??___flmul,w
  3268     0704  3E82               	addlw	130
  3269     0705  00B8               	movwf	___flmul@temp
  3270     0706  0829               	movf	??___flmul+1,w
  3271     0707  1803               	skipnc
  3272     0708  3E01               	addlw	1
  3273     0709  3EFF               	addlw	255
  3274     070A  00B9               	movwf	___flmul@temp+1
  3275     070B  2F29               	goto	l1794
  3276     070C                     l1784:
  3277     070C  3001               	movlw	1
  3278     070D  00A8               	movwf	??___flmul
  3279     070E                     u2345:
  3280     070E  1003               	clrc
  3281     070F  0DB4               	rlf	___flmul@prod,f
  3282     0710  0DB5               	rlf	___flmul@prod+1,f
  3283     0711  0DB6               	rlf	___flmul@prod+2,f
  3284     0712  0DB7               	rlf	___flmul@prod+3,f
  3285     0713  0BA8               	decfsz	??___flmul,f
  3286     0714  2F0E               	goto	u2345
  3287     0715                     l1786:
  3288     0715  1FB1               	btfss	___flmul@grs+3,7
  3289     0716  2F18               	goto	u2351
  3290     0717  2F19               	goto	u2350
  3291     0718                     u2351:
  3292     0718  2F1A               	goto	l1790
  3293     0719                     u2350:
  3294     0719                     l1788:
  3295     0719  1434               	bsf	___flmul@prod,0
  3296     071A                     l1790:
  3297     071A  3001               	movlw	1
  3298     071B  00A8               	movwf	??___flmul
  3299     071C                     u2365:
  3300     071C  1003               	clrc
  3301     071D  0DAE               	rlf	___flmul@grs,f
  3302     071E  0DAF               	rlf	___flmul@grs+1,f
  3303     071F  0DB0               	rlf	___flmul@grs+2,f
  3304     0720  0DB1               	rlf	___flmul@grs+3,f
  3305     0721  0BA8               	decfsz	??___flmul,f
  3306     0722  2F1C               	goto	u2365
  3307     0723                     l1792:
  3308     0723  30FF               	movlw	255
  3309     0724  07B8               	addwf	___flmul@temp,f
  3310     0725  1803               	skipnc
  3311     0726  0AB9               	incf	___flmul@temp+1,f
  3312     0727  30FF               	movlw	255
  3313     0728  07B9               	addwf	___flmul@temp+1,f
  3314     0729                     l1794:
  3315     0729  1FB6               	btfss	___flmul@prod+2,7
  3316     072A  2F2C               	goto	u2371
  3317     072B  2F2D               	goto	u2370
  3318     072C                     u2371:
  3319     072C  2F0C               	goto	l1784
  3320     072D                     u2370:
  3321     072D                     l1796:
  3322     072D  01B2               	clrf	___flmul@aexp
  3323     072E                     l1798:
  3324     072E  1FB1               	btfss	___flmul@grs+3,7
  3325     072F  2F31               	goto	u2381
  3326     0730  2F32               	goto	u2380
  3327     0731                     u2381:
  3328     0731  2F4E               	goto	l1806
  3329     0732                     u2380:
  3330     0732                     l1800:
  3331     0732  30FF               	movlw	255
  3332     0733  052E               	andwf	___flmul@grs,w
  3333     0734  00A8               	movwf	??___flmul
  3334     0735  30FF               	movlw	255
  3335     0736  052F               	andwf	___flmul@grs+1,w
  3336     0737  00A9               	movwf	??___flmul+1
  3337     0738  30FF               	movlw	255
  3338     0739  0530               	andwf	___flmul@grs+2,w
  3339     073A  00AA               	movwf	??___flmul+2
  3340     073B  307F               	movlw	127
  3341     073C  0531               	andwf	___flmul@grs+3,w
  3342     073D  00AB               	movwf	??___flmul+3
  3343     073E  082B               	movf	??___flmul+3,w
  3344     073F  042A               	iorwf	??___flmul+2,w
  3345     0740  0429               	iorwf	??___flmul+1,w
  3346     0741  0428               	iorwf	??___flmul,w
  3347     0742  1903               	skipnz
  3348     0743  2F45               	goto	u2391
  3349     0744  2F46               	goto	u2390
  3350     0745                     u2391:
  3351     0745  2F49               	goto	l599
  3352     0746                     u2390:
  3353     0746                     l1802:
  3354     0746  01B2               	clrf	___flmul@aexp
  3355     0747  0AB2               	incf	___flmul@aexp,f
  3356     0748  2F4E               	goto	l1806
  3357     0749                     l599:
  3358     0749  1C34               	btfss	___flmul@prod,0
  3359     074A  2F4C               	goto	u2401
  3360     074B  2F4D               	goto	u2400
  3361     074C                     u2401:
  3362     074C  2F4E               	goto	l1806
  3363     074D                     u2400:
  3364     074D  2F46               	goto	l1802
  3365     074E                     l1806:
  3366     074E  0832               	movf	___flmul@aexp,w
  3367     074F  1903               	btfsc	3,2
  3368     0750  2F52               	goto	u2411
  3369     0751  2F53               	goto	u2410
  3370     0752                     u2411:
  3371     0752  2F84               	goto	l1816
  3372     0753                     u2410:
  3373     0753                     l1808:
  3374     0753  3001               	movlw	1
  3375     0754  07B4               	addwf	___flmul@prod,f
  3376     0755  3000               	movlw	0
  3377     0756  1803               	skipnc
  3378     0757  3001               	movlw	1
  3379     0758  07B5               	addwf	___flmul@prod+1,f
  3380     0759  3000               	movlw	0
  3381     075A  1803               	skipnc
  3382     075B  3001               	movlw	1
  3383     075C  07B6               	addwf	___flmul@prod+2,f
  3384     075D  3000               	movlw	0
  3385     075E  1803               	skipnc
  3386     075F  3001               	movlw	1
  3387     0760  07B7               	addwf	___flmul@prod+3,f
  3388     0761                     l1810:
  3389     0761  1C37               	btfss	___flmul@prod+3,0
  3390     0762  2F64               	goto	u2421
  3391     0763  2F65               	goto	u2420
  3392     0764                     u2421:
  3393     0764  2F84               	goto	l1816
  3394     0765                     u2420:
  3395     0765                     l1812:
  3396     0765  0834               	movf	___flmul@prod,w
  3397     0766  00A8               	movwf	??___flmul
  3398     0767  0835               	movf	___flmul@prod+1,w
  3399     0768  00A9               	movwf	??___flmul+1
  3400     0769  0836               	movf	___flmul@prod+2,w
  3401     076A  00AA               	movwf	??___flmul+2
  3402     076B  0837               	movf	___flmul@prod+3,w
  3403     076C  00AB               	movwf	??___flmul+3
  3404     076D  3001               	movlw	1
  3405     076E  00AC               	movwf	??___flmul+4
  3406     076F                     u2435:
  3407     076F  0D2B               	rlf	??___flmul+3,w
  3408     0770  0CAB               	rrf	??___flmul+3,f
  3409     0771  0CAA               	rrf	??___flmul+2,f
  3410     0772  0CA9               	rrf	??___flmul+1,f
  3411     0773  0CA8               	rrf	??___flmul,f
  3412     0774                     u2430:
  3413     0774  0BAC               	decfsz	??___flmul+4,f
  3414     0775  2F6F               	goto	u2435
  3415     0776  082B               	movf	??___flmul+3,w
  3416     0777  00B7               	movwf	___flmul@prod+3
  3417     0778  082A               	movf	??___flmul+2,w
  3418     0779  00B6               	movwf	___flmul@prod+2
  3419     077A  0829               	movf	??___flmul+1,w
  3420     077B  00B5               	movwf	___flmul@prod+1
  3421     077C  0828               	movf	??___flmul,w
  3422     077D  00B4               	movwf	___flmul@prod
  3423     077E                     l1814:
  3424     077E  3001               	movlw	1
  3425     077F  07B8               	addwf	___flmul@temp,f
  3426     0780  1803               	skipnc
  3427     0781  0AB9               	incf	___flmul@temp+1,f
  3428     0782  3000               	movlw	0
  3429     0783  07B9               	addwf	___flmul@temp+1,f
  3430     0784                     l1816:
  3431     0784  0839               	movf	___flmul@temp+1,w
  3432     0785  3A80               	xorlw	128
  3433     0786  00FF               	movwf	btemp+1
  3434     0787  3080               	movlw	128
  3435     0788  027F               	subwf	btemp+1,w
  3436     0789  1D03               	skipz
  3437     078A  2F8D               	goto	u2445
  3438     078B  30FF               	movlw	255
  3439     078C  0238               	subwf	___flmul@temp,w
  3440     078D                     u2445:
  3441     078D  1C03               	skipc
  3442     078E  2F90               	goto	u2441
  3443     078F  2F91               	goto	u2440
  3444     0790                     u2441:
  3445     0790  2F9C               	goto	l1820
  3446     0791                     u2440:
  3447     0791                     l1818:
  3448     0791  307F               	movlw	127
  3449     0792  1283               	bcf	3,5	;RP0=0, select bank0
  3450     0793  1303               	bcf	3,6	;RP1=0, select bank0
  3451     0794  00B7               	movwf	___flmul@prod+3
  3452     0795  3080               	movlw	128
  3453     0796  00B6               	movwf	___flmul@prod+2
  3454     0797  3000               	movlw	0
  3455     0798  00B5               	movwf	___flmul@prod+1
  3456     0799  3000               	movlw	0
  3457     079A  00B4               	movwf	___flmul@prod
  3458     079B  2FCD               	goto	l605
  3459     079C                     l1820:
  3460     079C  1283               	bcf	3,5	;RP0=0, select bank0
  3461     079D  1303               	bcf	3,6	;RP1=0, select bank0
  3462     079E  0839               	movf	___flmul@temp+1,w
  3463     079F  3A80               	xorlw	128
  3464     07A0  00FF               	movwf	btemp+1
  3465     07A1  3080               	movlw	128
  3466     07A2  027F               	subwf	btemp+1,w
  3467     07A3  1D03               	skipz
  3468     07A4  2FA7               	goto	u2455
  3469     07A5  3001               	movlw	1
  3470     07A6  0238               	subwf	___flmul@temp,w
  3471     07A7                     u2455:
  3472     07A7  1803               	skipnc
  3473     07A8  2FAA               	goto	u2451
  3474     07A9  2FAB               	goto	u2450
  3475     07AA                     u2451:
  3476     07AA  2FB7               	goto	l1826
  3477     07AB                     u2450:
  3478     07AB                     l1822:
  3479     07AB  3000               	movlw	0
  3480     07AC  1283               	bcf	3,5	;RP0=0, select bank0
  3481     07AD  1303               	bcf	3,6	;RP1=0, select bank0
  3482     07AE  00B7               	movwf	___flmul@prod+3
  3483     07AF  3000               	movlw	0
  3484     07B0  00B6               	movwf	___flmul@prod+2
  3485     07B1  3000               	movlw	0
  3486     07B2  00B5               	movwf	___flmul@prod+1
  3487     07B3  3000               	movlw	0
  3488     07B4  00B4               	movwf	___flmul@prod
  3489     07B5                     l1824:
  3490     07B5  01AD               	clrf	___flmul@sign
  3491     07B6  2FCD               	goto	l605
  3492     07B7                     l1826:
  3493     07B7  1283               	bcf	3,5	;RP0=0, select bank0
  3494     07B8  1303               	bcf	3,6	;RP1=0, select bank0
  3495     07B9  0838               	movf	___flmul@temp,w
  3496     07BA  00B3               	movwf	___flmul@bexp
  3497     07BB  30FF               	movlw	255
  3498     07BC  05B4               	andwf	___flmul@prod,f
  3499     07BD  30FF               	movlw	255
  3500     07BE  05B5               	andwf	___flmul@prod+1,f
  3501     07BF  307F               	movlw	127
  3502     07C0  05B6               	andwf	___flmul@prod+2,f
  3503     07C1  3000               	movlw	0
  3504     07C2  05B7               	andwf	___flmul@prod+3,f
  3505     07C3                     l1828:
  3506     07C3  1C33               	btfss	___flmul@bexp,0
  3507     07C4  2FC6               	goto	u2461
  3508     07C5  2FC7               	goto	u2460
  3509     07C6                     u2461:
  3510     07C6  2FC8               	goto	l1832
  3511     07C7                     u2460:
  3512     07C7                     l1830:
  3513     07C7  17B6               	bsf	___flmul@prod+2,7
  3514     07C8                     l1832:
  3515     07C8  0833               	movf	___flmul@bexp,w
  3516     07C9  00A8               	movwf	??___flmul
  3517     07CA  1003               	clrc
  3518     07CB  0C28               	rrf	??___flmul,w
  3519     07CC  00B7               	movwf	___flmul@prod+3
  3520     07CD                     l605:
  3521     07CD  082D               	movf	___flmul@sign,w
  3522     07CE  00A8               	movwf	??___flmul
  3523     07CF  0828               	movf	??___flmul,w
  3524     07D0  04B7               	iorwf	___flmul@prod+3,f
  3525     07D1                     l1834:
  3526     07D1  0837               	movf	___flmul@prod+3,w
  3527     07D2  00A3               	movwf	?___flmul+3
  3528     07D3  0836               	movf	___flmul@prod+2,w
  3529     07D4  00A2               	movwf	?___flmul+2
  3530     07D5  0835               	movf	___flmul@prod+1,w
  3531     07D6  00A1               	movwf	?___flmul+1
  3532     07D7  0834               	movf	___flmul@prod,w
  3533     07D8  00A0               	movwf	?___flmul
  3534     07D9                     l593:
  3535     07D9  0008               	return
  3536     07DA                     __end_of___flmul:
  3537                           
  3538                           	psect	text12
  3539     0D79                     __ptext12:	
  3540 ;; *************** function __Umul8_16 *****************
  3541 ;; Defined at:
  3542 ;;		line 4 in file "C:\Program Files\Microchip\xc8\v2.40\pic\sources\c90\common\Umul8_16.c"
  3543 ;; Parameters:    Size  Location     Type
  3544 ;;  multiplier      1    wreg     unsigned char 
  3545 ;;  multiplicand    1    0[COMMON] unsigned char 
  3546 ;; Auto vars:     Size  Location     Type
  3547 ;;  multiplier      1    8[COMMON] unsigned char 
  3548 ;;  word_mpld       2    6[COMMON] unsigned int 
  3549 ;;  product         2    4[COMMON] unsigned int 
  3550 ;; Return value:  Size  Location     Type
  3551 ;;                  2    0[COMMON] unsigned int 
  3552 ;; Registers used:
  3553 ;;		wreg, status,2, status,0
  3554 ;; Tracked objects:
  3555 ;;		On entry : 0/0
  3556 ;;		On exit  : 0/0
  3557 ;;		Unchanged: 0/0
  3558 ;; Data sizes:     COMMON   BANK0   BANK1   BANK3   BANK2
  3559 ;;      Params:         2       0       0       0       0
  3560 ;;      Locals:         5       0       0       0       0
  3561 ;;      Temps:          2       0       0       0       0
  3562 ;;      Totals:         9       0       0       0       0
  3563 ;;Total ram usage:        9 bytes
  3564 ;; Hardware stack levels used: 1
  3565 ;; This function calls:
  3566 ;;		Nothing
  3567 ;; This function is called by:
  3568 ;;		___flmul
  3569 ;; This function uses a non-reentrant model
  3570 ;;
  3571                           
  3572     0D79                     __Umul8_16:	
  3573                           ;psect for function __Umul8_16
  3574                           
  3575                           
  3576                           ;incstack = 0
  3577                           ; Regs used in __Umul8_16: [wreg+status,2+status,0]
  3578                           ;__Umul8_16@multiplier stored from wreg
  3579     0D79  00F8               	movwf	__Umul8_16@multiplier
  3580     0D7A                     l1464:
  3581     0D7A  01F4               	clrf	__Umul8_16@product
  3582     0D7B  01F5               	clrf	__Umul8_16@product+1
  3583     0D7C                     l1466:
  3584     0D7C  0870               	movf	__Umul8_16@multiplicand,w
  3585     0D7D  00F2               	movwf	??__Umul8_16
  3586     0D7E  01F3               	clrf	??__Umul8_16+1
  3587     0D7F  0872               	movf	??__Umul8_16,w
  3588     0D80  00F6               	movwf	__Umul8_16@word_mpld
  3589     0D81  0873               	movf	??__Umul8_16+1,w
  3590     0D82  00F7               	movwf	__Umul8_16@word_mpld+1
  3591     0D83                     l1468:
  3592     0D83  1C78               	btfss	__Umul8_16@multiplier,0
  3593     0D84  2D86               	goto	u1621
  3594     0D85  2D87               	goto	u1620
  3595     0D86                     u1621:
  3596     0D86  2D8D               	goto	l612
  3597     0D87                     u1620:
  3598     0D87                     l1470:
  3599     0D87  0876               	movf	__Umul8_16@word_mpld,w
  3600     0D88  07F4               	addwf	__Umul8_16@product,f
  3601     0D89  1803               	skipnc
  3602     0D8A  0AF5               	incf	__Umul8_16@product+1,f
  3603     0D8B  0877               	movf	__Umul8_16@word_mpld+1,w
  3604     0D8C  07F5               	addwf	__Umul8_16@product+1,f
  3605     0D8D                     l612:
  3606     0D8D  3001               	movlw	1
  3607     0D8E                     u1635:
  3608     0D8E  1003               	clrc
  3609     0D8F  0DF6               	rlf	__Umul8_16@word_mpld,f
  3610     0D90  0DF7               	rlf	__Umul8_16@word_mpld+1,f
  3611     0D91  3EFF               	addlw	-1
  3612     0D92  1D03               	skipz
  3613     0D93  2D8E               	goto	u1635
  3614     0D94  1003               	clrc
  3615     0D95  0CF8               	rrf	__Umul8_16@multiplier,f
  3616     0D96                     l1472:
  3617     0D96  0878               	movf	__Umul8_16@multiplier,w
  3618     0D97  1D03               	btfss	3,2
  3619     0D98  2D9A               	goto	u1641
  3620     0D99  2D9B               	goto	u1640
  3621     0D9A                     u1641:
  3622     0D9A  2D83               	goto	l1468
  3623     0D9B                     u1640:
  3624     0D9B                     l1474:
  3625     0D9B  0875               	movf	__Umul8_16@product+1,w
  3626     0D9C  00F1               	movwf	?__Umul8_16+1
  3627     0D9D  0874               	movf	__Umul8_16@product,w
  3628     0D9E  00F0               	movwf	?__Umul8_16
  3629     0D9F                     l614:
  3630     0D9F  0008               	return
  3631     0DA0                     __end_of__Umul8_16:
  3632                           
  3633                           	psect	text13
  3634     02C2                     __ptext13:	
  3635 ;; *************** function ___fldiv *****************
  3636 ;; Defined at:
  3637 ;;		line 8 in file "C:\Program Files\Microchip\xc8\v2.40\pic\sources\c90\common\sprcdiv.c"
  3638 ;; Parameters:    Size  Location     Type
  3639 ;;  a               4   26[BANK0 ] unsigned int 
  3640 ;;  b               4   30[BANK0 ] unsigned int 
  3641 ;; Auto vars:     Size  Location     Type
  3642 ;;  grs             4   46[BANK0 ] unsigned long 
  3643 ;;  rem             4   39[BANK0 ] unsigned long 
  3644 ;;  new_exp         2   44[BANK0 ] int 
  3645 ;;  aexp            1   51[BANK0 ] unsigned char 
  3646 ;;  bexp            1   50[BANK0 ] unsigned char 
  3647 ;;  sign            1   43[BANK0 ] unsigned char 
  3648 ;; Return value:  Size  Location     Type
  3649 ;;                  4   26[BANK0 ] unsigned char 
  3650 ;; Registers used:
  3651 ;;		wreg, status,2, status,0, btemp+1
  3652 ;; Tracked objects:
  3653 ;;		On entry : 0/0
  3654 ;;		On exit  : 0/0
  3655 ;;		Unchanged: 0/0
  3656 ;; Data sizes:     COMMON   BANK0   BANK1   BANK3   BANK2
  3657 ;;      Params:         0       8       0       0       0
  3658 ;;      Locals:         0      13       0       0       0
  3659 ;;      Temps:          0       5       0       0       0
  3660 ;;      Totals:         0      26       0       0       0
  3661 ;;Total ram usage:       26 bytes
  3662 ;; Hardware stack levels used: 1
  3663 ;; This function calls:
  3664 ;;		Nothing
  3665 ;; This function is called by:
  3666 ;;		_adc
  3667 ;; This function uses a non-reentrant model
  3668 ;;
  3669                           
  3670     02C2                     ___fldiv:	
  3671                           ;psect for function ___fldiv
  3672                           
  3673     02C2                     l1556:	
  3674                           ;incstack = 0
  3675                           ; Regs used in ___fldiv: [wreg+status,2+status,0+btemp+1]
  3676                           
  3677     02C2  1283               	bcf	3,5	;RP0=0, select bank0
  3678     02C3  1303               	bcf	3,6	;RP1=0, select bank0
  3679     02C4  0841               	movf	___fldiv@b+3,w
  3680     02C5  3980               	andlw	128
  3681     02C6  00CB               	movwf	___fldiv@sign
  3682     02C7                     l1558:
  3683     02C7  0841               	movf	___fldiv@b+3,w
  3684     02C8  00C2               	movwf	??___fldiv
  3685     02C9  0742               	addwf	??___fldiv,w
  3686     02CA  00D2               	movwf	___fldiv@bexp
  3687     02CB                     l1560:
  3688     02CB  1FC0               	btfss	___fldiv@b+2,7
  3689     02CC  2ACE               	goto	u1811
  3690     02CD  2ACF               	goto	u1810
  3691     02CE                     u1811:
  3692     02CE  2AD0               	goto	l1564
  3693     02CF                     u1810:
  3694     02CF                     l1562:
  3695     02CF  1452               	bsf	___fldiv@bexp,0
  3696     02D0                     l1564:
  3697     02D0  0852               	movf	___fldiv@bexp,w
  3698     02D1  1903               	btfsc	3,2
  3699     02D2  2AD4               	goto	u1821
  3700     02D3  2AD5               	goto	u1820
  3701     02D4                     u1821:
  3702     02D4  2AE5               	goto	l1574
  3703     02D5                     u1820:
  3704     02D5                     l1566:
  3705     02D5  0A52               	incf	___fldiv@bexp,w
  3706     02D6  1D03               	btfss	3,2
  3707     02D7  2AD9               	goto	u1831
  3708     02D8  2ADA               	goto	u1830
  3709     02D9                     u1831:
  3710     02D9  2AE2               	goto	l1570
  3711     02DA                     u1830:
  3712     02DA                     l1568:
  3713     02DA  3000               	movlw	0
  3714     02DB  00C1               	movwf	___fldiv@b+3
  3715     02DC  3000               	movlw	0
  3716     02DD  00C0               	movwf	___fldiv@b+2
  3717     02DE  3000               	movlw	0
  3718     02DF  00BF               	movwf	___fldiv@b+1
  3719     02E0  3000               	movlw	0
  3720     02E1  00BE               	movwf	___fldiv@b
  3721     02E2                     l1570:
  3722     02E2  17C0               	bsf	___fldiv@b+2,7
  3723     02E3                     l1572:
  3724     02E3  01C1               	clrf	___fldiv@b+3
  3725     02E4  2AED               	goto	l1576
  3726     02E5                     l1574:
  3727     02E5  3000               	movlw	0
  3728     02E6  00C1               	movwf	___fldiv@b+3
  3729     02E7  3000               	movlw	0
  3730     02E8  00C0               	movwf	___fldiv@b+2
  3731     02E9  3000               	movlw	0
  3732     02EA  00BF               	movwf	___fldiv@b+1
  3733     02EB  3000               	movlw	0
  3734     02EC  00BE               	movwf	___fldiv@b
  3735     02ED                     l1576:
  3736     02ED  083D               	movf	___fldiv@a+3,w
  3737     02EE  3980               	andlw	128
  3738     02EF  00C2               	movwf	??___fldiv
  3739     02F0  0842               	movf	??___fldiv,w
  3740     02F1  06CB               	xorwf	___fldiv@sign,f
  3741     02F2                     l1578:
  3742     02F2  083D               	movf	___fldiv@a+3,w
  3743     02F3  00C2               	movwf	??___fldiv
  3744     02F4  0742               	addwf	??___fldiv,w
  3745     02F5  00D3               	movwf	___fldiv@aexp
  3746     02F6                     l1580:
  3747     02F6  1FBC               	btfss	___fldiv@a+2,7
  3748     02F7  2AF9               	goto	u1841
  3749     02F8  2AFA               	goto	u1840
  3750     02F9                     u1841:
  3751     02F9  2AFB               	goto	l1584
  3752     02FA                     u1840:
  3753     02FA                     l1582:
  3754     02FA  1453               	bsf	___fldiv@aexp,0
  3755     02FB                     l1584:
  3756     02FB  0853               	movf	___fldiv@aexp,w
  3757     02FC  1903               	btfsc	3,2
  3758     02FD  2AFF               	goto	u1851
  3759     02FE  2B00               	goto	u1850
  3760     02FF                     u1851:
  3761     02FF  2B10               	goto	l1594
  3762     0300                     u1850:
  3763     0300                     l1586:
  3764     0300  0A53               	incf	___fldiv@aexp,w
  3765     0301  1D03               	btfss	3,2
  3766     0302  2B04               	goto	u1861
  3767     0303  2B05               	goto	u1860
  3768     0304                     u1861:
  3769     0304  2B0D               	goto	l1590
  3770     0305                     u1860:
  3771     0305                     l1588:
  3772     0305  3000               	movlw	0
  3773     0306  00BD               	movwf	___fldiv@a+3
  3774     0307  3000               	movlw	0
  3775     0308  00BC               	movwf	___fldiv@a+2
  3776     0309  3000               	movlw	0
  3777     030A  00BB               	movwf	___fldiv@a+1
  3778     030B  3000               	movlw	0
  3779     030C  00BA               	movwf	___fldiv@a
  3780     030D                     l1590:
  3781     030D  17BC               	bsf	___fldiv@a+2,7
  3782     030E                     l1592:
  3783     030E  01BD               	clrf	___fldiv@a+3
  3784     030F  2B18               	goto	l553
  3785     0310                     l1594:
  3786     0310  3000               	movlw	0
  3787     0311  00BD               	movwf	___fldiv@a+3
  3788     0312  3000               	movlw	0
  3789     0313  00BC               	movwf	___fldiv@a+2
  3790     0314  3000               	movlw	0
  3791     0315  00BB               	movwf	___fldiv@a+1
  3792     0316  3000               	movlw	0
  3793     0317  00BA               	movwf	___fldiv@a
  3794     0318                     l553:
  3795     0318  083D               	movf	___fldiv@a+3,w
  3796     0319  043C               	iorwf	___fldiv@a+2,w
  3797     031A  043B               	iorwf	___fldiv@a+1,w
  3798     031B  043A               	iorwf	___fldiv@a,w
  3799     031C  1D03               	skipz
  3800     031D  2B1F               	goto	u1871
  3801     031E  2B20               	goto	u1870
  3802     031F                     u1871:
  3803     031F  2B39               	goto	l1604
  3804     0320                     u1870:
  3805     0320                     l1596:
  3806     0320  3000               	movlw	0
  3807     0321  00C1               	movwf	___fldiv@b+3
  3808     0322  3000               	movlw	0
  3809     0323  00C0               	movwf	___fldiv@b+2
  3810     0324  3000               	movlw	0
  3811     0325  00BF               	movwf	___fldiv@b+1
  3812     0326  3000               	movlw	0
  3813     0327  00BE               	movwf	___fldiv@b
  3814     0328  3080               	movlw	128
  3815     0329  04C0               	iorwf	___fldiv@b+2,f
  3816     032A  307F               	movlw	127
  3817     032B  04C1               	iorwf	___fldiv@b+3,f
  3818     032C                     l1598:
  3819     032C  084B               	movf	___fldiv@sign,w
  3820     032D  00C2               	movwf	??___fldiv
  3821     032E  0842               	movf	??___fldiv,w
  3822     032F  04C1               	iorwf	___fldiv@b+3,f
  3823     0330                     l1600:
  3824     0330  0841               	movf	___fldiv@b+3,w
  3825     0331  00BD               	movwf	?___fldiv+3
  3826     0332  0840               	movf	___fldiv@b+2,w
  3827     0333  00BC               	movwf	?___fldiv+2
  3828     0334  083F               	movf	___fldiv@b+1,w
  3829     0335  00BB               	movwf	?___fldiv+1
  3830     0336  083E               	movf	___fldiv@b,w
  3831     0337  00BA               	movwf	?___fldiv
  3832     0338  2C94               	goto	l555
  3833     0339                     l1604:
  3834     0339  0852               	movf	___fldiv@bexp,w
  3835     033A  1D03               	btfss	3,2
  3836     033B  2B3D               	goto	u1881
  3837     033C  2B3E               	goto	u1880
  3838     033D                     u1881:
  3839     033D  2B47               	goto	l1610
  3840     033E                     u1880:
  3841     033E                     l1606:
  3842     033E  3000               	movlw	0
  3843     033F  00BD               	movwf	?___fldiv+3
  3844     0340  3000               	movlw	0
  3845     0341  00BC               	movwf	?___fldiv+2
  3846     0342  3000               	movlw	0
  3847     0343  00BB               	movwf	?___fldiv+1
  3848     0344  3000               	movlw	0
  3849     0345  00BA               	movwf	?___fldiv
  3850     0346  2C94               	goto	l555
  3851     0347                     l1610:
  3852     0347  0852               	movf	___fldiv@bexp,w
  3853     0348  00C2               	movwf	??___fldiv
  3854     0349  01C3               	clrf	??___fldiv+1
  3855     034A  0843               	movf	??___fldiv+1,w
  3856     034B  00C5               	movwf	??___fldiv+3
  3857     034C  0853               	movf	___fldiv@aexp,w
  3858     034D  0242               	subwf	??___fldiv,w
  3859     034E  00C4               	movwf	??___fldiv+2
  3860     034F  1C03               	skipc
  3861     0350  03C5               	decf	??___fldiv+3,f
  3862     0351  0844               	movf	??___fldiv+2,w
  3863     0352  3E7F               	addlw	127
  3864     0353  00CC               	movwf	___fldiv@new_exp
  3865     0354  0845               	movf	??___fldiv+3,w
  3866     0355  1803               	skipnc
  3867     0356  3E01               	addlw	1
  3868     0357  3E00               	addlw	0
  3869     0358  00CD               	movwf	___fldiv@new_exp+1
  3870     0359                     l1612:
  3871     0359  0841               	movf	___fldiv@b+3,w
  3872     035A  00CA               	movwf	___fldiv@rem+3
  3873     035B  0840               	movf	___fldiv@b+2,w
  3874     035C  00C9               	movwf	___fldiv@rem+2
  3875     035D  083F               	movf	___fldiv@b+1,w
  3876     035E  00C8               	movwf	___fldiv@rem+1
  3877     035F  083E               	movf	___fldiv@b,w
  3878     0360  00C7               	movwf	___fldiv@rem
  3879     0361                     l1614:
  3880     0361  3000               	movlw	0
  3881     0362  00C1               	movwf	___fldiv@b+3
  3882     0363  3000               	movlw	0
  3883     0364  00C0               	movwf	___fldiv@b+2
  3884     0365  3000               	movlw	0
  3885     0366  00BF               	movwf	___fldiv@b+1
  3886     0367  3000               	movlw	0
  3887     0368  00BE               	movwf	___fldiv@b
  3888     0369                     l1616:
  3889     0369  3000               	movlw	0
  3890     036A  00D1               	movwf	___fldiv@grs+3
  3891     036B  3000               	movlw	0
  3892     036C  00D0               	movwf	___fldiv@grs+2
  3893     036D  3000               	movlw	0
  3894     036E  00CF               	movwf	___fldiv@grs+1
  3895     036F  3000               	movlw	0
  3896     0370  00CE               	movwf	___fldiv@grs
  3897     0371                     l1618:
  3898     0371  01D3               	clrf	___fldiv@aexp
  3899     0372  2BBD               	goto	l1638
  3900     0373                     l1620:
  3901     0373  0853               	movf	___fldiv@aexp,w
  3902     0374  1903               	btfsc	3,2
  3903     0375  2B77               	goto	u1891
  3904     0376  2B78               	goto	u1890
  3905     0377                     u1891:
  3906     0377  2B98               	goto	l1630
  3907     0378                     u1890:
  3908     0378                     l1622:
  3909     0378  3001               	movlw	1
  3910     0379  00C2               	movwf	??___fldiv
  3911     037A                     u1905:
  3912     037A  1003               	clrc
  3913     037B  0DC7               	rlf	___fldiv@rem,f
  3914     037C  0DC8               	rlf	___fldiv@rem+1,f
  3915     037D  0DC9               	rlf	___fldiv@rem+2,f
  3916     037E  0DCA               	rlf	___fldiv@rem+3,f
  3917     037F  0BC2               	decfsz	??___fldiv,f
  3918     0380  2B7A               	goto	u1905
  3919     0381  3001               	movlw	1
  3920     0382  00C2               	movwf	??___fldiv
  3921     0383                     u1915:
  3922     0383  1003               	clrc
  3923     0384  0DBE               	rlf	___fldiv@b,f
  3924     0385  0DBF               	rlf	___fldiv@b+1,f
  3925     0386  0DC0               	rlf	___fldiv@b+2,f
  3926     0387  0DC1               	rlf	___fldiv@b+3,f
  3927     0388  0BC2               	decfsz	??___fldiv,f
  3928     0389  2B83               	goto	u1915
  3929     038A                     l1624:
  3930     038A  1FD1               	btfss	___fldiv@grs+3,7
  3931     038B  2B8D               	goto	u1921
  3932     038C  2B8E               	goto	u1920
  3933     038D                     u1921:
  3934     038D  2B8F               	goto	l1628
  3935     038E                     u1920:
  3936     038E                     l1626:
  3937     038E  143E               	bsf	___fldiv@b,0
  3938     038F                     l1628:
  3939     038F  3001               	movlw	1
  3940     0390  00C2               	movwf	??___fldiv
  3941     0391                     u1935:
  3942     0391  1003               	clrc
  3943     0392  0DCE               	rlf	___fldiv@grs,f
  3944     0393  0DCF               	rlf	___fldiv@grs+1,f
  3945     0394  0DD0               	rlf	___fldiv@grs+2,f
  3946     0395  0DD1               	rlf	___fldiv@grs+3,f
  3947     0396  0BC2               	decfsz	??___fldiv,f
  3948     0397  2B91               	goto	u1935
  3949     0398                     l1630:
  3950     0398  083D               	movf	___fldiv@a+3,w
  3951     0399  024A               	subwf	___fldiv@rem+3,w
  3952     039A  1D03               	skipz
  3953     039B  2BA6               	goto	u1945
  3954     039C  083C               	movf	___fldiv@a+2,w
  3955     039D  0249               	subwf	___fldiv@rem+2,w
  3956     039E  1D03               	skipz
  3957     039F  2BA6               	goto	u1945
  3958     03A0  083B               	movf	___fldiv@a+1,w
  3959     03A1  0248               	subwf	___fldiv@rem+1,w
  3960     03A2  1D03               	skipz
  3961     03A3  2BA6               	goto	u1945
  3962     03A4  083A               	movf	___fldiv@a,w
  3963     03A5  0247               	subwf	___fldiv@rem,w
  3964     03A6                     u1945:
  3965     03A6  1C03               	skipc
  3966     03A7  2BA9               	goto	u1941
  3967     03A8  2BAA               	goto	u1940
  3968     03A9                     u1941:
  3969     03A9  2BB9               	goto	l1636
  3970     03AA                     u1940:
  3971     03AA                     l1632:
  3972     03AA  1751               	bsf	___fldiv@grs+3,6
  3973     03AB                     l1634:
  3974     03AB  083A               	movf	___fldiv@a,w
  3975     03AC  02C7               	subwf	___fldiv@rem,f
  3976     03AD  083B               	movf	___fldiv@a+1,w
  3977     03AE  1C03               	skipc
  3978     03AF  0F3B               	incfsz	___fldiv@a+1,w
  3979     03B0  02C8               	subwf	___fldiv@rem+1,f
  3980     03B1  083C               	movf	___fldiv@a+2,w
  3981     03B2  1C03               	skipc
  3982     03B3  0F3C               	incfsz	___fldiv@a+2,w
  3983     03B4  02C9               	subwf	___fldiv@rem+2,f
  3984     03B5  083D               	movf	___fldiv@a+3,w
  3985     03B6  1C03               	skipc
  3986     03B7  0F3D               	incfsz	___fldiv@a+3,w
  3987     03B8  02CA               	subwf	___fldiv@rem+3,f
  3988     03B9                     l1636:
  3989     03B9  3001               	movlw	1
  3990     03BA  00C2               	movwf	??___fldiv
  3991     03BB  0842               	movf	??___fldiv,w
  3992     03BC  07D3               	addwf	___fldiv@aexp,f
  3993     03BD                     l1638:
  3994     03BD  301A               	movlw	26
  3995     03BE  0253               	subwf	___fldiv@aexp,w
  3996     03BF  1C03               	skipc
  3997     03C0  2BC2               	goto	u1951
  3998     03C1  2BC3               	goto	u1950
  3999     03C2                     u1951:
  4000     03C2  2B73               	goto	l1620
  4001     03C3                     u1950:
  4002     03C3                     l1640:
  4003     03C3  084A               	movf	___fldiv@rem+3,w
  4004     03C4  0449               	iorwf	___fldiv@rem+2,w
  4005     03C5  0448               	iorwf	___fldiv@rem+1,w
  4006     03C6  0447               	iorwf	___fldiv@rem,w
  4007     03C7  1903               	skipnz
  4008     03C8  2BCA               	goto	u1961
  4009     03C9  2BCB               	goto	u1960
  4010     03CA                     u1961:
  4011     03CA  2BEA               	goto	l1654
  4012     03CB                     u1960:
  4013     03CB                     l1642:
  4014     03CB  144E               	bsf	___fldiv@grs,0
  4015     03CC  2BEA               	goto	l1654
  4016     03CD                     l1644:
  4017     03CD  3001               	movlw	1
  4018     03CE  00C2               	movwf	??___fldiv
  4019     03CF                     u1975:
  4020     03CF  1003               	clrc
  4021     03D0  0DBE               	rlf	___fldiv@b,f
  4022     03D1  0DBF               	rlf	___fldiv@b+1,f
  4023     03D2  0DC0               	rlf	___fldiv@b+2,f
  4024     03D3  0DC1               	rlf	___fldiv@b+3,f
  4025     03D4  0BC2               	decfsz	??___fldiv,f
  4026     03D5  2BCF               	goto	u1975
  4027     03D6                     l1646:
  4028     03D6  1FD1               	btfss	___fldiv@grs+3,7
  4029     03D7  2BD9               	goto	u1981
  4030     03D8  2BDA               	goto	u1980
  4031     03D9                     u1981:
  4032     03D9  2BDB               	goto	l1650
  4033     03DA                     u1980:
  4034     03DA                     l1648:
  4035     03DA  143E               	bsf	___fldiv@b,0
  4036     03DB                     l1650:
  4037     03DB  3001               	movlw	1
  4038     03DC  00C2               	movwf	??___fldiv
  4039     03DD                     u1995:
  4040     03DD  1003               	clrc
  4041     03DE  0DCE               	rlf	___fldiv@grs,f
  4042     03DF  0DCF               	rlf	___fldiv@grs+1,f
  4043     03E0  0DD0               	rlf	___fldiv@grs+2,f
  4044     03E1  0DD1               	rlf	___fldiv@grs+3,f
  4045     03E2  0BC2               	decfsz	??___fldiv,f
  4046     03E3  2BDD               	goto	u1995
  4047     03E4                     l1652:
  4048     03E4  30FF               	movlw	255
  4049     03E5  07CC               	addwf	___fldiv@new_exp,f
  4050     03E6  1803               	skipnc
  4051     03E7  0ACD               	incf	___fldiv@new_exp+1,f
  4052     03E8  30FF               	movlw	255
  4053     03E9  07CD               	addwf	___fldiv@new_exp+1,f
  4054     03EA                     l1654:
  4055     03EA  1FC0               	btfss	___fldiv@b+2,7
  4056     03EB  2BED               	goto	u2001
  4057     03EC  2BEE               	goto	u2000
  4058     03ED                     u2001:
  4059     03ED  2BCD               	goto	l1644
  4060     03EE                     u2000:
  4061     03EE                     l1656:
  4062     03EE  01D3               	clrf	___fldiv@aexp
  4063     03EF                     l1658:
  4064     03EF  1FD1               	btfss	___fldiv@grs+3,7
  4065     03F0  2BF2               	goto	u2011
  4066     03F1  2BF3               	goto	u2010
  4067     03F2                     u2011:
  4068     03F2  2C0F               	goto	l1666
  4069     03F3                     u2010:
  4070     03F3                     l1660:
  4071     03F3  30FF               	movlw	255
  4072     03F4  054E               	andwf	___fldiv@grs,w
  4073     03F5  00C2               	movwf	??___fldiv
  4074     03F6  30FF               	movlw	255
  4075     03F7  054F               	andwf	___fldiv@grs+1,w
  4076     03F8  00C3               	movwf	??___fldiv+1
  4077     03F9  30FF               	movlw	255
  4078     03FA  0550               	andwf	___fldiv@grs+2,w
  4079     03FB  00C4               	movwf	??___fldiv+2
  4080     03FC  307F               	movlw	127
  4081     03FD  0551               	andwf	___fldiv@grs+3,w
  4082     03FE  00C5               	movwf	??___fldiv+3
  4083     03FF  0845               	movf	??___fldiv+3,w
  4084     0400  0444               	iorwf	??___fldiv+2,w
  4085     0401  0443               	iorwf	??___fldiv+1,w
  4086     0402  0442               	iorwf	??___fldiv,w
  4087     0403  1903               	skipnz
  4088     0404  2C06               	goto	u2021
  4089     0405  2C07               	goto	u2020
  4090     0406                     u2021:
  4091     0406  2C0A               	goto	l569
  4092     0407                     u2020:
  4093     0407                     l1662:
  4094     0407  01D3               	clrf	___fldiv@aexp
  4095     0408  0AD3               	incf	___fldiv@aexp,f
  4096     0409  2C0F               	goto	l1666
  4097     040A                     l569:
  4098     040A  1C3E               	btfss	___fldiv@b,0
  4099     040B  2C0D               	goto	u2031
  4100     040C  2C0E               	goto	u2030
  4101     040D                     u2031:
  4102     040D  2C0F               	goto	l1666
  4103     040E                     u2030:
  4104     040E  2C07               	goto	l1662
  4105     040F                     l1666:
  4106     040F  0853               	movf	___fldiv@aexp,w
  4107     0410  1903               	btfsc	3,2
  4108     0411  2C13               	goto	u2041
  4109     0412  2C14               	goto	u2040
  4110     0413                     u2041:
  4111     0413  2C45               	goto	l1676
  4112     0414                     u2040:
  4113     0414                     l1668:
  4114     0414  3001               	movlw	1
  4115     0415  07BE               	addwf	___fldiv@b,f
  4116     0416  3000               	movlw	0
  4117     0417  1803               	skipnc
  4118     0418  3001               	movlw	1
  4119     0419  07BF               	addwf	___fldiv@b+1,f
  4120     041A  3000               	movlw	0
  4121     041B  1803               	skipnc
  4122     041C  3001               	movlw	1
  4123     041D  07C0               	addwf	___fldiv@b+2,f
  4124     041E  3000               	movlw	0
  4125     041F  1803               	skipnc
  4126     0420  3001               	movlw	1
  4127     0421  07C1               	addwf	___fldiv@b+3,f
  4128     0422                     l1670:
  4129     0422  1C41               	btfss	___fldiv@b+3,0
  4130     0423  2C25               	goto	u2051
  4131     0424  2C26               	goto	u2050
  4132     0425                     u2051:
  4133     0425  2C45               	goto	l1676
  4134     0426                     u2050:
  4135     0426                     l1672:
  4136     0426  083E               	movf	___fldiv@b,w
  4137     0427  00C2               	movwf	??___fldiv
  4138     0428  083F               	movf	___fldiv@b+1,w
  4139     0429  00C3               	movwf	??___fldiv+1
  4140     042A  0840               	movf	___fldiv@b+2,w
  4141     042B  00C4               	movwf	??___fldiv+2
  4142     042C  0841               	movf	___fldiv@b+3,w
  4143     042D  00C5               	movwf	??___fldiv+3
  4144     042E  3001               	movlw	1
  4145     042F  00C6               	movwf	??___fldiv+4
  4146     0430                     u2065:
  4147     0430  0D45               	rlf	??___fldiv+3,w
  4148     0431  0CC5               	rrf	??___fldiv+3,f
  4149     0432  0CC4               	rrf	??___fldiv+2,f
  4150     0433  0CC3               	rrf	??___fldiv+1,f
  4151     0434  0CC2               	rrf	??___fldiv,f
  4152     0435                     u2060:
  4153     0435  0BC6               	decfsz	??___fldiv+4,f
  4154     0436  2C30               	goto	u2065
  4155     0437  0845               	movf	??___fldiv+3,w
  4156     0438  00C1               	movwf	___fldiv@b+3
  4157     0439  0844               	movf	??___fldiv+2,w
  4158     043A  00C0               	movwf	___fldiv@b+2
  4159     043B  0843               	movf	??___fldiv+1,w
  4160     043C  00BF               	movwf	___fldiv@b+1
  4161     043D  0842               	movf	??___fldiv,w
  4162     043E  00BE               	movwf	___fldiv@b
  4163     043F                     l1674:
  4164     043F  3001               	movlw	1
  4165     0440  07CC               	addwf	___fldiv@new_exp,f
  4166     0441  1803               	skipnc
  4167     0442  0ACD               	incf	___fldiv@new_exp+1,f
  4168     0443  3000               	movlw	0
  4169     0444  07CD               	addwf	___fldiv@new_exp+1,f
  4170     0445                     l1676:
  4171     0445  084D               	movf	___fldiv@new_exp+1,w
  4172     0446  3A80               	xorlw	128
  4173     0447  00FF               	movwf	btemp+1
  4174     0448  3080               	movlw	128
  4175     0449  027F               	subwf	btemp+1,w
  4176     044A  1D03               	skipz
  4177     044B  2C4E               	goto	u2075
  4178     044C  30FF               	movlw	255
  4179     044D  024C               	subwf	___fldiv@new_exp,w
  4180     044E                     u2075:
  4181     044E  1C03               	skipc
  4182     044F  2C51               	goto	u2071
  4183     0450  2C52               	goto	u2070
  4184     0451                     u2071:
  4185     0451  2C60               	goto	l1680
  4186     0452                     u2070:
  4187     0452                     l1678:
  4188     0452  30FF               	movlw	255
  4189     0453  1283               	bcf	3,5	;RP0=0, select bank0
  4190     0454  1303               	bcf	3,6	;RP1=0, select bank0
  4191     0455  00CC               	movwf	___fldiv@new_exp
  4192     0456  3000               	movlw	0
  4193     0457  00CD               	movwf	___fldiv@new_exp+1
  4194     0458  3000               	movlw	0
  4195     0459  00C1               	movwf	___fldiv@b+3
  4196     045A  3000               	movlw	0
  4197     045B  00C0               	movwf	___fldiv@b+2
  4198     045C  3000               	movlw	0
  4199     045D  00BF               	movwf	___fldiv@b+1
  4200     045E  3000               	movlw	0
  4201     045F  00BE               	movwf	___fldiv@b
  4202     0460                     l1680:
  4203     0460  1283               	bcf	3,5	;RP0=0, select bank0
  4204     0461  1303               	bcf	3,6	;RP1=0, select bank0
  4205     0462  084D               	movf	___fldiv@new_exp+1,w
  4206     0463  3A80               	xorlw	128
  4207     0464  00FF               	movwf	btemp+1
  4208     0465  3080               	movlw	128
  4209     0466  027F               	subwf	btemp+1,w
  4210     0467  1D03               	skipz
  4211     0468  2C6B               	goto	u2085
  4212     0469  3001               	movlw	1
  4213     046A  024C               	subwf	___fldiv@new_exp,w
  4214     046B                     u2085:
  4215     046B  1803               	skipnc
  4216     046C  2C6E               	goto	u2081
  4217     046D  2C6F               	goto	u2080
  4218     046E                     u2081:
  4219     046E  2C7C               	goto	l575
  4220     046F                     u2080:
  4221     046F                     l1682:
  4222     046F  1283               	bcf	3,5	;RP0=0, select bank0
  4223     0470  1303               	bcf	3,6	;RP1=0, select bank0
  4224     0471  01CC               	clrf	___fldiv@new_exp
  4225     0472  01CD               	clrf	___fldiv@new_exp+1
  4226     0473                     l1684:
  4227     0473  3000               	movlw	0
  4228     0474  00C1               	movwf	___fldiv@b+3
  4229     0475  3000               	movlw	0
  4230     0476  00C0               	movwf	___fldiv@b+2
  4231     0477  3000               	movlw	0
  4232     0478  00BF               	movwf	___fldiv@b+1
  4233     0479  3000               	movlw	0
  4234     047A  00BE               	movwf	___fldiv@b
  4235     047B                     l1686:
  4236     047B  01CB               	clrf	___fldiv@sign
  4237     047C                     l575:
  4238     047C  1283               	bcf	3,5	;RP0=0, select bank0
  4239     047D  1303               	bcf	3,6	;RP1=0, select bank0
  4240     047E  084C               	movf	___fldiv@new_exp,w
  4241     047F  00D2               	movwf	___fldiv@bexp
  4242     0480                     l1688:
  4243     0480  1C52               	btfss	___fldiv@bexp,0
  4244     0481  2C83               	goto	u2091
  4245     0482  2C84               	goto	u2090
  4246     0483                     u2091:
  4247     0483  2C86               	goto	l1692
  4248     0484                     u2090:
  4249     0484                     l1690:
  4250     0484  17C0               	bsf	___fldiv@b+2,7
  4251     0485  2C8A               	goto	l577
  4252     0486                     l1692:
  4253     0486  307F               	movlw	127
  4254     0487  00C2               	movwf	??___fldiv
  4255     0488  0842               	movf	??___fldiv,w
  4256     0489  05C0               	andwf	___fldiv@b+2,f
  4257     048A                     l577:
  4258     048A  0852               	movf	___fldiv@bexp,w
  4259     048B  00C2               	movwf	??___fldiv
  4260     048C  1003               	clrc
  4261     048D  0C42               	rrf	??___fldiv,w
  4262     048E  00C1               	movwf	___fldiv@b+3
  4263     048F  084B               	movf	___fldiv@sign,w
  4264     0490  00C2               	movwf	??___fldiv
  4265     0491  0842               	movf	??___fldiv,w
  4266     0492  04C1               	iorwf	___fldiv@b+3,f
  4267     0493  2B30               	goto	l1600
  4268     0494                     l555:
  4269     0494  0008               	return
  4270     0495                     __end_of___fldiv:
  4271                           
  4272                           	psect	text14
  4273     0E39                     __ptext14:	
  4274 ;; *************** function ___awmod *****************
  4275 ;; Defined at:
  4276 ;;		line 5 in file "C:\Program Files\Microchip\xc8\v2.40\pic\sources\c90\common\awmod.c"
  4277 ;; Parameters:    Size  Location     Type
  4278 ;;  divisor         2    9[COMMON] int 
  4279 ;;  dividend        2   11[COMMON] int 
  4280 ;; Auto vars:     Size  Location     Type
  4281 ;;  sign            1    1[BANK0 ] unsigned char 
  4282 ;;  counter         1    0[BANK0 ] unsigned char 
  4283 ;; Return value:  Size  Location     Type
  4284 ;;                  2    9[COMMON] int 
  4285 ;; Registers used:
  4286 ;;		wreg, status,2, status,0
  4287 ;; Tracked objects:
  4288 ;;		On entry : 0/0
  4289 ;;		On exit  : 0/0
  4290 ;;		Unchanged: 0/0
  4291 ;; Data sizes:     COMMON   BANK0   BANK1   BANK3   BANK2
  4292 ;;      Params:         4       0       0       0       0
  4293 ;;      Locals:         0       2       0       0       0
  4294 ;;      Temps:          1       0       0       0       0
  4295 ;;      Totals:         5       2       0       0       0
  4296 ;;Total ram usage:        7 bytes
  4297 ;; Hardware stack levels used: 1
  4298 ;; This function calls:
  4299 ;;		Nothing
  4300 ;; This function is called by:
  4301 ;;		_adc
  4302 ;;		_temp_compare
  4303 ;; This function uses a non-reentrant model
  4304 ;;
  4305                           
  4306     0E39                     ___awmod:	
  4307                           ;psect for function ___awmod
  4308                           
  4309     0E39                     l1426:	
  4310                           ;incstack = 0
  4311                           ; Regs used in ___awmod: [wreg+status,2+status,0]
  4312                           
  4313     0E39  1283               	bcf	3,5	;RP0=0, select bank0
  4314     0E3A  1303               	bcf	3,6	;RP1=0, select bank0
  4315     0E3B  01A1               	clrf	___awmod@sign
  4316     0E3C                     l1428:
  4317     0E3C  1FFC               	btfss	___awmod@dividend+1,7
  4318     0E3D  2E3F               	goto	u1531
  4319     0E3E  2E40               	goto	u1530
  4320     0E3F                     u1531:
  4321     0E3F  2E47               	goto	l1434
  4322     0E40                     u1530:
  4323     0E40                     l1430:
  4324     0E40  09FB               	comf	___awmod@dividend,f
  4325     0E41  09FC               	comf	___awmod@dividend+1,f
  4326     0E42  0AFB               	incf	___awmod@dividend,f
  4327     0E43  1903               	skipnz
  4328     0E44  0AFC               	incf	___awmod@dividend+1,f
  4329     0E45                     l1432:
  4330     0E45  01A1               	clrf	___awmod@sign
  4331     0E46  0AA1               	incf	___awmod@sign,f
  4332     0E47                     l1434:
  4333     0E47  1FFA               	btfss	___awmod@divisor+1,7
  4334     0E48  2E4A               	goto	u1541
  4335     0E49  2E4B               	goto	u1540
  4336     0E4A                     u1541:
  4337     0E4A  2E50               	goto	l1438
  4338     0E4B                     u1540:
  4339     0E4B                     l1436:
  4340     0E4B  09F9               	comf	___awmod@divisor,f
  4341     0E4C  09FA               	comf	___awmod@divisor+1,f
  4342     0E4D  0AF9               	incf	___awmod@divisor,f
  4343     0E4E  1903               	skipnz
  4344     0E4F  0AFA               	incf	___awmod@divisor+1,f
  4345     0E50                     l1438:
  4346     0E50  0879               	movf	___awmod@divisor,w
  4347     0E51  047A               	iorwf	___awmod@divisor+1,w
  4348     0E52  1903               	btfsc	3,2
  4349     0E53  2E55               	goto	u1551
  4350     0E54  2E56               	goto	u1550
  4351     0E55                     u1551:
  4352     0E55  2E85               	goto	l1456
  4353     0E56                     u1550:
  4354     0E56                     l1440:
  4355     0E56  01A0               	clrf	___awmod@counter
  4356     0E57  0AA0               	incf	___awmod@counter,f
  4357     0E58  2E64               	goto	l1446
  4358     0E59                     l1442:
  4359     0E59  3001               	movlw	1
  4360     0E5A                     u1565:
  4361     0E5A  1003               	clrc
  4362     0E5B  0DF9               	rlf	___awmod@divisor,f
  4363     0E5C  0DFA               	rlf	___awmod@divisor+1,f
  4364     0E5D  3EFF               	addlw	-1
  4365     0E5E  1D03               	skipz
  4366     0E5F  2E5A               	goto	u1565
  4367     0E60                     l1444:
  4368     0E60  3001               	movlw	1
  4369     0E61  00FD               	movwf	??___awmod
  4370     0E62  087D               	movf	??___awmod,w
  4371     0E63  07A0               	addwf	___awmod@counter,f
  4372     0E64                     l1446:
  4373     0E64  1FFA               	btfss	___awmod@divisor+1,7
  4374     0E65  2E67               	goto	u1571
  4375     0E66  2E68               	goto	u1570
  4376     0E67                     u1571:
  4377     0E67  2E59               	goto	l1442
  4378     0E68                     u1570:
  4379     0E68                     l1448:
  4380     0E68  087A               	movf	___awmod@divisor+1,w
  4381     0E69  027C               	subwf	___awmod@dividend+1,w
  4382     0E6A  1D03               	skipz
  4383     0E6B  2E6E               	goto	u1585
  4384     0E6C  0879               	movf	___awmod@divisor,w
  4385     0E6D  027B               	subwf	___awmod@dividend,w
  4386     0E6E                     u1585:
  4387     0E6E  1C03               	skipc
  4388     0E6F  2E71               	goto	u1581
  4389     0E70  2E72               	goto	u1580
  4390     0E71                     u1581:
  4391     0E71  2E78               	goto	l1452
  4392     0E72                     u1580:
  4393     0E72                     l1450:
  4394     0E72  0879               	movf	___awmod@divisor,w
  4395     0E73  02FB               	subwf	___awmod@dividend,f
  4396     0E74  087A               	movf	___awmod@divisor+1,w
  4397     0E75  1C03               	skipc
  4398     0E76  03FC               	decf	___awmod@dividend+1,f
  4399     0E77  02FC               	subwf	___awmod@dividend+1,f
  4400     0E78                     l1452:
  4401     0E78  3001               	movlw	1
  4402     0E79                     u1595:
  4403     0E79  1003               	clrc
  4404     0E7A  0CFA               	rrf	___awmod@divisor+1,f
  4405     0E7B  0CF9               	rrf	___awmod@divisor,f
  4406     0E7C  3EFF               	addlw	-1
  4407     0E7D  1D03               	skipz
  4408     0E7E  2E79               	goto	u1595
  4409     0E7F                     l1454:
  4410     0E7F  3001               	movlw	1
  4411     0E80  02A0               	subwf	___awmod@counter,f
  4412     0E81  1D03               	btfss	3,2
  4413     0E82  2E84               	goto	u1601
  4414     0E83  2E85               	goto	u1600
  4415     0E84                     u1601:
  4416     0E84  2E68               	goto	l1448
  4417     0E85                     u1600:
  4418     0E85                     l1456:
  4419     0E85  0821               	movf	___awmod@sign,w
  4420     0E86  1903               	btfsc	3,2
  4421     0E87  2E89               	goto	u1611
  4422     0E88  2E8A               	goto	u1610
  4423     0E89                     u1611:
  4424     0E89  2E8F               	goto	l1460
  4425     0E8A                     u1610:
  4426     0E8A                     l1458:
  4427     0E8A  09FB               	comf	___awmod@dividend,f
  4428     0E8B  09FC               	comf	___awmod@dividend+1,f
  4429     0E8C  0AFB               	incf	___awmod@dividend,f
  4430     0E8D  1903               	skipnz
  4431     0E8E  0AFC               	incf	___awmod@dividend+1,f
  4432     0E8F                     l1460:
  4433     0E8F  087C               	movf	___awmod@dividend+1,w
  4434     0E90  00FA               	movwf	?___awmod+1
  4435     0E91  087B               	movf	___awmod@dividend,w
  4436     0E92  00F9               	movwf	?___awmod
  4437     0E93                     l370:
  4438     0E93  0008               	return
  4439     0E94                     __end_of___awmod:
  4440                           
  4441                           	psect	text15
  4442     0E94                     __ptext15:	
  4443 ;; *************** function ___awdiv *****************
  4444 ;; Defined at:
  4445 ;;		line 5 in file "C:\Program Files\Microchip\xc8\v2.40\pic\sources\c90\common\awdiv.c"
  4446 ;; Parameters:    Size  Location     Type
  4447 ;;  divisor         2    0[COMMON] int 
  4448 ;;  dividend        2    2[COMMON] int 
  4449 ;; Auto vars:     Size  Location     Type
  4450 ;;  quotient        2    7[COMMON] int 
  4451 ;;  sign            1    6[COMMON] unsigned char 
  4452 ;;  counter         1    5[COMMON] unsigned char 
  4453 ;; Return value:  Size  Location     Type
  4454 ;;                  2    0[COMMON] int 
  4455 ;; Registers used:
  4456 ;;		wreg, status,2, status,0
  4457 ;; Tracked objects:
  4458 ;;		On entry : 0/0
  4459 ;;		On exit  : 0/0
  4460 ;;		Unchanged: 0/0
  4461 ;; Data sizes:     COMMON   BANK0   BANK1   BANK3   BANK2
  4462 ;;      Params:         4       0       0       0       0
  4463 ;;      Locals:         4       0       0       0       0
  4464 ;;      Temps:          1       0       0       0       0
  4465 ;;      Totals:         9       0       0       0       0
  4466 ;;Total ram usage:        9 bytes
  4467 ;; Hardware stack levels used: 1
  4468 ;; This function calls:
  4469 ;;		Nothing
  4470 ;; This function is called by:
  4471 ;;		_adc
  4472 ;;		_temp_compare
  4473 ;; This function uses a non-reentrant model
  4474 ;;
  4475                           
  4476     0E94                     ___awdiv:	
  4477                           ;psect for function ___awdiv
  4478                           
  4479     0E94                     l1382:	
  4480                           ;incstack = 0
  4481                           ; Regs used in ___awdiv: [wreg+status,2+status,0]
  4482                           
  4483     0E94  01F6               	clrf	___awdiv@sign
  4484     0E95                     l1384:
  4485     0E95  1FF1               	btfss	___awdiv@divisor+1,7
  4486     0E96  2E98               	goto	u1431
  4487     0E97  2E99               	goto	u1430
  4488     0E98                     u1431:
  4489     0E98  2EA0               	goto	l1390
  4490     0E99                     u1430:
  4491     0E99                     l1386:
  4492     0E99  09F0               	comf	___awdiv@divisor,f
  4493     0E9A  09F1               	comf	___awdiv@divisor+1,f
  4494     0E9B  0AF0               	incf	___awdiv@divisor,f
  4495     0E9C  1903               	skipnz
  4496     0E9D  0AF1               	incf	___awdiv@divisor+1,f
  4497     0E9E                     l1388:
  4498     0E9E  01F6               	clrf	___awdiv@sign
  4499     0E9F  0AF6               	incf	___awdiv@sign,f
  4500     0EA0                     l1390:
  4501     0EA0  1FF3               	btfss	___awdiv@dividend+1,7
  4502     0EA1  2EA3               	goto	u1441
  4503     0EA2  2EA4               	goto	u1440
  4504     0EA3                     u1441:
  4505     0EA3  2EAD               	goto	l1396
  4506     0EA4                     u1440:
  4507     0EA4                     l1392:
  4508     0EA4  09F2               	comf	___awdiv@dividend,f
  4509     0EA5  09F3               	comf	___awdiv@dividend+1,f
  4510     0EA6  0AF2               	incf	___awdiv@dividend,f
  4511     0EA7  1903               	skipnz
  4512     0EA8  0AF3               	incf	___awdiv@dividend+1,f
  4513     0EA9                     l1394:
  4514     0EA9  3001               	movlw	1
  4515     0EAA  00F4               	movwf	??___awdiv
  4516     0EAB  0874               	movf	??___awdiv,w
  4517     0EAC  06F6               	xorwf	___awdiv@sign,f
  4518     0EAD                     l1396:
  4519     0EAD  01F7               	clrf	___awdiv@quotient
  4520     0EAE  01F8               	clrf	___awdiv@quotient+1
  4521     0EAF                     l1398:
  4522     0EAF  0870               	movf	___awdiv@divisor,w
  4523     0EB0  0471               	iorwf	___awdiv@divisor+1,w
  4524     0EB1  1903               	btfsc	3,2
  4525     0EB2  2EB4               	goto	u1451
  4526     0EB3  2EB5               	goto	u1450
  4527     0EB4                     u1451:
  4528     0EB4  2EEC               	goto	l1418
  4529     0EB5                     u1450:
  4530     0EB5                     l1400:
  4531     0EB5  01F5               	clrf	___awdiv@counter
  4532     0EB6  0AF5               	incf	___awdiv@counter,f
  4533     0EB7  2EC3               	goto	l1406
  4534     0EB8                     l1402:
  4535     0EB8  3001               	movlw	1
  4536     0EB9                     u1465:
  4537     0EB9  1003               	clrc
  4538     0EBA  0DF0               	rlf	___awdiv@divisor,f
  4539     0EBB  0DF1               	rlf	___awdiv@divisor+1,f
  4540     0EBC  3EFF               	addlw	-1
  4541     0EBD  1D03               	skipz
  4542     0EBE  2EB9               	goto	u1465
  4543     0EBF                     l1404:
  4544     0EBF  3001               	movlw	1
  4545     0EC0  00F4               	movwf	??___awdiv
  4546     0EC1  0874               	movf	??___awdiv,w
  4547     0EC2  07F5               	addwf	___awdiv@counter,f
  4548     0EC3                     l1406:
  4549     0EC3  1FF1               	btfss	___awdiv@divisor+1,7
  4550     0EC4  2EC6               	goto	u1471
  4551     0EC5  2EC7               	goto	u1470
  4552     0EC6                     u1471:
  4553     0EC6  2EB8               	goto	l1402
  4554     0EC7                     u1470:
  4555     0EC7                     l1408:
  4556     0EC7  3001               	movlw	1
  4557     0EC8                     u1485:
  4558     0EC8  1003               	clrc
  4559     0EC9  0DF7               	rlf	___awdiv@quotient,f
  4560     0ECA  0DF8               	rlf	___awdiv@quotient+1,f
  4561     0ECB  3EFF               	addlw	-1
  4562     0ECC  1D03               	skipz
  4563     0ECD  2EC8               	goto	u1485
  4564     0ECE  0871               	movf	___awdiv@divisor+1,w
  4565     0ECF  0273               	subwf	___awdiv@dividend+1,w
  4566     0ED0  1D03               	skipz
  4567     0ED1  2ED4               	goto	u1495
  4568     0ED2  0870               	movf	___awdiv@divisor,w
  4569     0ED3  0272               	subwf	___awdiv@dividend,w
  4570     0ED4                     u1495:
  4571     0ED4  1C03               	skipc
  4572     0ED5  2ED7               	goto	u1491
  4573     0ED6  2ED8               	goto	u1490
  4574     0ED7                     u1491:
  4575     0ED7  2EDF               	goto	l1414
  4576     0ED8                     u1490:
  4577     0ED8                     l1410:
  4578     0ED8  0870               	movf	___awdiv@divisor,w
  4579     0ED9  02F2               	subwf	___awdiv@dividend,f
  4580     0EDA  0871               	movf	___awdiv@divisor+1,w
  4581     0EDB  1C03               	skipc
  4582     0EDC  03F3               	decf	___awdiv@dividend+1,f
  4583     0EDD  02F3               	subwf	___awdiv@dividend+1,f
  4584     0EDE                     l1412:
  4585     0EDE  1477               	bsf	___awdiv@quotient,0
  4586     0EDF                     l1414:
  4587     0EDF  3001               	movlw	1
  4588     0EE0                     u1505:
  4589     0EE0  1003               	clrc
  4590     0EE1  0CF1               	rrf	___awdiv@divisor+1,f
  4591     0EE2  0CF0               	rrf	___awdiv@divisor,f
  4592     0EE3  3EFF               	addlw	-1
  4593     0EE4  1D03               	skipz
  4594     0EE5  2EE0               	goto	u1505
  4595     0EE6                     l1416:
  4596     0EE6  3001               	movlw	1
  4597     0EE7  02F5               	subwf	___awdiv@counter,f
  4598     0EE8  1D03               	btfss	3,2
  4599     0EE9  2EEB               	goto	u1511
  4600     0EEA  2EEC               	goto	u1510
  4601     0EEB                     u1511:
  4602     0EEB  2EC7               	goto	l1408
  4603     0EEC                     u1510:
  4604     0EEC                     l1418:
  4605     0EEC  0876               	movf	___awdiv@sign,w
  4606     0EED  1903               	btfsc	3,2
  4607     0EEE  2EF0               	goto	u1521
  4608     0EEF  2EF1               	goto	u1520
  4609     0EF0                     u1521:
  4610     0EF0  2EF6               	goto	l1422
  4611     0EF1                     u1520:
  4612     0EF1                     l1420:
  4613     0EF1  09F7               	comf	___awdiv@quotient,f
  4614     0EF2  09F8               	comf	___awdiv@quotient+1,f
  4615     0EF3  0AF7               	incf	___awdiv@quotient,f
  4616     0EF4  1903               	skipnz
  4617     0EF5  0AF8               	incf	___awdiv@quotient+1,f
  4618     0EF6                     l1422:
  4619     0EF6  0878               	movf	___awdiv@quotient+1,w
  4620     0EF7  00F1               	movwf	?___awdiv+1
  4621     0EF8  0877               	movf	___awdiv@quotient,w
  4622     0EF9  00F0               	movwf	?___awdiv
  4623     0EFA                     l357:
  4624     0EFA  0008               	return
  4625     0EFB                     __end_of___awdiv:
  4626     007E                     btemp	set	126	;btemp
  4627     007E                     wtemp0	set	126
  4628                           
  4629                           	psect	idloc
  4630                           
  4631                           ;Config register IDLOC0 @ 0x2000
  4632                           ;	unspecified, using default values
  4633     2000                     	org	8192
  4634     2000  3FFF               	dw	16383
  4635                           
  4636                           ;Config register IDLOC1 @ 0x2001
  4637                           ;	unspecified, using default values
  4638     2001                     	org	8193
  4639     2001  3FFF               	dw	16383
  4640                           
  4641                           ;Config register IDLOC2 @ 0x2002
  4642                           ;	unspecified, using default values
  4643     2002                     	org	8194
  4644     2002  3FFF               	dw	16383
  4645                           
  4646                           ;Config register IDLOC3 @ 0x2003
  4647                           ;	unspecified, using default values
  4648     2003                     	org	8195
  4649     2003  3FFF               	dw	16383
  4650                           
  4651                           	psect	config
  4652                           
  4653                           ;Config register CONFIG1 @ 0x2007
  4654                           ;	Oscillator Selection bits
  4655                           ;	FOSC = INTRC_NOCLKOUT, INTOSCIO oscillator: I/O function on RA6/OSC2/CLKOUT pin, I/O f
      +                          unction on RA7/OSC1/CLKIN
  4656                           ;	Watchdog Timer Enable bit
  4657                           ;	WDTE = OFF, WDT disabled and can be enabled by SWDTEN bit of the WDTCON register
  4658                           ;	Power-up Timer Enable bit
  4659                           ;	PWRTE = ON, PWRT enabled
  4660                           ;	RE3/MCLR pin function select bit
  4661                           ;	MCLRE = ON, RE3/MCLR pin function is MCLR
  4662                           ;	Code Protection bit
  4663                           ;	CP = OFF, Program memory code protection is disabled
  4664                           ;	Data Code Protection bit
  4665                           ;	CPD = OFF, Data memory code protection is disabled
  4666                           ;	Brown Out Reset Selection bits
  4667                           ;	BOREN = OFF, BOR disabled
  4668                           ;	Internal External Switchover bit
  4669                           ;	IESO = ON, Internal/External Switchover mode is enabled
  4670                           ;	Fail-Safe Clock Monitor Enabled bit
  4671                           ;	FCMEN = ON, Fail-Safe Clock Monitor is enabled
  4672                           ;	Low Voltage Programming Enable bit
  4673                           ;	LVP = OFF, RB3 pin has digital I/O, HV on MCLR must be used for programming
  4674                           ;	In-Circuit Debugger Mode bit
  4675                           ;	DEBUG = 0x1, unprogrammed default
  4676     2007                     	org	8199
  4677     2007  2CE4               	dw	11492
  4678                           
  4679                           ;Config register CONFIG2 @ 0x2008
  4680                           ;	Brown-out Reset Selection bit
  4681                           ;	BOR4V = BOR40V, Brown-out Reset set to 4.0V
  4682                           ;	Flash Program Memory Self Write Enable bits
  4683                           ;	WRT = OFF, Write protection off
  4684     2008                     	org	8200
  4685     2008  3FFF               	dw	16383

Data Sizes:
    Strings     28
    Constant    0
    Data        2
    BSS         18
    Persistent  0
    Stack       0

Auto Spaces:
    Space          Size  Autos    Used
    COMMON           14     14      14
    BANK0            80     68      78
    BANK1            80      0      10
    BANK3            96      0       0
    BANK2            96      0       0

Pointer List with Targets:

    print@ptr	PTR unsigned char  size(2) Largest target is 11
		 -> STR_3(CODE[11]), STR_2(CODE[11]), STR_1(CODE[6]), set_temp(BANK1[5]), 
		 -> room_temp(BANK1[5]), 


Critical Paths under _main in COMMON

    _temp_compare->___awmod
    _print->_lcd
    _enable->_delay
    _adc->___awmod
    _adc->___xxtofl
    ___fltol->___xxtofl
    ___flmul->___xxtofl
    ___fldiv->___xxtofl
    ___awmod->___awdiv

Critical Paths under _main in BANK0

    _main->_adc
    _receive->_temp_compare
    _temp_compare->___awmod
    _adc->___fltol
    ___fltol->___fldiv
    ___fldiv->___flmul

Critical Paths under _main in BANK1

    None.

Critical Paths under _main in BANK3

    None.

Critical Paths under _main in BANK2

    None.

Call Graph Tables:

 ---------------------------------------------------------------------------------
 (Depth) Function   	        Calls       Base Space   Used Autos Params    Refs
 ---------------------------------------------------------------------------------
 (0) _main                                                 0     0      0   17824
                                _adc
                                _lcd
                              _print
                            _receive
 ---------------------------------------------------------------------------------
 (1) _receive                                              0     0      0    8016
                              _print
                       _temp_compare
 ---------------------------------------------------------------------------------
 (2) _temp_compare                                         4     4      0    5916
                                              2 BANK0      4     4      0
                            ___awdiv
                            ___awmod
                             ___wmul
                              _delay
                                _lcd
                              _print
 ---------------------------------------------------------------------------------
 (3) _print                                                8     6      2    2100
                                              5 COMMON     8     6      2
                                _lcd
 ---------------------------------------------------------------------------------
 (4) _lcd                                                  3     0      3    1434
                                              2 COMMON     3     0      3
                             _enable
 ---------------------------------------------------------------------------------
 (5) _enable                                               0     0      0     326
                              _delay
 ---------------------------------------------------------------------------------
 (6) _delay                                                2     0      2     326
                                              0 COMMON     2     0      2
 ---------------------------------------------------------------------------------
 (3) ___wmul                                               6     2      4     244
                                              0 COMMON     6     2      4
 ---------------------------------------------------------------------------------
 (1) _adc                                                  6     6      0    6274
                                             62 BANK0      6     6      0
                            ___awdiv
                            ___awmod
                            ___fldiv
                            ___flmul
                            ___fltol
                           ___xxtofl
 ---------------------------------------------------------------------------------
 (2) ___xxtofl                                            14    10      4     398
                                              0 COMMON    14    10      4
 ---------------------------------------------------------------------------------
 (2) ___fltol                                             10     6      4     305
                                             52 BANK0     10     6      4
                            ___fldiv (ARG)
                            ___flmul (ARG)
                           ___xxtofl (ARG)
 ---------------------------------------------------------------------------------
 (2) ___flmul                                             26    18      8    2417
                                              0 BANK0     26    18      8
                          __Umul8_16
                           ___xxtofl (ARG)
 ---------------------------------------------------------------------------------
 (3) __Umul8_16                                            9     7      2     799
                                              0 COMMON     9     7      2
 ---------------------------------------------------------------------------------
 (2) ___fldiv                                             26    18      8    1273
                                             26 BANK0     26    18      8
                            ___flmul (ARG)
                           ___xxtofl (ARG)
 ---------------------------------------------------------------------------------
 (3) ___awmod                                              7     3      4     904
                                              9 COMMON     5     1      4
                                              0 BANK0      2     2      0
                            ___awdiv (ARG)
 ---------------------------------------------------------------------------------
 (3) ___awdiv                                              9     5      4     908
                                              0 COMMON     9     5      4
 ---------------------------------------------------------------------------------
 Estimated maximum stack depth 6
 ---------------------------------------------------------------------------------

 Call Graph Graphs:

 _main (ROOT)
   _adc
     ___awdiv
     ___awmod
       ___awdiv (ARG)
     ___fldiv
       ___flmul (ARG)
         __Umul8_16
         ___xxtofl (ARG)
       ___xxtofl (ARG)
     ___flmul
     ___fltol
       ___fldiv (ARG)
       ___flmul (ARG)
       ___xxtofl (ARG)
     ___xxtofl
   _lcd
     _enable
       _delay
   _print
     _lcd
   _receive
     _print
     _temp_compare
       ___awdiv
       ___awmod
       ___wmul
       _delay
       _lcd
       _print

 Address spaces:
Name               Size   Autos  Total    Cost      Usage
BANK3               60      0       0       9        0.0%
BITBANK3            60      0       0       8        0.0%
SFR3                 0      0       0       4        0.0%
BITSFR3              0      0       0       4        0.0%
BANK2               60      0       0      11        0.0%
BITBANK2            60      0       0      10        0.0%
SFR2                 0      0       0       5        0.0%
BITSFR2              0      0       0       5        0.0%
BANK1               50      0       A       7       12.5%
BITBANK1            50      0       0       6        0.0%
SFR1                 0      0       0       2        0.0%
BITSFR1              0      0       0       2        0.0%
BANK0               50     44      4E       5       97.5%
BITBANK0            50      0       0       4        0.0%
SFR0                 0      0       0       1        0.0%
BITSFR0              0      0       0       1        0.0%
COMMON               E      E       E       1      100.0%
BITCOMMON            E      0       0       0        0.0%
CODE                 0      0       0       0        0.0%
DATA                 0      0      66      12        0.0%
ABS                  0      0      66       3        0.0%
NULL                 0      0       0       0        0.0%
STACK                0      0       0       2        0.0%
EEDATA             100      0       0       0        0.0%


Microchip Technology PIC Macro Assembler V2.40 build 20220703182018 
Symbol Table                                                                                   Fri Jun 20 18:19:13 2025

           ___fldiv@aexp 0053             ___fldiv@bexp 0052                        _i 006C  
                      pc 0002             ___fldiv@sign 004B                       l70 0D4D  
                     l73 0D78                       l82 0E38                       l76 0D5F  
                     l88 019E                       _GO 00F9                       l98 025A  
           ___awdiv@sign 0076                       _dv 0068                       fsr 0004  
    ___wmul@multiplicand 0072      __Umul8_16@word_mpld 0076                      l104 02C1  
                    l204 0010                      l109 0DE5                      l206 0028  
                    l400 0F72                      l370 0E93                      l612 0D8D  
                    l357 0EFA                      l605 07CD                      l614 0D9F  
                    l390 0F72                      l553 0318                      l650 00AA  
                    l555 0494                      l651 00B6                      l643 008E  
                    l397 0F5D                      l637 004B                      l575 047C  
                    l639 00E0                      l577 048A                      l569 040A  
                    l593 07D9                      l599 0749                      _RB0 0030  
                    _RE0 0048                      _RE1 0049                      _adc 00E1  
                    _lcd 0D4E                      fsr0 0004                      indf 0000  
           ___awmod@sign 0021             ___flmul@aexp 0032             ___flmul@bexp 0033  
           ___flmul@sign 002D             ___flmul@temp 0038             ___flmul@prod 0034  
           ___fltol@exp1 005D                     ?_adc 0070                     l1400 0EB5  
                   l1410 0ED8                     l1402 0EB8                     l1420 0EF1  
                   l1412 0EDE                     l1404 0EBF                     l1500 0241  
                   l1422 0EF6                     l1414 0EDF                     l1406 0EC3  
                   l1430 0E40                     l1342 0D3F                     l1350 0D6C  
                   l1510 0277                     l1502 024A                     l1416 0EE6  
                   l1408 0EC7                     l1440 0E56                     l1432 0E45  
                   l1600 0330                     l1520 0EFB                     l1344 0D3F  
                   l1352 0D4E                     l1360 0DEA                     l1512 0289  
                   l1504 025E                     l1418 0EEC                     l1450 0E72  
                   l1442 0E59                     l1434 0E47                     l1426 0E39  
                   l1610 0347                     l1530 0F23                     l1522 0F06  
                   l1370 0006                     l1346 0D60                     l1354 0D58  
                   l1362 0DF5                     l1514 029D                     l1460 0E8F  
                   l1452 0E78                     l1444 0E60                     l1436 0E4B  
                   l1428 0E3C                     l1620 0373                     l1612 0359  
                   l1604 0339                     l1700 049A                     l1532 0F2B  
                   l1372 000A                     l1348 0D63                     l1356 0D5A  
                   l1364 0E16                     l1516 02A7                     l1508 026F  
                   l1390 0EA0                     l1382 0E94                     l1454 0E7F  
                   l1446 0E64                     l1438 0E50                     l1622 0378  
                   l1630 0398                     l1614 0361                     l1606 033E  
                   l1470 0D87                     l1710 04AD                     l1702 049E  
                   l1550 0F52                     l1542 0F39                     l1534 0F2D  
                   l1526 0F0F                     l1374 0017                     l1366 0E1C  
                   l1358 0DE7                     l1518 02B0                     l1392 0EA4  
                   l1384 0E95                     l1448 0E68                     l1456 0E85  
                   l1640 03C3                     l1632 03AA                     l1624 038A  
                   l1616 0369                     l1560 02CB                     l1472 0D96  
                   l1464 0D7A                     l1800 0732                     l1720 04C8  
                   l1712 04B5                     l1704 04A2                     l1552 0F62  
                   l1536 0F31                     l1544 0F4B                     l1528 0F22  
                   l1376 001E                     l1368 0004                     l1480 01C7  
                   l1394 0EA9                     l1386 0E99                     l1458 0E8A  
                   l1650 03DB                     l1642 03CB                     l1634 03AB  
                   l1626 038E                     l1618 0371                     l1570 02E2  
                   l1562 02CF                     l1474 0D9B                     l1466 0D7C  
                   l1810 0761                     l1802 0746                     l1730 04DF  
                   l1722 04CC                     l1714 04B7                     l1706 04A3  
                   l1554 0F67                     l1378 0024                     l1482 01D4  
                   l1396 0EAD                     l1388 0E9E                     l1660 03F3  
                   l1652 03E4                     l1644 03CD                     l1636 03B9  
                   l1628 038F                     l1580 02F6                     l1572 02E3  
                   l1564 02D0                     l1556 02C2                     l1468 0D83  
                   l1820 079C                     l1812 0765                     l1732 04E1  
                   l1724 04CD                     l1716 04BF                     l1708 04A8  
                   l1900 0195                     l1492 0209                     l1484 01E3  
                   l1398 0EAF                     l1670 0422                     l1662 0407  
                   l1646 03D6                     l1654 03EA                     l1638 03BD  
                   l1590 030D                     l1582 02FA                     l1566 02D5  
                   l1574 02E5                     l1558 02C7                     l1830 07C7  
                   l1822 07AB                     l1814 077E                     l1806 074E  
                   l1750 054E                     l1742 04FC                     l1734 04E9  
                   l1726 04D2                     l1718 04C4                     l1902 019C  
                   l1494 0211                     l1486 01ED                     l1478 019F  
                   l1910 0DB2                     l1680 0460                     l1672 0426  
                   l1656 03EE                     l1648 03DA                     l1592 030E  
                   l1584 02FB                     l1576 02ED                     l1568 02DA  
                   l1832 07C8                     l1824 07B5                     l1808 0753  
                   l1816 0784                     l1760 05C7                     l1752 0578  
                   l1744 050A                     l1736 04EE                     l1728 04D7  
                   l1840 002F                     l1496 0223                     l1488 01F8  
                   l1920 0DC9                     l1912 0DB9                     l1904 0DA0  
                   l1690 0484                     l1682 046F                     l1674 043F  
                   l1666 040F                     l1658 03EF                     l1586 0300  
                   l1594 0310                     l1578 02F2                     l1834 07D1  
                   l1826 07B7                     l1818 0791                     l1770 0643  
                   l1762 05E4                     l1754 0594                     l1746 0517  
                   l1738 04F3                     l1850 005C                     l1842 0033  
                   l1498 0237                     l1922 0DD3                     l1914 0DBF  
                   l1906 0DA6                     l1930 0F76                     ?_lcd 0072  
                   l1692 0486                     l1684 0473                     l1668 0414  
                   l1676 0445                     l1596 0320                     l1588 0305  
                   l1828 07C3                     l1780 06F5                     l1772 066E  
                   l1764 05F2                     l1756 05B0                     l1748 0532  
                   l1860 0085                     l1852 005F                     l1844 0043  
                   l1924 0DDD                     l1916 0DC4                     l1908 0DAC  
                   l1940 0F8A                     l1932 0F7A                     l1686 047B  
                   l1678 0452                     l1598 032C                     l1790 071A  
                   l1782 06FE                     l1774 067C                     l1766 060F  
                   l1758 05B9                     l1870 00B8                     l1862 0095  
                   l1854 006C                     l1846 0053                     l1838 002A  
                   l1918 0DC8                     l1926 0DE2                     l1950 0FA4  
                   l1942 0F8D                     l1934 0F7D                     l1688 0480  
                   l1792 0723                     l1784 070C                     l1776 06A7  
                   l1768 0626                     l1872 00CE                     l1864 00A0  
                   l1856 0073                     l1960 0FC8                     l1952 0FA6  
                   l1944 0F90                     l1936 0F80                     l1928 0F73  
                   l1786 0715                     l1794 0729                     l1778 06CD  
                   l1698 0495                     l1874 00D3                     l1866 00A4  
                   l1858 0077                     l1890 0143                     l1882 00E1  
                   l1970 0FED                     l1962 0FD2                     l1954 0FAA  
                   l1946 0F9F                     l1938 0F87                     l1796 072D  
                   l1788 0719                     l1876 00D7                     l1868 00AE  
                   l1892 0156                     l1884 00E5                     l1972 0FF7  
                   l1964 0FD6                     l1956 0FB4                     l1948 0FA0  
                   l1798 072E                     l1878 00D8                     l1894 0176  
                   l1886 00ED                     l1966 0FDE                     l1958 0FBE  
                   l1896 0189                     l1888 00F1                     l1968 0FE3  
                   l1898 018E                     STR_1 0826                     STR_2 0810  
                   STR_3 081B                     u2000 03EE                     u2001 03ED  
                   u2010 03F3                     u2011 03F2                     u2020 0407  
                   u2100 04A2                     u2021 0406                     u2101 04A1  
                   u2030 040E                     u2110 04A8                     u2031 040D  
                   u2111 04A7                     u2040 0414                     u2120 04AD  
                   u2041 0413                     u2201 0586                     u2121 04AC  
                   u2050 0426                     u2202 058D                     u2130 04CC  
                   u1330 0D4D                     u2051 0425                     u2211 05A2  
                   u2203 0594                     u2131 04CB                     u1331 0D4C  
                   u2060 0435                     u2212 05A9                     u2140 04D2  
                   u1420 0024                     u1340 0D55                     u2301 06BF  
                   u2213 05B0                     u2141 04D1                     u1421 0023  
                   u1405 0011                     u1341 0D51                     u1510 0EEC  
                   u1430 0E99                     u2070 0452                     u2310 06DB  
                   u2302 06C6                     u2150 04D7                     u1511 0EEB  
                   u1431 0E98                     u2071 0451                     u2303 06CD  
                   u2231 05D6                     u2151 04D6                     u1415 0018  
                   u1520 0EF1                     u1440 0EA4                     u1600 0E85  
                   u2080 046F                     u2400 074D                     u2232 05DD  
                   u2160 04EE                     u1360 0E03                     u1521 0EF0  
                   u1505 0EE0                     u1441 0EA3                     u1601 0E84  
                   u2081 046E                     u2065 0430                     u2401 074C  
                   u2321 06E7                     u2241 0601                     u2233 05E4  
                   u2225 05B2                     u2161 04ED                     u1450 0EB5  
                   u1610 0E8A                     u1530 0E40                     u2090 0484  
                   u2410 0753                     u2322 06EE                     u2242 0608  
                   u2170 04F3                     u1354 0D58                     u1370 0E26  
                   u1451 0EB4                     u1611 0E89                     u1531 0E3F  
                   u2091 0483                     u2075 044E                     u2411 0752  
                   u2323 06F5                     u2315 06D6                     u2243 060F  
                   u2171 04F2                     u1540 0E4B                     u1620 0D87  
                   u2420 0765                     u1380 0E38                     u1700 02C0  
                   u1541 0E4A                     u2085 046B                     u1621 0D86  
                   u2421 0764                     u2261 0635                     u2181 0540  
                   u1381 0E37                     u1701 02BF                     u1470 0EC7  
                   u1550 0E56                     u2430 0774                     u2350 0719  
                   u2262 063C                     u2182 0547                     u1710 0F06  
                   u2510 0072                     u1390 000A                     u1471 0EC6  
                   u1551 0E55                     u2351 0718                     u2335 06F7  
                   u2271 0660                     u2263 0643                     u2255 0611  
                   u2191 055C                     u2183 054E                     u1711 0F05  
                   u2511 0071                     u1391 0009                     u1640 0D9B  
                   u2440 0791                     u2272 0667                     u2192 0563  
                   u1800 0F67                     u1720 0F1D                     u2600 00D7  
                   u1465 0EB9                     u1641 0D9A                     u2441 0790  
                   u2345 070E                     u2281 068B                     u2273 066E  
                   u2193 056A                     u1801 0F66                     u2601 00D6  
                   u2505 0064                     u1705 02BC                     u1490 0ED8  
                   u1570 0E68                     u1810 02CF                     u2450 07AB  
                   u2370 072D                     u2290 06B3                     u2282 0692  
                   u1730 0F31                     u2530 0094                     u2610 00F1  
                   u1650 01D4                     u1491 0ED7                     u1571 0E67  
                   u1811 02CE                     u1635 0D8E                     u2451 07AA  
                   u2435 076F                     u2371 072C                     u2283 0699  
                   u1731 0F30                     u2531 0093                     u2611 00F0  
                   u1651 01D3                     u1580 0E72                     u1820 02D5  
                   u2460 07C7                     u2380 0732                     u1740 0F38  
                   u1660 01E3                     u2620 0DA6                     u1485 0EC8  
                   u1581 0E71                     u1565 0E5A                     u1821 02D4  
                   u2461 07C6                     u2445 078D                     u2381 0731  
                   u2365 071C                     u1741 0F37                     u1725 0F18  
                   u2525 0086                     u1661 01E2                     u2621 0DA5  
                   u1830 02DA                     u2390 0746                     u2550 00A4  
                   u2470 002F                     u1670 0208                     u2630 0DB9  
                   u1495 0ED4                     u1831 02D9                     u2455 07A7  
                   u2391 0745                     u2295 06AE                     u2551 00A3  
                   u2471 002E                     u1671 0207                     u1655 01D0  
                   u2631 0DB8                     u1920 038E                     u1840 02FA  
                   u1760 0F4A                     u2560 00AA                     u2480 0033  
                   u1680 025A                     u2640 0FDE                     u1585 0E6E  
                   u1921 038D                     u1905 037A                     u1841 02F9  
                   u1761 0F49                     u2561 00A9                     u2545 0099  
                   u2481 0032                     u1681 0259                     u1665 01DF  
                   u2641 0FDD                     u1850 0300                     u1770 0F51  
                   u2570 00AE                     u2490 0053                     u1690 026E  
                   u1595 0E79                     u1915 0383                     u1851 02FF  
                   u1771 0F50                     u1755 0F3A                     u2571 00AD  
                   u2491 0052                     u1691 026D                     u1675 0204  
                   u1940 03AA                     u1860 0305                     u2580 00C3  
                   u1941 03A9                     u1861 0304                     u1685 0256  
                   u1950 03C3                     u1870 0320                     u1790 0F62  
                   u2590 00D3                     u1951 03C2                     u1935 0391  
                   u1871 031F                     u1791 0F61                     u2591 00D2  
                   u1695 026A                     u1960 03CB                     u1880 033E  
                   u1961 03CA                     u1945 03A6                     u1881 033D  
                   u1785 0F54                     u2585 00BE                     u1890 0378  
                   u1891 0377                     u1980 03DA                     u1981 03D9  
                   u1975 03CF                     u1995 03DD                     _RCIF 0065  
                   adc@p 005E                     adc@q 0060                     adc@r 0062  
                   _main 0F73                     btemp 007E                     start 0000  
        ___fldiv@new_exp 004C                    ??_adc 007E                    ??_lcd 0075  
          ___fltol@sign1 005C                    ?_main 0070          __end_of___fldiv 0495  
        __end_of___awdiv 0EFB          __end_of___awmod 0E94          __end_of___flmul 07DA  
        __end_of___fltol 0F73                    _ANSEL 0188          ___awdiv@divisor 0070  
        ___awdiv@counter 0075                    _RCREG 001A                    _RCSTA 0018  
                  _SPBRG 0099                    _PORTA 0005                    _PORTB 0006  
                  _PORTC 0007                    _PORTD 0008                    _PORTE 0009  
                  _TRISA 0085                    _TRISB 0086                    _TRISC 0087  
                  _TRISD 0088                    _TRISE 0089                    _TXSTA 0098  
                  _delay 0D3F                    _count 006A                    lcd@rs 0072  
        __end_of_receive 0DE6                    _print 0DE6                    pclath 000A  
                  status 0003                    wtemp0 007E          __initialization 07DA  
           __end_of_main 1000                   ??_main 007E                   ?_delay 0070  
                 _ADCON0 001F                   _ADCON1 009F                   _ADRESH 001E  
                 _ADRESL 009E         ___awdiv@dividend 0072                   ?_print 0075  
                 _ANSELH 0189         __end_of___xxtofl 00E1                   ___wmul 0004  
              ??___fldiv 0042                ??___awdiv 0074                ??___awmod 007D  
              ??___flmul 0028                ??___fltol 0058                   _enable 0D60  
                 delay@t 0070         ___awdiv@quotient 0077          ___awmod@divisor 0079  
        ___awmod@counter 0020                ??_receive 007E                   print@j 007B  
           ___xxtofl@arg 007A             ___xxtofl@exp 0079             ___xxtofl@val 0070  
__end_of__initialization 07FC               ___fltol@f1 0054           __pcstackCOMMON 0070  
           __pidataBANK0 0D3D            __end_of_delay 0D4E            __end_of_print 0E39  
                ??_delay 0072                  ??_print 0077               __pbssBANK0 0064  
             __pbssBANK1 00A0        __end_of__Umul8_16 0DA0               __pmaintext 0F73  
                ?___wmul 0070                  ?_enable 0070                ?___xxtofl 0070  
             __stringtab 0800                  ___fldiv 02C2                  ___awdiv 0E94  
                ___awmod 0E39                  ___flmul 0495                  ___fltol 0EFB  
          ?_temp_compare 0070                  __ptext1 0DA0                  __ptext2 019F  
                __ptext3 0DE6                  __ptext4 0D4E                  __ptext5 0D60  
                __ptext6 0D3F                  __ptext7 0004                  __ptext8 00E1  
                __ptext9 0029                  _dv_temp 0066               ??___xxtofl 0074  
                _receive 0DA0         ___awmod@dividend 007B                  lcd@data 0074  
   end_of_initialization 07FC           ??_temp_compare 0022            ___xxtofl@sign 0078  
            ___fldiv@grs 004E              ___fldiv@rem 0047              ___flmul@grs 002E  
         __end_of___wmul 0029           __end_of_enable 0D79      start_initialization 07DA  
            __end_of_adc 019F              __end_of_lcd 0D60                 ??___wmul 0074  
               ??_enable 0072                __Umul8_16 0D79              __pdataBANK0 006C  
              ___fldiv@a 003A                ___fldiv@b 003E                ___flmul@a 0024  
              ___flmul@b 0020                ___latbits 0002            __pcstackBANK0 0020  
   __end_of_temp_compare 02C2                 ?___fldiv 003A                 ?___awdiv 0070  
               ?___awmod 0079                 ?___flmul 0020                 ?___fltol 0054  
             ?__Umul8_16 0070                __pstrings 0800                 ?_receive 0070  
           _int_set_temp 0064           ___wmul@product 0074               print@addrs 007A  
              _room_temp 00A5              __stringbase 080F        ___wmul@multiplier 0070  
            ??__Umul8_16 0072       __end_of__stringtab 0810                 ___xxtofl 0029  
               __ptext10 0EFB                 __ptext11 0495                 __ptext12 0D79  
               __ptext13 02C2                 __ptext14 0E39                 __ptext15 0E94  
               _set_temp 00A0             _temp_compare 019F                stringcode 080A  
               print@ptr 0075   __Umul8_16@multiplicand 0070                 stringdir 080A  
               stringtab 0800     __Umul8_16@multiplier 0078        __Umul8_16@product 0074  
