

Microchip MPLAB XC8 Assembler V2.40 build 20220703182018 
                                                                                               Wed May 28 14:47:20 2025

Microchip MPLAB XC8 C Compiler v2.40 (Free license) build 20220703182018 Og1 
     1                           	processor	16F887
     2                           	pagewidth 120
     3                           	opt	flic
     4                           	psect	cinit,global,class=CODE,merge=1,delta=2
     5                           	psect	bssBANK1,global,class=BANK1,space=1,delta=1,noexec
     6                           	psect	cstackBANK1,global,class=BANK1,space=1,delta=1,noexec
     7                           	psect	cstackCOMMON,global,class=COMMON,space=1,delta=1,noexec
     8                           	psect	cstackBANK0,global,class=BANK0,space=1,delta=1,noexec
     9                           	psect	maintext,global,class=CODE,split=1,delta=2
    10                           	psect	text1,local,class=CODE,merge=1,delta=2
    11                           	psect	text2,local,class=CODE,merge=1,delta=2
    12                           	psect	text3,local,class=CODE,merge=1,delta=2
    13                           	psect	text4,local,class=CODE,merge=1,delta=2,group=1
    14                           	psect	text5,local,class=CODE,merge=1,delta=2,group=1
    15                           	psect	text6,local,class=CODE,merge=1,delta=2,group=1
    16                           	psect	text7,local,class=CODE,merge=1,delta=2,group=1
    17                           	psect	text8,local,class=CODE,merge=1,delta=2,group=1
    18                           	psect	text9,local,class=CODE,merge=1,delta=2,group=1
    19                           	psect	text10,local,class=CODE,merge=1,delta=2,group=1
    20                           	psect	text11,local,class=CODE,merge=1,delta=2,group=1
    21                           	psect	idloc,global,abs,ovrld,class=IDLOC,space=5,delta=2,noexec
    22                           	psect	config,global,abs,ovrld,class=CONFIG,space=4,delta=2,noexec
    23                           	dabs	1,0x7E,2
    24     0000                     
    25                           ; Version 2.40
    26                           ; Generated 17/11/2021 GMT
    27                           ; 
    28                           ; Copyright © 2021, Microchip Technology Inc. and its subsidiaries ("Microchip")
    29                           ; All rights reserved.
    30                           ; 
    31                           ; This software is developed by Microchip Technology Inc. and its subsidiaries ("Microch
      +                          ip").
    32                           ; 
    33                           ; Redistribution and use in source and binary forms, with or without modification, are
    34                           ; permitted provided that the following conditions are met:
    35                           ; 
    36                           ;     1. Redistributions of source code must retain the above copyright notice, this lis
      +                          t of
    37                           ;        conditions and the following disclaimer.
    38                           ; 
    39                           ;     2. Redistributions in binary form must reproduce the above copyright notice, this 
      +                          list
    40                           ;        of conditions and the following disclaimer in the documentation and/or other
    41                           ;        materials provided with the distribution. Publication is not required when
    42                           ;        this file is used in an embedded application.
    43                           ; 
    44                           ;     3. Microchip's name may not be used to endorse or promote products derived from th
      +                          is
    45                           ;        software without specific prior written permission.
    46                           ; 
    47                           ; THIS SOFTWARE IS PROVIDED BY MICROCHIP "AS IS" AND ANY EXPRESS OR IMPLIED WARRANTIES,
    48                           ; INCLUDING, BUT NOT LIMITED TO, THE IMPLIED WARRANTIES OF MERCHANTABILITY AND FITNESS F
      +                          OR
    49                           ; PURPOSE ARE DISCLAIMED.  IN NO EVENT SHALL MICROCHIP BE LIABLE FOR ANY DIRECT, INDIREC
      +                          T,
    50                           ; INCIDENTAL, SPECIAL, EXEMPLARY, OR CONSEQUENTIAL DAMAGES (INCLUDING BUT NOT LIMITED TO
    51                           ; PROCUREMENT OF SUBSTITUTE GOODS OR SERVICES; LOSS OF USE, DATA OR PROFITS; OR BUSINESS
    52                           ; INTERRUPTION) HOWSOEVER CAUSED AND ON ANY THEORY OF LIABILITY, WHETHER IN CONTRACT, ST
      +                          RICT
    53                           ; LIABILITY, OR TORT (INCLUDING NEGLIGENCE OR OTHERWISE) ARISING IN ANY WAY OUT OF THE U
      +                          SE OF
    54                           ; THIS SOFTWARE, EVEN IF ADVISED OF THE POSSIBILITY OF SUCH DAMAGE.
    55                           ; 
    56                           ; 
    57                           ; Code-generator required, PIC16F887 Definitions
    58                           ; 
    59                           ; SFR Addresses
    60     0000                     	;# 
    61     0001                     	;# 
    62     0002                     	;# 
    63     0003                     	;# 
    64     0004                     	;# 
    65     0005                     	;# 
    66     0006                     	;# 
    67     0007                     	;# 
    68     0008                     	;# 
    69     0009                     	;# 
    70     000A                     	;# 
    71     000B                     	;# 
    72     000C                     	;# 
    73     000D                     	;# 
    74     000E                     	;# 
    75     000E                     	;# 
    76     000F                     	;# 
    77     0010                     	;# 
    78     0011                     	;# 
    79     0012                     	;# 
    80     0013                     	;# 
    81     0014                     	;# 
    82     0015                     	;# 
    83     0015                     	;# 
    84     0016                     	;# 
    85     0017                     	;# 
    86     0018                     	;# 
    87     0019                     	;# 
    88     001A                     	;# 
    89     001B                     	;# 
    90     001B                     	;# 
    91     001C                     	;# 
    92     001D                     	;# 
    93     001E                     	;# 
    94     001F                     	;# 
    95     0081                     	;# 
    96     0085                     	;# 
    97     0086                     	;# 
    98     0087                     	;# 
    99     0088                     	;# 
   100     0089                     	;# 
   101     008C                     	;# 
   102     008D                     	;# 
   103     008E                     	;# 
   104     008F                     	;# 
   105     0090                     	;# 
   106     0091                     	;# 
   107     0092                     	;# 
   108     0093                     	;# 
   109     0093                     	;# 
   110     0093                     	;# 
   111     0094                     	;# 
   112     0095                     	;# 
   113     0096                     	;# 
   114     0097                     	;# 
   115     0098                     	;# 
   116     0099                     	;# 
   117     009A                     	;# 
   118     009B                     	;# 
   119     009C                     	;# 
   120     009D                     	;# 
   121     009E                     	;# 
   122     009F                     	;# 
   123     0105                     	;# 
   124     0107                     	;# 
   125     0108                     	;# 
   126     0109                     	;# 
   127     010C                     	;# 
   128     010C                     	;# 
   129     010D                     	;# 
   130     010E                     	;# 
   131     010F                     	;# 
   132     0185                     	;# 
   133     0187                     	;# 
   134     0188                     	;# 
   135     0189                     	;# 
   136     018C                     	;# 
   137     018D                     	;# 
   138     0000                     	;# 
   139     0001                     	;# 
   140     0002                     	;# 
   141     0003                     	;# 
   142     0004                     	;# 
   143     0005                     	;# 
   144     0006                     	;# 
   145     0007                     	;# 
   146     0008                     	;# 
   147     0009                     	;# 
   148     000A                     	;# 
   149     000B                     	;# 
   150     000C                     	;# 
   151     000D                     	;# 
   152     000E                     	;# 
   153     000E                     	;# 
   154     000F                     	;# 
   155     0010                     	;# 
   156     0011                     	;# 
   157     0012                     	;# 
   158     0013                     	;# 
   159     0014                     	;# 
   160     0015                     	;# 
   161     0015                     	;# 
   162     0016                     	;# 
   163     0017                     	;# 
   164     0018                     	;# 
   165     0019                     	;# 
   166     001A                     	;# 
   167     001B                     	;# 
   168     001B                     	;# 
   169     001C                     	;# 
   170     001D                     	;# 
   171     001E                     	;# 
   172     001F                     	;# 
   173     0081                     	;# 
   174     0085                     	;# 
   175     0086                     	;# 
   176     0087                     	;# 
   177     0088                     	;# 
   178     0089                     	;# 
   179     008C                     	;# 
   180     008D                     	;# 
   181     008E                     	;# 
   182     008F                     	;# 
   183     0090                     	;# 
   184     0091                     	;# 
   185     0092                     	;# 
   186     0093                     	;# 
   187     0093                     	;# 
   188     0093                     	;# 
   189     0094                     	;# 
   190     0095                     	;# 
   191     0096                     	;# 
   192     0097                     	;# 
   193     0098                     	;# 
   194     0099                     	;# 
   195     009A                     	;# 
   196     009B                     	;# 
   197     009C                     	;# 
   198     009D                     	;# 
   199     009E                     	;# 
   200     009F                     	;# 
   201     0105                     	;# 
   202     0107                     	;# 
   203     0108                     	;# 
   204     0109                     	;# 
   205     010C                     	;# 
   206     010C                     	;# 
   207     010D                     	;# 
   208     010E                     	;# 
   209     010F                     	;# 
   210     0185                     	;# 
   211     0187                     	;# 
   212     0188                     	;# 
   213     0189                     	;# 
   214     018C                     	;# 
   215     018D                     	;# 
   216     001F                     _ADCON0	set	31
   217     0009                     _PORTE	set	9
   218     0005                     _PORTA	set	5
   219     001E                     _ADRESH	set	30
   220     0008                     _PORTD	set	8
   221     00F9                     _GO	set	249
   222     0049                     _RE1	set	73
   223     0048                     _RE0	set	72
   224     009F                     _ADCON1	set	159
   225     0089                     _TRISE	set	137
   226     0088                     _TRISD	set	136
   227     0085                     _TRISA	set	133
   228     009E                     _ADRESL	set	158
   229     0189                     _ANSELH	set	393
   230     0188                     _ANSEL	set	392
   231                           
   232                           	psect	cinit
   233     07F8                     start_initialization:	
   234                           ; #config settings
   235                           
   236     07F8                     __initialization:
   237                           
   238                           ; Clear objects allocated to BANK1
   239     07F8  1683               	bsf	3,5	;RP0=1, select bank1
   240     07F9  1303               	bcf	3,6	;RP1=0, select bank1
   241     07FA  01BC               	clrf	__pbssBANK1& (0+127)
   242     07FB  01BD               	clrf	(__pbssBANK1+1)& (0+127)
   243     07FC                     end_of_initialization:	
   244                           ;End of C runtime variable initialization code
   245                           
   246     07FC                     __end_of__initialization:
   247     07FC  0183               	clrf	3
   248     07FD  120A  158A  2DD7   	ljmp	_main	;jump to C main() function
   249                           
   250                           	psect	bssBANK1
   251     00BC                     __pbssBANK1:
   252     00BC                     _dv:
   253     00BC                     	ds	2
   254                           
   255                           	psect	cstackBANK1
   256     00A0                     __pcstackBANK1:
   257     00A0                     adc@rem:
   258                           
   259                           ; 2 bytes @ 0x0
   260     00A0                     	ds	2
   261     00A2                     adc@x:
   262                           
   263                           ; 2 bytes @ 0x2
   264     00A2                     	ds	2
   265     00A4                     adc@y:
   266                           
   267                           ; 2 bytes @ 0x4
   268     00A4                     	ds	2
   269     00A6                     adc@z:
   270                           
   271                           ; 2 bytes @ 0x6
   272     00A6                     	ds	2
   273     00A8                     adc@w:
   274                           
   275                           ; 2 bytes @ 0x8
   276     00A8                     	ds	2
   277     00AA                     adc@v:
   278                           
   279                           ; 2 bytes @ 0xA
   280     00AA                     	ds	2
   281     00AC                     adc@vlt:
   282                           
   283                           ; 2 bytes @ 0xC
   284     00AC                     	ds	2
   285     00AE                     adc@p:
   286                           
   287                           ; 2 bytes @ 0xE
   288     00AE                     	ds	2
   289     00B0                     adc@q:
   290                           
   291                           ; 2 bytes @ 0x10
   292     00B0                     	ds	2
   293     00B2                     adc@b:
   294                           
   295                           ; 2 bytes @ 0x12
   296     00B2                     	ds	2
   297     00B4                     adc@c:
   298                           
   299                           ; 2 bytes @ 0x14
   300     00B4                     	ds	2
   301     00B6                     adc@d:
   302                           
   303                           ; 2 bytes @ 0x16
   304     00B6                     	ds	2
   305     00B8                     _adc$671:
   306                           
   307                           ; 2 bytes @ 0x18
   308     00B8                     	ds	2
   309     00BA                     adc@res:
   310                           
   311                           ; 2 bytes @ 0x1A
   312     00BA                     	ds	2
   313                           
   314                           	psect	cstackCOMMON
   315     0070                     __pcstackCOMMON:
   316     0070                     ?_delay:
   317     0070                     ?_main:	
   318                           ; 1 bytes @ 0x0
   319                           
   320     0070                     ?__Umul8_16:	
   321                           ; 1 bytes @ 0x0
   322                           
   323     0070                     ?_adc:	
   324                           ; 2 bytes @ 0x0
   325                           
   326     0070                     ?___wmul:	
   327                           ; 2 bytes @ 0x0
   328                           
   329     0070                     ?___xxtofl:	
   330                           ; 2 bytes @ 0x0
   331                           
   332     0070                     __Umul8_16@multiplicand:	
   333                           ; 4 bytes @ 0x0
   334                           
   335     0070                     delay@t:	
   336                           ; 1 bytes @ 0x0
   337                           
   338     0070                     ___wmul@multiplier:	
   339                           ; 2 bytes @ 0x0
   340                           
   341     0070                     ___xxtofl@val:	
   342                           ; 2 bytes @ 0x0
   343                           
   344                           
   345                           ; 4 bytes @ 0x0
   346     0070                     	ds	2
   347     0072                     ??__Umul8_16:
   348     0072                     ??_delay:	
   349                           ; 1 bytes @ 0x2
   350                           
   351     0072                     ?_lcd:	
   352                           ; 1 bytes @ 0x2
   353                           
   354     0072                     lcd@data:	
   355                           ; 1 bytes @ 0x2
   356                           
   357     0072                     ___wmul@multiplicand:	
   358                           ; 1 bytes @ 0x2
   359                           
   360                           
   361                           ; 2 bytes @ 0x2
   362     0072                     	ds	1
   363     0073                     ??_lcd:
   364     0073                     lcd@ra:	
   365                           ; 1 bytes @ 0x3
   366                           
   367                           
   368                           ; 1 bytes @ 0x3
   369     0073                     	ds	1
   370     0074                     ??___wmul:
   371     0074                     ??___xxtofl:	
   372                           ; 1 bytes @ 0x4
   373                           
   374     0074                     ___wmul@product:	
   375                           ; 1 bytes @ 0x4
   376                           
   377     0074                     __Umul8_16@product:	
   378                           ; 2 bytes @ 0x4
   379                           
   380                           
   381                           ; 2 bytes @ 0x4
   382     0074                     	ds	2
   383     0076                     ?___awdiv:
   384     0076                     ___awdiv@divisor:	
   385                           ; 2 bytes @ 0x6
   386                           
   387     0076                     __Umul8_16@word_mpld:	
   388                           ; 2 bytes @ 0x6
   389                           
   390                           
   391                           ; 2 bytes @ 0x6
   392     0076                     	ds	2
   393     0078                     __Umul8_16@multiplier:
   394     0078                     ___xxtofl@sign:	
   395                           ; 1 bytes @ 0x8
   396                           
   397     0078                     ___awdiv@dividend:	
   398                           ; 1 bytes @ 0x8
   399                           
   400                           
   401                           ; 2 bytes @ 0x8
   402     0078                     	ds	1
   403     0079                     ___xxtofl@exp:
   404                           
   405                           ; 1 bytes @ 0x9
   406     0079                     	ds	1
   407     007A                     ??___awdiv:
   408     007A                     ___xxtofl@arg:	
   409                           ; 1 bytes @ 0xA
   410                           
   411                           
   412                           ; 4 bytes @ 0xA
   413     007A                     	ds	1
   414     007B                     ??___awmod:
   415                           
   416                           ; 1 bytes @ 0xB
   417     007B                     	ds	1
   418     007C                     ___awmod@counter:
   419                           
   420                           ; 1 bytes @ 0xC
   421     007C                     	ds	1
   422     007D                     ___awmod@sign:
   423                           
   424                           ; 1 bytes @ 0xD
   425     007D                     	ds	1
   426     007E                     ??_adc:
   427     007E                     ??_main:	
   428                           ; 1 bytes @ 0xE
   429                           
   430                           
   431                           	psect	cstackBANK0
   432     0020                     __pcstackBANK0:	
   433                           ; 1 bytes @ 0xE
   434                           
   435     0020                     ?___flmul:
   436     0020                     ___awdiv@counter:	
   437                           ; 4 bytes @ 0x0
   438                           
   439     0020                     ___flmul@b:	
   440                           ; 1 bytes @ 0x0
   441                           
   442                           
   443                           ; 4 bytes @ 0x0
   444     0020                     	ds	1
   445     0021                     ___awdiv@sign:
   446                           
   447                           ; 1 bytes @ 0x1
   448     0021                     	ds	1
   449     0022                     ___awdiv@quotient:
   450                           
   451                           ; 2 bytes @ 0x2
   452     0022                     	ds	2
   453     0024                     ?___awmod:
   454     0024                     ___awmod@divisor:	
   455                           ; 2 bytes @ 0x4
   456                           
   457     0024                     ___flmul@a:	
   458                           ; 2 bytes @ 0x4
   459                           
   460                           
   461                           ; 4 bytes @ 0x4
   462     0024                     	ds	2
   463     0026                     ___awmod@dividend:
   464                           
   465                           ; 2 bytes @ 0x6
   466     0026                     	ds	2
   467     0028                     ??___flmul:
   468                           
   469                           ; 1 bytes @ 0x8
   470     0028                     	ds	5
   471     002D                     ___flmul@sign:
   472                           
   473                           ; 1 bytes @ 0xD
   474     002D                     	ds	1
   475     002E                     ___flmul@grs:
   476                           
   477                           ; 4 bytes @ 0xE
   478     002E                     	ds	4
   479     0032                     ___flmul@aexp:
   480                           
   481                           ; 1 bytes @ 0x12
   482     0032                     	ds	1
   483     0033                     ___flmul@bexp:
   484                           
   485                           ; 1 bytes @ 0x13
   486     0033                     	ds	1
   487     0034                     ___flmul@prod:
   488                           
   489                           ; 4 bytes @ 0x14
   490     0034                     	ds	4
   491     0038                     ___flmul@temp:
   492                           
   493                           ; 2 bytes @ 0x18
   494     0038                     	ds	2
   495     003A                     ?___fldiv:
   496     003A                     ___fldiv@a:	
   497                           ; 4 bytes @ 0x1A
   498                           
   499                           
   500                           ; 4 bytes @ 0x1A
   501     003A                     	ds	4
   502     003E                     ___fldiv@b:
   503                           
   504                           ; 4 bytes @ 0x1E
   505     003E                     	ds	4
   506     0042                     ??___fldiv:
   507                           
   508                           ; 1 bytes @ 0x22
   509     0042                     	ds	5
   510     0047                     ___fldiv@rem:
   511                           
   512                           ; 4 bytes @ 0x27
   513     0047                     	ds	4
   514     004B                     ___fldiv@sign:
   515                           
   516                           ; 1 bytes @ 0x2B
   517     004B                     	ds	1
   518     004C                     ___fldiv@new_exp:
   519                           
   520                           ; 2 bytes @ 0x2C
   521     004C                     	ds	2
   522     004E                     ___fldiv@grs:
   523                           
   524                           ; 4 bytes @ 0x2E
   525     004E                     	ds	4
   526     0052                     ___fldiv@bexp:
   527                           
   528                           ; 1 bytes @ 0x32
   529     0052                     	ds	1
   530     0053                     ___fldiv@aexp:
   531                           
   532                           ; 1 bytes @ 0x33
   533     0053                     	ds	1
   534     0054                     ?___fltol:
   535     0054                     ___fltol@f1:	
   536                           ; 4 bytes @ 0x34
   537                           
   538                           
   539                           ; 4 bytes @ 0x34
   540     0054                     	ds	4
   541     0058                     ??___fltol:
   542                           
   543                           ; 1 bytes @ 0x38
   544     0058                     	ds	4
   545     005C                     ___fltol@sign1:
   546                           
   547                           ; 1 bytes @ 0x3C
   548     005C                     	ds	1
   549     005D                     ___fltol@exp1:
   550                           
   551                           ; 1 bytes @ 0x3D
   552     005D                     	ds	1
   553                           
   554                           	psect	maintext
   555     0DD7                     __pmaintext:	
   556 ;;
   557 ;;Main: autosize = 0, tempsize = 0, incstack = 0, save=0
   558 ;;
   559 ;; *************** function _main *****************
   560 ;; Defined at:
   561 ;;		line 87 in file "adc4.c"
   562 ;; Parameters:    Size  Location     Type
   563 ;;		None
   564 ;; Auto vars:     Size  Location     Type
   565 ;;		None
   566 ;; Return value:  Size  Location     Type
   567 ;;                  1    wreg      void 
   568 ;; Registers used:
   569 ;;		wreg, status,2, status,0, btemp+1, pclath, cstack
   570 ;; Tracked objects:
   571 ;;		On entry : B00/0
   572 ;;		On exit  : 0/0
   573 ;;		Unchanged: 0/0
   574 ;; Data sizes:     COMMON   BANK0   BANK1   BANK3   BANK2
   575 ;;      Params:         0       0       0       0       0
   576 ;;      Locals:         0       0       0       0       0
   577 ;;      Temps:          0       0       0       0       0
   578 ;;      Totals:         0       0       0       0       0
   579 ;;Total ram usage:        0 bytes
   580 ;; Hardware stack levels required when called: 3
   581 ;; This function calls:
   582 ;;		_adc
   583 ;;		_lcd
   584 ;; This function is called by:
   585 ;;		Startup code after reset
   586 ;; This function uses a non-reentrant model
   587 ;;
   588                           
   589     0DD7                     _main:	
   590                           ;psect for function _main
   591                           
   592     0DD7                     l1672:	
   593                           ;incstack = 0
   594                           ; Regs used in _main: [wreg+status,2+status,0+btemp+1+pclath+cstack]
   595                           
   596                           
   597                           ;adc4.c: 89:     PORTA=0x00;
   598     0DD7  1283               	bcf	3,5	;RP0=0, select bank0
   599     0DD8  1303               	bcf	3,6	;RP1=0, select bank0
   600     0DD9  0185               	clrf	5	;volatile
   601     0DDA                     l1674:
   602                           
   603                           ;adc4.c: 90:     TRISA=0x01;
   604     0DDA  3001               	movlw	1
   605     0DDB  1683               	bsf	3,5	;RP0=1, select bank1
   606     0DDC  1303               	bcf	3,6	;RP1=0, select bank1
   607     0DDD  0085               	movwf	5	;volatile
   608     0DDE                     l1676:
   609                           
   610                           ;adc4.c: 91:     PORTD=TRISD=0x00;
   611     0DDE  0188               	clrf	8	;volatile
   612     0DDF  1283               	bcf	3,5	;RP0=0, select bank0
   613     0DE0  1303               	bcf	3,6	;RP1=0, select bank0
   614     0DE1  0188               	clrf	8	;volatile
   615     0DE2                     l1678:
   616                           
   617                           ;adc4.c: 92:     PORTE=TRISE=0x00;
   618     0DE2  1683               	bsf	3,5	;RP0=1, select bank1
   619     0DE3  1303               	bcf	3,6	;RP1=0, select bank1
   620     0DE4  0189               	clrf	9	;volatile
   621     0DE5  1283               	bcf	3,5	;RP0=0, select bank0
   622     0DE6  1303               	bcf	3,6	;RP1=0, select bank0
   623     0DE7  0189               	clrf	9	;volatile
   624     0DE8                     l1680:
   625                           
   626                           ;adc4.c: 93:     ADCON0=0x81;
   627     0DE8  3081               	movlw	129
   628     0DE9  009F               	movwf	31	;volatile
   629     0DEA                     l1682:
   630                           
   631                           ;adc4.c: 94:     ADCON1=0x80;
   632     0DEA  3080               	movlw	128
   633     0DEB  1683               	bsf	3,5	;RP0=1, select bank1
   634     0DEC  1303               	bcf	3,6	;RP1=0, select bank1
   635     0DED  009F               	movwf	31	;volatile
   636     0DEE                     l1684:
   637                           
   638                           ;adc4.c: 95:     ANSEL=0x01;
   639     0DEE  3001               	movlw	1
   640     0DEF  1683               	bsf	3,5	;RP0=1, select bank3
   641     0DF0  1703               	bsf	3,6	;RP1=1, select bank3
   642     0DF1  0088               	movwf	8	;volatile
   643                           
   644                           ;adc4.c: 96:     ANSELH=0x00;
   645     0DF2  0189               	clrf	9	;volatile
   646     0DF3                     l1686:
   647                           
   648                           ;adc4.c: 97:     lcd(0,0x38);
   649     0DF3  3038               	movlw	56
   650     0DF4  00F2               	movwf	lcd@data
   651     0DF5  3000               	movlw	0
   652     0DF6  120A  158A  2567  120A  158A  	fcall	_lcd
   653     0DFB                     l1688:
   654                           
   655                           ;adc4.c: 98:     lcd(0,0x0c);
   656     0DFB  300C               	movlw	12
   657     0DFC  00F2               	movwf	lcd@data
   658     0DFD  3000               	movlw	0
   659     0DFE  120A  158A  2567  120A  158A  	fcall	_lcd
   660     0E03                     l1690:
   661                           
   662                           ;adc4.c: 100:     {;adc4.c: 101:         adc();
   663     0E03  120A  118A  21EC  120A  158A  	fcall	_adc
   664     0E08  2E03               	goto	l1690
   665     0E09  120A  118A  2800   	ljmp	start
   666     0E0C                     __end_of_main:
   667                           
   668                           	psect	text1
   669     01EC                     __ptext1:	
   670 ;; *************** function _adc *****************
   671 ;; Defined at:
   672 ;;		line 40 in file "adc4.c"
   673 ;; Parameters:    Size  Location     Type
   674 ;;		None
   675 ;; Auto vars:     Size  Location     Type
   676 ;;  b               2   18[BANK1 ] int 
   677 ;;  res             2   26[BANK1 ] int 
   678 ;;  d               2   22[BANK1 ] int 
   679 ;;  c               2   20[BANK1 ] int 
   680 ;;  q               2   16[BANK1 ] int 
   681 ;;  p               2   14[BANK1 ] int 
   682 ;;  vlt             2   12[BANK1 ] int 
   683 ;;  v               2   10[BANK1 ] int 
   684 ;;  w               2    8[BANK1 ] int 
   685 ;;  z               2    6[BANK1 ] int 
   686 ;;  y               2    4[BANK1 ] int 
   687 ;;  x               2    2[BANK1 ] int 
   688 ;;  rem             2    0[BANK1 ] int 
   689 ;; Return value:  Size  Location     Type
   690 ;;                  2   43[None  ] int 
   691 ;; Registers used:
   692 ;;		wreg, status,2, status,0, btemp+1, pclath, cstack
   693 ;; Tracked objects:
   694 ;;		On entry : 0/0
   695 ;;		On exit  : 0/0
   696 ;;		Unchanged: 0/0
   697 ;; Data sizes:     COMMON   BANK0   BANK1   BANK3   BANK2
   698 ;;      Params:         0       0       0       0       0
   699 ;;      Locals:         0       0      28       0       0
   700 ;;      Temps:          0       0       0       0       0
   701 ;;      Totals:         0       0      28       0       0
   702 ;;Total ram usage:       28 bytes
   703 ;; Hardware stack levels used: 1
   704 ;; Hardware stack levels required when called: 2
   705 ;; This function calls:
   706 ;;		___awdiv
   707 ;;		___awmod
   708 ;;		___fldiv
   709 ;;		___flmul
   710 ;;		___fltol
   711 ;;		___wmul
   712 ;;		___xxtofl
   713 ;;		_lcd
   714 ;; This function is called by:
   715 ;;		_main
   716 ;; This function uses a non-reentrant model
   717 ;;
   718                           
   719     01EC                     _adc:	
   720                           ;psect for function _adc
   721                           
   722     01EC                     l1658:	
   723                           ;incstack = 0
   724                           ; Regs used in _adc: [wreg+status,2+status,0+btemp+1+pclath+cstack]
   725                           
   726                           
   727                           ;adc4.c: 42:     GO=1;
   728     01EC  1283               	bcf	3,5	;RP0=0, select bank0
   729     01ED  1303               	bcf	3,6	;RP1=0, select bank0
   730     01EE  149F               	bsf	31,1	;volatile
   731                           
   732                           ;adc4.c: 43:     while(GO)
   733     01EF  29F6               	goto	l1662
   734     01F0                     l1660:
   735                           
   736                           ;adc4.c: 44:     {;adc4.c: 45:         dv=(ADRESL+(ADRESH*256));
   737     01F0  081E               	movf	30,w	;volatile
   738     01F1  1683               	bsf	3,5	;RP0=1, select bank1
   739     01F2  1303               	bcf	3,6	;RP1=0, select bank1
   740     01F3  00BD               	movwf	(_dv+1)^(0+128)
   741     01F4  081E               	movf	30,w	;volatile
   742     01F5  00BC               	movwf	_dv^(0+128)
   743     01F6                     l1662:
   744                           
   745                           ;adc4.c: 43:     while(GO)
   746     01F6  1283               	bcf	3,5	;RP0=0, select bank0
   747     01F7  189F               	btfsc	31,1	;volatile
   748     01F8  29FA               	goto	u2411
   749     01F9  29FB               	goto	u2410
   750     01FA                     u2411:
   751     01FA  29F0               	goto	l1660
   752     01FB                     u2410:
   753     01FB                     l1664:
   754                           
   755                           ;adc4.c: 49:     int rem = dv%1023;
   756     01FB  30FF               	movlw	255
   757     01FC  00A4               	movwf	___awmod@divisor
   758     01FD  3003               	movlw	3
   759     01FE  00A5               	movwf	___awmod@divisor+1
   760     01FF  1683               	bsf	3,5	;RP0=1, select bank1
   761     0200  1303               	bcf	3,6	;RP1=0, select bank1
   762     0201  083D               	movf	(_dv+1)^(0+128),w
   763     0202  1283               	bcf	3,5	;RP0=0, select bank0
   764     0203  1303               	bcf	3,6	;RP1=0, select bank0
   765     0204  00A7               	movwf	___awmod@dividend+1
   766     0205  1683               	bsf	3,5	;RP0=1, select bank1
   767     0206  1303               	bcf	3,6	;RP1=0, select bank1
   768     0207  083C               	movf	_dv^(0+128),w
   769     0208  1283               	bcf	3,5	;RP0=0, select bank0
   770     0209  1303               	bcf	3,6	;RP1=0, select bank0
   771     020A  00A6               	movwf	___awmod@dividend
   772     020B  120A  158A  260C  120A  118A  	fcall	___awmod
   773     0210  1283               	bcf	3,5	;RP0=0, select bank0
   774     0211  1303               	bcf	3,6	;RP1=0, select bank0
   775     0212  0825               	movf	?___awmod+1,w
   776     0213  1683               	bsf	3,5	;RP0=1, select bank1
   777     0214  1303               	bcf	3,6	;RP1=0, select bank1
   778     0215  00A1               	movwf	(adc@rem+1)^(0+128)
   779     0216  1283               	bcf	3,5	;RP0=0, select bank0
   780     0217  1303               	bcf	3,6	;RP1=0, select bank0
   781     0218  0824               	movf	?___awmod,w
   782     0219  1683               	bsf	3,5	;RP0=1, select bank1
   783     021A  1303               	bcf	3,6	;RP1=0, select bank1
   784     021B  00A0               	movwf	adc@rem^(0+128)
   785                           
   786                           ;adc4.c: 50:     lcd(0,0x80);
   787     021C  3080               	movlw	128
   788     021D  00F2               	movwf	lcd@data
   789     021E  3000               	movlw	0
   790     021F  120A  158A  2567  120A  118A  	fcall	_lcd
   791                           
   792                           ;adc4.c: 51:     int x = dv/1000;
   793     0224  30E8               	movlw	232
   794     0225  00F6               	movwf	___awdiv@divisor
   795     0226  3003               	movlw	3
   796     0227  00F7               	movwf	___awdiv@divisor+1
   797     0228  1683               	bsf	3,5	;RP0=1, select bank1
   798     0229  1303               	bcf	3,6	;RP1=0, select bank1
   799     022A  083D               	movf	(_dv+1)^(0+128),w
   800     022B  00F9               	movwf	___awdiv@dividend+1
   801     022C  083C               	movf	_dv^(0+128),w
   802     022D  00F8               	movwf	___awdiv@dividend
   803     022E  120A  158A  2667  120A  118A  	fcall	___awdiv
   804     0233  0877               	movf	?___awdiv+1,w
   805     0234  1683               	bsf	3,5	;RP0=1, select bank1
   806     0235  1303               	bcf	3,6	;RP1=0, select bank1
   807     0236  00A3               	movwf	(adc@x+1)^(0+128)
   808     0237  0876               	movf	?___awdiv,w
   809     0238  00A2               	movwf	adc@x^(0+128)
   810                           
   811                           ;adc4.c: 52:     lcd(1,x+48);
   812     0239  0822               	movf	adc@x^(0+128),w
   813     023A  3E30               	addlw	48
   814     023B  00F2               	movwf	lcd@data
   815     023C  3001               	movlw	1
   816     023D  120A  158A  2567  120A  118A  	fcall	_lcd
   817                           
   818                           ;adc4.c: 53:     int y =((dv/100)%10);
   819     0242  300A               	movlw	10
   820     0243  1283               	bcf	3,5	;RP0=0, select bank0
   821     0244  1303               	bcf	3,6	;RP1=0, select bank0
   822     0245  00A4               	movwf	___awmod@divisor
   823     0246  3000               	movlw	0
   824     0247  00A5               	movwf	___awmod@divisor+1
   825     0248  3064               	movlw	100
   826     0249  00F6               	movwf	___awdiv@divisor
   827     024A  3000               	movlw	0
   828     024B  00F7               	movwf	___awdiv@divisor+1
   829     024C  1683               	bsf	3,5	;RP0=1, select bank1
   830     024D  1303               	bcf	3,6	;RP1=0, select bank1
   831     024E  083D               	movf	(_dv+1)^(0+128),w
   832     024F  00F9               	movwf	___awdiv@dividend+1
   833     0250  083C               	movf	_dv^(0+128),w
   834     0251  00F8               	movwf	___awdiv@dividend
   835     0252  120A  158A  2667  120A  118A  	fcall	___awdiv
   836     0257  0877               	movf	?___awdiv+1,w
   837     0258  1283               	bcf	3,5	;RP0=0, select bank0
   838     0259  1303               	bcf	3,6	;RP1=0, select bank0
   839     025A  00A7               	movwf	___awmod@dividend+1
   840     025B  0876               	movf	?___awdiv,w
   841     025C  00A6               	movwf	___awmod@dividend
   842     025D  120A  158A  260C  120A  118A  	fcall	___awmod
   843     0262  1283               	bcf	3,5	;RP0=0, select bank0
   844     0263  1303               	bcf	3,6	;RP1=0, select bank0
   845     0264  0825               	movf	?___awmod+1,w
   846     0265  1683               	bsf	3,5	;RP0=1, select bank1
   847     0266  1303               	bcf	3,6	;RP1=0, select bank1
   848     0267  00A5               	movwf	(adc@y+1)^(0+128)
   849     0268  1283               	bcf	3,5	;RP0=0, select bank0
   850     0269  1303               	bcf	3,6	;RP1=0, select bank0
   851     026A  0824               	movf	?___awmod,w
   852     026B  1683               	bsf	3,5	;RP0=1, select bank1
   853     026C  1303               	bcf	3,6	;RP1=0, select bank1
   854     026D  00A4               	movwf	adc@y^(0+128)
   855                           
   856                           ;adc4.c: 54:     lcd(1,y+48);
   857     026E  0824               	movf	adc@y^(0+128),w
   858     026F  3E30               	addlw	48
   859     0270  00F2               	movwf	lcd@data
   860     0271  3001               	movlw	1
   861     0272  120A  158A  2567  120A  118A  	fcall	_lcd
   862                           
   863                           ;adc4.c: 55:     int z =((dv/10)%10);
   864     0277  300A               	movlw	10
   865     0278  1283               	bcf	3,5	;RP0=0, select bank0
   866     0279  1303               	bcf	3,6	;RP1=0, select bank0
   867     027A  00A4               	movwf	___awmod@divisor
   868     027B  3000               	movlw	0
   869     027C  00A5               	movwf	___awmod@divisor+1
   870     027D  300A               	movlw	10
   871     027E  00F6               	movwf	___awdiv@divisor
   872     027F  3000               	movlw	0
   873     0280  00F7               	movwf	___awdiv@divisor+1
   874     0281  1683               	bsf	3,5	;RP0=1, select bank1
   875     0282  1303               	bcf	3,6	;RP1=0, select bank1
   876     0283  083D               	movf	(_dv+1)^(0+128),w
   877     0284  00F9               	movwf	___awdiv@dividend+1
   878     0285  083C               	movf	_dv^(0+128),w
   879     0286  00F8               	movwf	___awdiv@dividend
   880     0287  120A  158A  2667  120A  118A  	fcall	___awdiv
   881     028C  0877               	movf	?___awdiv+1,w
   882     028D  1283               	bcf	3,5	;RP0=0, select bank0
   883     028E  1303               	bcf	3,6	;RP1=0, select bank0
   884     028F  00A7               	movwf	___awmod@dividend+1
   885     0290  0876               	movf	?___awdiv,w
   886     0291  00A6               	movwf	___awmod@dividend
   887     0292  120A  158A  260C  120A  118A  	fcall	___awmod
   888     0297  1283               	bcf	3,5	;RP0=0, select bank0
   889     0298  1303               	bcf	3,6	;RP1=0, select bank0
   890     0299  0825               	movf	?___awmod+1,w
   891     029A  1683               	bsf	3,5	;RP0=1, select bank1
   892     029B  1303               	bcf	3,6	;RP1=0, select bank1
   893     029C  00A7               	movwf	(adc@z+1)^(0+128)
   894     029D  1283               	bcf	3,5	;RP0=0, select bank0
   895     029E  1303               	bcf	3,6	;RP1=0, select bank0
   896     029F  0824               	movf	?___awmod,w
   897     02A0  1683               	bsf	3,5	;RP0=1, select bank1
   898     02A1  1303               	bcf	3,6	;RP1=0, select bank1
   899     02A2  00A6               	movwf	adc@z^(0+128)
   900                           
   901                           ;adc4.c: 56:     lcd(1,z+48);
   902     02A3  0826               	movf	adc@z^(0+128),w
   903     02A4  3E30               	addlw	48
   904     02A5  00F2               	movwf	lcd@data
   905     02A6  3001               	movlw	1
   906     02A7  120A  158A  2567  120A  118A  	fcall	_lcd
   907                           
   908                           ;adc4.c: 57:     int w = dv%10;
   909     02AC  300A               	movlw	10
   910     02AD  1283               	bcf	3,5	;RP0=0, select bank0
   911     02AE  1303               	bcf	3,6	;RP1=0, select bank0
   912     02AF  00A4               	movwf	___awmod@divisor
   913     02B0  3000               	movlw	0
   914     02B1  00A5               	movwf	___awmod@divisor+1
   915     02B2  1683               	bsf	3,5	;RP0=1, select bank1
   916     02B3  1303               	bcf	3,6	;RP1=0, select bank1
   917     02B4  083D               	movf	(_dv+1)^(0+128),w
   918     02B5  1283               	bcf	3,5	;RP0=0, select bank0
   919     02B6  1303               	bcf	3,6	;RP1=0, select bank0
   920     02B7  00A7               	movwf	___awmod@dividend+1
   921     02B8  1683               	bsf	3,5	;RP0=1, select bank1
   922     02B9  1303               	bcf	3,6	;RP1=0, select bank1
   923     02BA  083C               	movf	_dv^(0+128),w
   924     02BB  1283               	bcf	3,5	;RP0=0, select bank0
   925     02BC  1303               	bcf	3,6	;RP1=0, select bank0
   926     02BD  00A6               	movwf	___awmod@dividend
   927     02BE  120A  158A  260C  120A  118A  	fcall	___awmod
   928     02C3  1283               	bcf	3,5	;RP0=0, select bank0
   929     02C4  1303               	bcf	3,6	;RP1=0, select bank0
   930     02C5  0825               	movf	?___awmod+1,w
   931     02C6  1683               	bsf	3,5	;RP0=1, select bank1
   932     02C7  1303               	bcf	3,6	;RP1=0, select bank1
   933     02C8  00A9               	movwf	(adc@w+1)^(0+128)
   934     02C9  1283               	bcf	3,5	;RP0=0, select bank0
   935     02CA  1303               	bcf	3,6	;RP1=0, select bank0
   936     02CB  0824               	movf	?___awmod,w
   937     02CC  1683               	bsf	3,5	;RP0=1, select bank1
   938     02CD  1303               	bcf	3,6	;RP1=0, select bank1
   939     02CE  00A8               	movwf	adc@w^(0+128)
   940                           
   941                           ;adc4.c: 58:     lcd(1,w+48);
   942     02CF  0828               	movf	adc@w^(0+128),w
   943     02D0  3E30               	addlw	48
   944     02D1  00F2               	movwf	lcd@data
   945     02D2  3001               	movlw	1
   946     02D3  120A  158A  2567  120A  118A  	fcall	_lcd
   947                           
   948                           ;adc4.c: 59:     lcd(1,'.');
   949     02D8  302E               	movlw	46
   950     02D9  00F2               	movwf	lcd@data
   951     02DA  3001               	movlw	1
   952     02DB  120A  158A  2567  120A  118A  	fcall	_lcd
   953                           
   954                           ;adc4.c: 60:     int v = (rem*10)/1023;
   955     02E0  30FF               	movlw	255
   956     02E1  00F6               	movwf	___awdiv@divisor
   957     02E2  3003               	movlw	3
   958     02E3  00F7               	movwf	___awdiv@divisor+1
   959     02E4  1683               	bsf	3,5	;RP0=1, select bank1
   960     02E5  1303               	bcf	3,6	;RP1=0, select bank1
   961     02E6  0821               	movf	(adc@rem+1)^(0+128),w
   962     02E7  00F1               	movwf	___wmul@multiplier+1
   963     02E8  0820               	movf	adc@rem^(0+128),w
   964     02E9  00F0               	movwf	___wmul@multiplier
   965     02EA  300A               	movlw	10
   966     02EB  00F2               	movwf	___wmul@multiplicand
   967     02EC  3000               	movlw	0
   968     02ED  00F3               	movwf	___wmul@multiplicand+1
   969     02EE  120A  158A  258B  120A  118A  	fcall	___wmul
   970     02F3  0871               	movf	?___wmul+1,w
   971     02F4  00F9               	movwf	___awdiv@dividend+1
   972     02F5  0870               	movf	?___wmul,w
   973     02F6  00F8               	movwf	___awdiv@dividend
   974     02F7  120A  158A  2667  120A  118A  	fcall	___awdiv
   975     02FC  0877               	movf	?___awdiv+1,w
   976     02FD  1683               	bsf	3,5	;RP0=1, select bank1
   977     02FE  1303               	bcf	3,6	;RP1=0, select bank1
   978     02FF  00AB               	movwf	(adc@v+1)^(0+128)
   979     0300  0876               	movf	?___awdiv,w
   980     0301  00AA               	movwf	adc@v^(0+128)
   981                           
   982                           ;adc4.c: 61:     lcd(1,v+48);
   983     0302  082A               	movf	adc@v^(0+128),w
   984     0303  3E30               	addlw	48
   985     0304  00F2               	movwf	lcd@data
   986     0305  3001               	movlw	1
   987     0306  120A  158A  2567  120A  118A  	fcall	_lcd
   988                           
   989                           ;adc4.c: 63:     lcd(1,' ');
   990     030B  3020               	movlw	32
   991     030C  00F2               	movwf	lcd@data
   992     030D  3001               	movlw	1
   993     030E  120A  158A  2567  120A  118A  	fcall	_lcd
   994                           
   995                           ;adc4.c: 65:     int vlt=((dv*5)/1023);
   996     0313  30FF               	movlw	255
   997     0314  00F6               	movwf	___awdiv@divisor
   998     0315  3003               	movlw	3
   999     0316  00F7               	movwf	___awdiv@divisor+1
  1000     0317  1683               	bsf	3,5	;RP0=1, select bank1
  1001     0318  1303               	bcf	3,6	;RP1=0, select bank1
  1002     0319  083D               	movf	(_dv+1)^(0+128),w
  1003     031A  00F1               	movwf	___wmul@multiplier+1
  1004     031B  083C               	movf	_dv^(0+128),w
  1005     031C  00F0               	movwf	___wmul@multiplier
  1006     031D  3005               	movlw	5
  1007     031E  00F2               	movwf	___wmul@multiplicand
  1008     031F  3000               	movlw	0
  1009     0320  00F3               	movwf	___wmul@multiplicand+1
  1010     0321  120A  158A  258B  120A  118A  	fcall	___wmul
  1011     0326  0871               	movf	?___wmul+1,w
  1012     0327  00F9               	movwf	___awdiv@dividend+1
  1013     0328  0870               	movf	?___wmul,w
  1014     0329  00F8               	movwf	___awdiv@dividend
  1015     032A  120A  158A  2667  120A  118A  	fcall	___awdiv
  1016     032F  0877               	movf	?___awdiv+1,w
  1017     0330  1683               	bsf	3,5	;RP0=1, select bank1
  1018     0331  1303               	bcf	3,6	;RP1=0, select bank1
  1019     0332  00AD               	movwf	(adc@vlt+1)^(0+128)
  1020     0333  0876               	movf	?___awdiv,w
  1021     0334  00AC               	movwf	adc@vlt^(0+128)
  1022                           
  1023                           ;adc4.c: 66:     int p = vlt%10;
  1024     0335  300A               	movlw	10
  1025     0336  1283               	bcf	3,5	;RP0=0, select bank0
  1026     0337  1303               	bcf	3,6	;RP1=0, select bank0
  1027     0338  00A4               	movwf	___awmod@divisor
  1028     0339  3000               	movlw	0
  1029     033A  00A5               	movwf	___awmod@divisor+1
  1030     033B  1683               	bsf	3,5	;RP0=1, select bank1
  1031     033C  1303               	bcf	3,6	;RP1=0, select bank1
  1032     033D  082D               	movf	(adc@vlt+1)^(0+128),w
  1033     033E  1283               	bcf	3,5	;RP0=0, select bank0
  1034     033F  1303               	bcf	3,6	;RP1=0, select bank0
  1035     0340  00A7               	movwf	___awmod@dividend+1
  1036     0341  1683               	bsf	3,5	;RP0=1, select bank1
  1037     0342  1303               	bcf	3,6	;RP1=0, select bank1
  1038     0343  082C               	movf	adc@vlt^(0+128),w
  1039     0344  1283               	bcf	3,5	;RP0=0, select bank0
  1040     0345  1303               	bcf	3,6	;RP1=0, select bank0
  1041     0346  00A6               	movwf	___awmod@dividend
  1042     0347  120A  158A  260C  120A  118A  	fcall	___awmod
  1043     034C  1283               	bcf	3,5	;RP0=0, select bank0
  1044     034D  1303               	bcf	3,6	;RP1=0, select bank0
  1045     034E  0825               	movf	?___awmod+1,w
  1046     034F  1683               	bsf	3,5	;RP0=1, select bank1
  1047     0350  1303               	bcf	3,6	;RP1=0, select bank1
  1048     0351  00AF               	movwf	(adc@p+1)^(0+128)
  1049     0352  1283               	bcf	3,5	;RP0=0, select bank0
  1050     0353  1303               	bcf	3,6	;RP1=0, select bank0
  1051     0354  0824               	movf	?___awmod,w
  1052     0355  1683               	bsf	3,5	;RP0=1, select bank1
  1053     0356  1303               	bcf	3,6	;RP1=0, select bank1
  1054     0357  00AE               	movwf	adc@p^(0+128)
  1055                           
  1056                           ;adc4.c: 67:     lcd(1,p+48);
  1057     0358  082E               	movf	adc@p^(0+128),w
  1058     0359  3E30               	addlw	48
  1059     035A  00F2               	movwf	lcd@data
  1060     035B  3001               	movlw	1
  1061     035C  120A  158A  2567  120A  118A  	fcall	_lcd
  1062                           
  1063                           ;adc4.c: 68:     lcd(1,'.');
  1064     0361  302E               	movlw	46
  1065     0362  00F2               	movwf	lcd@data
  1066     0363  3001               	movlw	1
  1067     0364  120A  158A  2567  120A  118A  	fcall	_lcd
  1068                           
  1069                           ;adc4.c: 69:     int q = (((dv*5)%1023)*10)/1023;
  1070     0369  1683               	bsf	3,5	;RP0=1, select bank1
  1071     036A  1303               	bcf	3,6	;RP1=0, select bank1
  1072     036B  083D               	movf	(_dv+1)^(0+128),w
  1073     036C  00F1               	movwf	___wmul@multiplier+1
  1074     036D  083C               	movf	_dv^(0+128),w
  1075     036E  00F0               	movwf	___wmul@multiplier
  1076     036F  3005               	movlw	5
  1077     0370  00F2               	movwf	___wmul@multiplicand
  1078     0371  3000               	movlw	0
  1079     0372  00F3               	movwf	___wmul@multiplicand+1
  1080     0373  120A  158A  258B  120A  118A  	fcall	___wmul
  1081     0378  0871               	movf	?___wmul+1,w
  1082     0379  1283               	bcf	3,5	;RP0=0, select bank0
  1083     037A  1303               	bcf	3,6	;RP1=0, select bank0
  1084     037B  00A7               	movwf	___awmod@dividend+1
  1085     037C  0870               	movf	?___wmul,w
  1086     037D  00A6               	movwf	___awmod@dividend
  1087     037E  30FF               	movlw	255
  1088     037F  00A4               	movwf	___awmod@divisor
  1089     0380  3003               	movlw	3
  1090     0381  00A5               	movwf	___awmod@divisor+1
  1091     0382  120A  158A  260C  120A  118A  	fcall	___awmod
  1092     0387  1283               	bcf	3,5	;RP0=0, select bank0
  1093     0388  1303               	bcf	3,6	;RP1=0, select bank0
  1094     0389  0825               	movf	?___awmod+1,w
  1095     038A  1683               	bsf	3,5	;RP0=1, select bank1
  1096     038B  1303               	bcf	3,6	;RP1=0, select bank1
  1097     038C  00B9               	movwf	(_adc$671+1)^(0+128)
  1098     038D  1283               	bcf	3,5	;RP0=0, select bank0
  1099     038E  1303               	bcf	3,6	;RP1=0, select bank0
  1100     038F  0824               	movf	?___awmod,w
  1101     0390  1683               	bsf	3,5	;RP0=1, select bank1
  1102     0391  1303               	bcf	3,6	;RP1=0, select bank1
  1103     0392  00B8               	movwf	_adc$671^(0+128)
  1104                           
  1105                           ;adc4.c: 69:     int q = (((dv*5)%1023)*10)/1023;
  1106     0393  30FF               	movlw	255
  1107     0394  00F6               	movwf	___awdiv@divisor
  1108     0395  3003               	movlw	3
  1109     0396  00F7               	movwf	___awdiv@divisor+1
  1110     0397  0839               	movf	(_adc$671+1)^(0+128),w
  1111     0398  00F1               	movwf	___wmul@multiplier+1
  1112     0399  0838               	movf	_adc$671^(0+128),w
  1113     039A  00F0               	movwf	___wmul@multiplier
  1114     039B  300A               	movlw	10
  1115     039C  00F2               	movwf	___wmul@multiplicand
  1116     039D  3000               	movlw	0
  1117     039E  00F3               	movwf	___wmul@multiplicand+1
  1118     039F  120A  158A  258B  120A  118A  	fcall	___wmul
  1119     03A4  0871               	movf	?___wmul+1,w
  1120     03A5  00F9               	movwf	___awdiv@dividend+1
  1121     03A6  0870               	movf	?___wmul,w
  1122     03A7  00F8               	movwf	___awdiv@dividend
  1123     03A8  120A  158A  2667  120A  118A  	fcall	___awdiv
  1124     03AD  0877               	movf	?___awdiv+1,w
  1125     03AE  1683               	bsf	3,5	;RP0=1, select bank1
  1126     03AF  1303               	bcf	3,6	;RP1=0, select bank1
  1127     03B0  00B1               	movwf	(adc@q+1)^(0+128)
  1128     03B1  0876               	movf	?___awdiv,w
  1129     03B2  00B0               	movwf	adc@q^(0+128)
  1130                           
  1131                           ;adc4.c: 70:     lcd(1,q+48);
  1132     03B3  0830               	movf	adc@q^(0+128),w
  1133     03B4  3E30               	addlw	48
  1134     03B5  00F2               	movwf	lcd@data
  1135     03B6  3001               	movlw	1
  1136     03B7  120A  158A  2567  120A  118A  	fcall	_lcd
  1137                           
  1138                           ;adc4.c: 72:     lcd(1,' ');
  1139     03BC  3020               	movlw	32
  1140     03BD  00F2               	movwf	lcd@data
  1141     03BE  3001               	movlw	1
  1142     03BF  120A  158A  2567  120A  118A  	fcall	_lcd
  1143     03C4                     l1666:
  1144                           
  1145                           ;adc4.c: 74:     int res=(((float)dv)*100.0)/1023.0;
  1146     03C4  1683               	bsf	3,5	;RP0=1, select bank1
  1147     03C5  1303               	bcf	3,6	;RP1=0, select bank1
  1148     03C6  083C               	movf	_dv^(0+128),w
  1149     03C7  00F0               	movwf	___xxtofl@val
  1150     03C8  083D               	movf	(_dv+1)^(0+128),w
  1151     03C9  00F1               	movwf	___xxtofl@val+1
  1152     03CA  3000               	movlw	0
  1153     03CB  1BF1               	btfsc	___xxtofl@val+1,7
  1154     03CC  30FF               	movlw	255
  1155     03CD  00F2               	movwf	___xxtofl@val+2
  1156     03CE  00F3               	movwf	___xxtofl@val+3
  1157     03CF  3001               	movlw	1
  1158     03D0  120A  158A  2748  120A  118A  	fcall	___xxtofl
  1159     03D5  0873               	movf	?___xxtofl+3,w
  1160     03D6  1283               	bcf	3,5	;RP0=0, select bank0
  1161     03D7  1303               	bcf	3,6	;RP1=0, select bank0
  1162     03D8  00A7               	movwf	___flmul@a+3
  1163     03D9  0872               	movf	?___xxtofl+2,w
  1164     03DA  00A6               	movwf	___flmul@a+2
  1165     03DB  0871               	movf	?___xxtofl+1,w
  1166     03DC  00A5               	movwf	___flmul@a+1
  1167     03DD  0870               	movf	?___xxtofl,w
  1168     03DE  00A4               	movwf	___flmul@a
  1169     03DF  3042               	movlw	66
  1170     03E0  00A3               	movwf	___flmul@b+3
  1171     03E1  30C8               	movlw	200
  1172     03E2  00A2               	movwf	___flmul@b+2
  1173     03E3  3000               	movlw	0
  1174     03E4  00A1               	movwf	___flmul@b+1
  1175     03E5  3000               	movlw	0
  1176     03E6  00A0               	movwf	___flmul@b
  1177     03E7  120A  118A  24B3  120A  118A  	fcall	___flmul
  1178     03EC  1283               	bcf	3,5	;RP0=0, select bank0
  1179     03ED  1303               	bcf	3,6	;RP1=0, select bank0
  1180     03EE  0823               	movf	?___flmul+3,w
  1181     03EF  00C1               	movwf	___fldiv@b+3
  1182     03F0  0822               	movf	?___flmul+2,w
  1183     03F1  00C0               	movwf	___fldiv@b+2
  1184     03F2  0821               	movf	?___flmul+1,w
  1185     03F3  00BF               	movwf	___fldiv@b+1
  1186     03F4  0820               	movf	?___flmul,w
  1187     03F5  00BE               	movwf	___fldiv@b
  1188     03F6  3044               	movlw	68
  1189     03F7  00BD               	movwf	___fldiv@a+3
  1190     03F8  307F               	movlw	127
  1191     03F9  00BC               	movwf	___fldiv@a+2
  1192     03FA  30C0               	movlw	192
  1193     03FB  00BB               	movwf	___fldiv@a+1
  1194     03FC  3000               	movlw	0
  1195     03FD  00BA               	movwf	___fldiv@a
  1196     03FE  120A  118A  2019  120A  118A  	fcall	___fldiv
  1197     0403  1283               	bcf	3,5	;RP0=0, select bank0
  1198     0404  1303               	bcf	3,6	;RP1=0, select bank0
  1199     0405  083D               	movf	?___fldiv+3,w
  1200     0406  00D7               	movwf	___fltol@f1+3
  1201     0407  083C               	movf	?___fldiv+2,w
  1202     0408  00D6               	movwf	___fltol@f1+2
  1203     0409  083B               	movf	?___fldiv+1,w
  1204     040A  00D5               	movwf	___fltol@f1+1
  1205     040B  083A               	movf	?___fldiv,w
  1206     040C  00D4               	movwf	___fltol@f1
  1207     040D  120A  158A  26D0  120A  118A  	fcall	___fltol
  1208     0412  1283               	bcf	3,5	;RP0=0, select bank0
  1209     0413  1303               	bcf	3,6	;RP1=0, select bank0
  1210     0414  0855               	movf	?___fltol+1,w
  1211     0415  1683               	bsf	3,5	;RP0=1, select bank1
  1212     0416  1303               	bcf	3,6	;RP1=0, select bank1
  1213     0417  00BB               	movwf	(adc@res+1)^(0+128)
  1214     0418  1283               	bcf	3,5	;RP0=0, select bank0
  1215     0419  1303               	bcf	3,6	;RP1=0, select bank0
  1216     041A  0854               	movf	?___fltol,w
  1217     041B  1683               	bsf	3,5	;RP0=1, select bank1
  1218     041C  1303               	bcf	3,6	;RP1=0, select bank1
  1219     041D  00BA               	movwf	adc@res^(0+128)
  1220     041E                     l1668:
  1221                           
  1222                           ;adc4.c: 75:     if(res>99)
  1223     041E  083B               	movf	(adc@res+1)^(0+128),w
  1224     041F  3A80               	xorlw	128
  1225     0420  00FF               	movwf	btemp+1
  1226     0421  3080               	movlw	128
  1227     0422  027F               	subwf	btemp+1,w
  1228     0423  1D03               	skipz
  1229     0424  2C27               	goto	u2425
  1230     0425  3064               	movlw	100
  1231     0426  023A               	subwf	adc@res^(0+128),w
  1232     0427                     u2425:
  1233     0427  1C03               	skipc
  1234     0428  2C2A               	goto	u2421
  1235     0429  2C2B               	goto	u2420
  1236     042A                     u2421:
  1237     042A  2C49               	goto	l47
  1238     042B                     u2420:
  1239     042B                     l1670:
  1240                           
  1241                           ;adc4.c: 76:     {;adc4.c: 77:         int b = (res/100);
  1242     042B  3064               	movlw	100
  1243     042C  00F6               	movwf	___awdiv@divisor
  1244     042D  3000               	movlw	0
  1245     042E  00F7               	movwf	___awdiv@divisor+1
  1246     042F  1683               	bsf	3,5	;RP0=1, select bank1
  1247     0430  1303               	bcf	3,6	;RP1=0, select bank1
  1248     0431  083B               	movf	(adc@res+1)^(0+128),w
  1249     0432  00F9               	movwf	___awdiv@dividend+1
  1250     0433  083A               	movf	adc@res^(0+128),w
  1251     0434  00F8               	movwf	___awdiv@dividend
  1252     0435  120A  158A  2667  120A  118A  	fcall	___awdiv
  1253     043A  0877               	movf	?___awdiv+1,w
  1254     043B  1683               	bsf	3,5	;RP0=1, select bank1
  1255     043C  1303               	bcf	3,6	;RP1=0, select bank1
  1256     043D  00B3               	movwf	(adc@b+1)^(0+128)
  1257     043E  0876               	movf	?___awdiv,w
  1258     043F  00B2               	movwf	adc@b^(0+128)
  1259                           
  1260                           ;adc4.c: 78:         lcd(1,b+48);
  1261     0440  0832               	movf	adc@b^(0+128),w
  1262     0441  3E30               	addlw	48
  1263     0442  00F2               	movwf	lcd@data
  1264     0443  3001               	movlw	1
  1265     0444  120A  158A  2567  120A  118A  	fcall	_lcd
  1266     0449                     l47:	
  1267                           ;adc4.c: 79:     }
  1268                           
  1269                           
  1270                           ;adc4.c: 80:     int c = ((res/10)%10);
  1271     0449  300A               	movlw	10
  1272     044A  1283               	bcf	3,5	;RP0=0, select bank0
  1273     044B  1303               	bcf	3,6	;RP1=0, select bank0
  1274     044C  00A4               	movwf	___awmod@divisor
  1275     044D  3000               	movlw	0
  1276     044E  00A5               	movwf	___awmod@divisor+1
  1277     044F  300A               	movlw	10
  1278     0450  00F6               	movwf	___awdiv@divisor
  1279     0451  3000               	movlw	0
  1280     0452  00F7               	movwf	___awdiv@divisor+1
  1281     0453  1683               	bsf	3,5	;RP0=1, select bank1
  1282     0454  1303               	bcf	3,6	;RP1=0, select bank1
  1283     0455  083B               	movf	(adc@res+1)^(0+128),w
  1284     0456  00F9               	movwf	___awdiv@dividend+1
  1285     0457  083A               	movf	adc@res^(0+128),w
  1286     0458  00F8               	movwf	___awdiv@dividend
  1287     0459  120A  158A  2667  120A  118A  	fcall	___awdiv
  1288     045E  0877               	movf	?___awdiv+1,w
  1289     045F  1283               	bcf	3,5	;RP0=0, select bank0
  1290     0460  1303               	bcf	3,6	;RP1=0, select bank0
  1291     0461  00A7               	movwf	___awmod@dividend+1
  1292     0462  0876               	movf	?___awdiv,w
  1293     0463  00A6               	movwf	___awmod@dividend
  1294     0464  120A  158A  260C  120A  118A  	fcall	___awmod
  1295     0469  1283               	bcf	3,5	;RP0=0, select bank0
  1296     046A  1303               	bcf	3,6	;RP1=0, select bank0
  1297     046B  0825               	movf	?___awmod+1,w
  1298     046C  1683               	bsf	3,5	;RP0=1, select bank1
  1299     046D  1303               	bcf	3,6	;RP1=0, select bank1
  1300     046E  00B5               	movwf	(adc@c+1)^(0+128)
  1301     046F  1283               	bcf	3,5	;RP0=0, select bank0
  1302     0470  1303               	bcf	3,6	;RP1=0, select bank0
  1303     0471  0824               	movf	?___awmod,w
  1304     0472  1683               	bsf	3,5	;RP0=1, select bank1
  1305     0473  1303               	bcf	3,6	;RP1=0, select bank1
  1306     0474  00B4               	movwf	adc@c^(0+128)
  1307                           
  1308                           ;adc4.c: 81:     lcd(1,c+48);
  1309     0475  0834               	movf	adc@c^(0+128),w
  1310     0476  3E30               	addlw	48
  1311     0477  00F2               	movwf	lcd@data
  1312     0478  3001               	movlw	1
  1313     0479  120A  158A  2567  120A  118A  	fcall	_lcd
  1314                           
  1315                           ;adc4.c: 82:     int d = res%10;
  1316     047E  300A               	movlw	10
  1317     047F  1283               	bcf	3,5	;RP0=0, select bank0
  1318     0480  1303               	bcf	3,6	;RP1=0, select bank0
  1319     0481  00A4               	movwf	___awmod@divisor
  1320     0482  3000               	movlw	0
  1321     0483  00A5               	movwf	___awmod@divisor+1
  1322     0484  1683               	bsf	3,5	;RP0=1, select bank1
  1323     0485  1303               	bcf	3,6	;RP1=0, select bank1
  1324     0486  083B               	movf	(adc@res+1)^(0+128),w
  1325     0487  1283               	bcf	3,5	;RP0=0, select bank0
  1326     0488  1303               	bcf	3,6	;RP1=0, select bank0
  1327     0489  00A7               	movwf	___awmod@dividend+1
  1328     048A  1683               	bsf	3,5	;RP0=1, select bank1
  1329     048B  1303               	bcf	3,6	;RP1=0, select bank1
  1330     048C  083A               	movf	adc@res^(0+128),w
  1331     048D  1283               	bcf	3,5	;RP0=0, select bank0
  1332     048E  1303               	bcf	3,6	;RP1=0, select bank0
  1333     048F  00A6               	movwf	___awmod@dividend
  1334     0490  120A  158A  260C  120A  118A  	fcall	___awmod
  1335     0495  1283               	bcf	3,5	;RP0=0, select bank0
  1336     0496  1303               	bcf	3,6	;RP1=0, select bank0
  1337     0497  0825               	movf	?___awmod+1,w
  1338     0498  1683               	bsf	3,5	;RP0=1, select bank1
  1339     0499  1303               	bcf	3,6	;RP1=0, select bank1
  1340     049A  00B7               	movwf	(adc@d+1)^(0+128)
  1341     049B  1283               	bcf	3,5	;RP0=0, select bank0
  1342     049C  1303               	bcf	3,6	;RP1=0, select bank0
  1343     049D  0824               	movf	?___awmod,w
  1344     049E  1683               	bsf	3,5	;RP0=1, select bank1
  1345     049F  1303               	bcf	3,6	;RP1=0, select bank1
  1346     04A0  00B6               	movwf	adc@d^(0+128)
  1347                           
  1348                           ;adc4.c: 83:     lcd(1,d+48);
  1349     04A1  0836               	movf	adc@d^(0+128),w
  1350     04A2  3E30               	addlw	48
  1351     04A3  00F2               	movwf	lcd@data
  1352     04A4  3001               	movlw	1
  1353     04A5  120A  158A  2567  120A  118A  	fcall	_lcd
  1354                           
  1355                           ;adc4.c: 84:     lcd(1,'%');
  1356     04AA  3025               	movlw	37
  1357     04AB  00F2               	movwf	lcd@data
  1358     04AC  3001               	movlw	1
  1359     04AD  120A  158A  2567  120A  118A  	fcall	_lcd
  1360     04B2                     l48:
  1361     04B2  0008               	return
  1362     04B3                     __end_of_adc:
  1363                           
  1364                           	psect	text2
  1365     0D67                     __ptext2:	
  1366 ;; *************** function _lcd *****************
  1367 ;; Defined at:
  1368 ;;		line 30 in file "adc4.c"
  1369 ;; Parameters:    Size  Location     Type
  1370 ;;  ra              1    wreg     unsigned char 
  1371 ;;  data            1    2[COMMON] unsigned char 
  1372 ;; Auto vars:     Size  Location     Type
  1373 ;;  ra              1    3[COMMON] unsigned char 
  1374 ;; Return value:  Size  Location     Type
  1375 ;;                  1    wreg      void 
  1376 ;; Registers used:
  1377 ;;		wreg, status,2, status,0, pclath, cstack
  1378 ;; Tracked objects:
  1379 ;;		On entry : 0/0
  1380 ;;		On exit  : 0/0
  1381 ;;		Unchanged: 0/0
  1382 ;; Data sizes:     COMMON   BANK0   BANK1   BANK3   BANK2
  1383 ;;      Params:         1       0       0       0       0
  1384 ;;      Locals:         1       0       0       0       0
  1385 ;;      Temps:          0       0       0       0       0
  1386 ;;      Totals:         2       0       0       0       0
  1387 ;;Total ram usage:        2 bytes
  1388 ;; Hardware stack levels used: 1
  1389 ;; Hardware stack levels required when called: 1
  1390 ;; This function calls:
  1391 ;;		_delay
  1392 ;; This function is called by:
  1393 ;;		_adc
  1394 ;;		_main
  1395 ;; This function uses a non-reentrant model
  1396 ;;
  1397                           
  1398     0D67                     _lcd:	
  1399                           ;psect for function _lcd
  1400                           
  1401                           
  1402                           ;incstack = 0
  1403                           ; Regs used in _lcd: [wreg+status,2+status,0+pclath+cstack]
  1404                           ;lcd@ra stored from wreg
  1405     0D67  00F3               	movwf	lcd@ra
  1406     0D68                     l1188:
  1407                           
  1408                           ;adc4.c: 30: void lcd(char ra,char data);adc4.c: 31: {;adc4.c: 32:     RE0 = ra;
  1409     0D68  1873               	btfsc	lcd@ra,0
  1410     0D69  2D6B               	goto	u1261
  1411     0D6A  2D6F               	goto	u1260
  1412     0D6B                     u1261:
  1413     0D6B  1283               	bcf	3,5	;RP0=0, select bank0
  1414     0D6C  1303               	bcf	3,6	;RP1=0, select bank0
  1415     0D6D  1409               	bsf	9,0	;volatile
  1416     0D6E  2D72               	goto	u1274
  1417     0D6F                     u1260:
  1418     0D6F  1283               	bcf	3,5	;RP0=0, select bank0
  1419     0D70  1303               	bcf	3,6	;RP1=0, select bank0
  1420     0D71  1009               	bcf	9,0	;volatile
  1421     0D72                     u1274:
  1422     0D72                     l1190:
  1423                           
  1424                           ;adc4.c: 33:     PORTD=data;
  1425     0D72  0872               	movf	lcd@data,w
  1426     0D73  0088               	movwf	8	;volatile
  1427     0D74                     l1192:
  1428                           
  1429                           ;adc4.c: 34:     RE1=1;
  1430     0D74  1489               	bsf	9,1	;volatile
  1431     0D75                     l1194:
  1432                           
  1433                           ;adc4.c: 35:     delay(100);
  1434     0D75  3064               	movlw	100
  1435     0D76  00F0               	movwf	delay@t
  1436     0D77  3000               	movlw	0
  1437     0D78  00F1               	movwf	delay@t+1
  1438     0D79  120A  118A  200A  120A  158A  	fcall	_delay
  1439     0D7E                     l1196:
  1440                           
  1441                           ;adc4.c: 36:     RE1=0;
  1442     0D7E  1283               	bcf	3,5	;RP0=0, select bank0
  1443     0D7F  1303               	bcf	3,6	;RP1=0, select bank0
  1444     0D80  1089               	bcf	9,1	;volatile
  1445     0D81                     l1198:
  1446                           
  1447                           ;adc4.c: 37:     delay(100);
  1448     0D81  3064               	movlw	100
  1449     0D82  00F0               	movwf	delay@t
  1450     0D83  3000               	movlw	0
  1451     0D84  00F1               	movwf	delay@t+1
  1452     0D85  120A  118A  200A  120A  158A  	fcall	_delay
  1453     0D8A                     l41:
  1454     0D8A  0008               	return
  1455     0D8B                     __end_of_lcd:
  1456                           
  1457                           	psect	text3
  1458     000A                     __ptext3:	
  1459 ;; *************** function _delay *****************
  1460 ;; Defined at:
  1461 ;;		line 25 in file "adc4.c"
  1462 ;; Parameters:    Size  Location     Type
  1463 ;;  t               2    0[COMMON] int 
  1464 ;; Auto vars:     Size  Location     Type
  1465 ;;		None
  1466 ;; Return value:  Size  Location     Type
  1467 ;;                  1    wreg      void 
  1468 ;; Registers used:
  1469 ;;		wreg, status,2, status,0
  1470 ;; Tracked objects:
  1471 ;;		On entry : 0/0
  1472 ;;		On exit  : 0/0
  1473 ;;		Unchanged: 0/0
  1474 ;; Data sizes:     COMMON   BANK0   BANK1   BANK3   BANK2
  1475 ;;      Params:         2       0       0       0       0
  1476 ;;      Locals:         0       0       0       0       0
  1477 ;;      Temps:          0       0       0       0       0
  1478 ;;      Totals:         2       0       0       0       0
  1479 ;;Total ram usage:        2 bytes
  1480 ;; Hardware stack levels used: 1
  1481 ;; This function calls:
  1482 ;;		Nothing
  1483 ;; This function is called by:
  1484 ;;		_lcd
  1485 ;; This function uses a non-reentrant model
  1486 ;;
  1487                           
  1488     000A                     _delay:	
  1489                           ;psect for function _delay
  1490                           
  1491     000A                     l1170:	
  1492                           ;incstack = 0
  1493                           ; Regs used in _delay: [wreg+status,2+status,0]
  1494                           
  1495     000A                     l1172:	
  1496                           ;adc4.c: 25: void delay(int t);adc4.c: 26: {;adc4.c: 27:     while(t--);
  1497                           
  1498     000A  30FF               	movlw	255
  1499     000B  07F0               	addwf	delay@t,f
  1500     000C  1803               	skipnc
  1501     000D  0AF1               	incf	delay@t+1,f
  1502     000E  30FF               	movlw	255
  1503     000F  07F1               	addwf	delay@t+1,f
  1504     0010  0A70               	incf	delay@t,w
  1505     0011  1D03               	skipz
  1506     0012  2817               	goto	u1221
  1507     0013  0A71               	incf	delay@t+1,w
  1508     0014  1D03               	btfss	3,2
  1509     0015  2817               	goto	u1221
  1510     0016  2818               	goto	u1220
  1511     0017                     u1221:
  1512     0017  280A               	goto	l1172
  1513     0018                     u1220:
  1514     0018                     l38:
  1515     0018  0008               	return
  1516     0019                     __end_of_delay:
  1517                           
  1518                           	psect	text4
  1519     0F48                     __ptext4:	
  1520 ;; *************** function ___xxtofl *****************
  1521 ;; Defined at:
  1522 ;;		line 10 in file "C:\Program Files\Microchip\xc8\v2.40\pic\sources\c90\common\xxtofl.c"
  1523 ;; Parameters:    Size  Location     Type
  1524 ;;  sign            1    wreg     unsigned char 
  1525 ;;  val             4    0[COMMON] long 
  1526 ;; Auto vars:     Size  Location     Type
  1527 ;;  sign            1    8[COMMON] unsigned char 
  1528 ;;  arg             4   10[COMMON] unsigned long 
  1529 ;;  exp             1    9[COMMON] unsigned char 
  1530 ;; Return value:  Size  Location     Type
  1531 ;;                  4    0[COMMON] unsigned char 
  1532 ;; Registers used:
  1533 ;;		wreg, status,2, status,0
  1534 ;; Tracked objects:
  1535 ;;		On entry : 0/0
  1536 ;;		On exit  : 0/0
  1537 ;;		Unchanged: 0/0
  1538 ;; Data sizes:     COMMON   BANK0   BANK1   BANK3   BANK2
  1539 ;;      Params:         4       0       0       0       0
  1540 ;;      Locals:         6       0       0       0       0
  1541 ;;      Temps:          4       0       0       0       0
  1542 ;;      Totals:        14       0       0       0       0
  1543 ;;Total ram usage:       14 bytes
  1544 ;; Hardware stack levels used: 1
  1545 ;; This function calls:
  1546 ;;		Nothing
  1547 ;; This function is called by:
  1548 ;;		_adc
  1549 ;; This function uses a non-reentrant model
  1550 ;;
  1551                           
  1552     0F48                     ___xxtofl:	
  1553                           ;psect for function ___xxtofl
  1554                           
  1555                           
  1556                           ;incstack = 0
  1557                           ; Regs used in ___xxtofl: [wreg+status,2+status,0]
  1558                           ;___xxtofl@sign stored from wreg
  1559     0F48  00F8               	movwf	___xxtofl@sign
  1560     0F49                     l1614:
  1561     0F49  0878               	movf	___xxtofl@sign,w
  1562     0F4A  1903               	btfsc	3,2
  1563     0F4B  2F4D               	goto	u2271
  1564     0F4C  2F4E               	goto	u2270
  1565     0F4D                     u2271:
  1566     0F4D  2F62               	goto	l1620
  1567     0F4E                     u2270:
  1568     0F4E                     l1616:
  1569     0F4E  1FF3               	btfss	___xxtofl@val+3,7
  1570     0F4F  2F51               	goto	u2281
  1571     0F50  2F52               	goto	u2280
  1572     0F51                     u2281:
  1573     0F51  2F62               	goto	l1620
  1574     0F52                     u2280:
  1575     0F52                     l1618:
  1576     0F52  0970               	comf	___xxtofl@val,w
  1577     0F53  00FA               	movwf	___xxtofl@arg
  1578     0F54  0971               	comf	___xxtofl@val+1,w
  1579     0F55  00FB               	movwf	___xxtofl@arg+1
  1580     0F56  0972               	comf	___xxtofl@val+2,w
  1581     0F57  00FC               	movwf	___xxtofl@arg+2
  1582     0F58  0973               	comf	___xxtofl@val+3,w
  1583     0F59  00FD               	movwf	___xxtofl@arg+3
  1584     0F5A  0AFA               	incf	___xxtofl@arg,f
  1585     0F5B  1903               	skipnz
  1586     0F5C  0AFB               	incf	___xxtofl@arg+1,f
  1587     0F5D  1903               	skipnz
  1588     0F5E  0AFC               	incf	___xxtofl@arg+2,f
  1589     0F5F  1903               	skipnz
  1590     0F60  0AFD               	incf	___xxtofl@arg+3,f
  1591     0F61  2F6A               	goto	l575
  1592     0F62                     l1620:
  1593     0F62  0873               	movf	___xxtofl@val+3,w
  1594     0F63  00FD               	movwf	___xxtofl@arg+3
  1595     0F64  0872               	movf	___xxtofl@val+2,w
  1596     0F65  00FC               	movwf	___xxtofl@arg+2
  1597     0F66  0871               	movf	___xxtofl@val+1,w
  1598     0F67  00FB               	movwf	___xxtofl@arg+1
  1599     0F68  0870               	movf	___xxtofl@val,w
  1600     0F69  00FA               	movwf	___xxtofl@arg
  1601     0F6A                     l575:
  1602     0F6A  0873               	movf	___xxtofl@val+3,w
  1603     0F6B  0472               	iorwf	___xxtofl@val+2,w
  1604     0F6C  0471               	iorwf	___xxtofl@val+1,w
  1605     0F6D  0470               	iorwf	___xxtofl@val,w
  1606     0F6E  1D03               	skipz
  1607     0F6F  2F71               	goto	u2291
  1608     0F70  2F72               	goto	u2290
  1609     0F71                     u2291:
  1610     0F71  2F7B               	goto	l1626
  1611     0F72                     u2290:
  1612     0F72                     l1622:
  1613     0F72  3000               	movlw	0
  1614     0F73  00F3               	movwf	?___xxtofl+3
  1615     0F74  3000               	movlw	0
  1616     0F75  00F2               	movwf	?___xxtofl+2
  1617     0F76  3000               	movlw	0
  1618     0F77  00F1               	movwf	?___xxtofl+1
  1619     0F78  3000               	movlw	0
  1620     0F79  00F0               	movwf	?___xxtofl
  1621     0F7A  2FFF               	goto	l577
  1622     0F7B                     l1626:
  1623     0F7B  3096               	movlw	150
  1624     0F7C  00F9               	movwf	___xxtofl@exp
  1625     0F7D  2F8B               	goto	l1630
  1626     0F7E                     l1628:
  1627     0F7E  3001               	movlw	1
  1628     0F7F  00F4               	movwf	??___xxtofl
  1629     0F80  0874               	movf	??___xxtofl,w
  1630     0F81  07F9               	addwf	___xxtofl@exp,f
  1631     0F82  3001               	movlw	1
  1632     0F83                     u2305:
  1633     0F83  1003               	clrc
  1634     0F84  0CFD               	rrf	___xxtofl@arg+3,f
  1635     0F85  0CFC               	rrf	___xxtofl@arg+2,f
  1636     0F86  0CFB               	rrf	___xxtofl@arg+1,f
  1637     0F87  0CFA               	rrf	___xxtofl@arg,f
  1638     0F88  3EFF               	addlw	-1
  1639     0F89  1D03               	skipz
  1640     0F8A  2F83               	goto	u2305
  1641     0F8B                     l1630:
  1642     0F8B  30FE               	movlw	254
  1643     0F8C  057D               	andwf	___xxtofl@arg+3,w
  1644     0F8D  1D03               	btfss	3,2
  1645     0F8E  2F90               	goto	u2311
  1646     0F8F  2F91               	goto	u2310
  1647     0F90                     u2311:
  1648     0F90  2F7E               	goto	l1628
  1649     0F91                     u2310:
  1650     0F91  2FAD               	goto	l581
  1651     0F92                     l1632:
  1652     0F92  3001               	movlw	1
  1653     0F93  00F4               	movwf	??___xxtofl
  1654     0F94  0874               	movf	??___xxtofl,w
  1655     0F95  07F9               	addwf	___xxtofl@exp,f
  1656     0F96                     l1634:
  1657     0F96  3001               	movlw	1
  1658     0F97  07FA               	addwf	___xxtofl@arg,f
  1659     0F98  3000               	movlw	0
  1660     0F99  1803               	skipnc
  1661     0F9A  3001               	movlw	1
  1662     0F9B  07FB               	addwf	___xxtofl@arg+1,f
  1663     0F9C  3000               	movlw	0
  1664     0F9D  1803               	skipnc
  1665     0F9E  3001               	movlw	1
  1666     0F9F  07FC               	addwf	___xxtofl@arg+2,f
  1667     0FA0  3000               	movlw	0
  1668     0FA1  1803               	skipnc
  1669     0FA2  3001               	movlw	1
  1670     0FA3  07FD               	addwf	___xxtofl@arg+3,f
  1671     0FA4                     l1636:
  1672     0FA4  3001               	movlw	1
  1673     0FA5                     u2325:
  1674     0FA5  1003               	clrc
  1675     0FA6  0CFD               	rrf	___xxtofl@arg+3,f
  1676     0FA7  0CFC               	rrf	___xxtofl@arg+2,f
  1677     0FA8  0CFB               	rrf	___xxtofl@arg+1,f
  1678     0FA9  0CFA               	rrf	___xxtofl@arg,f
  1679     0FAA  3EFF               	addlw	-1
  1680     0FAB  1D03               	skipz
  1681     0FAC  2FA5               	goto	u2325
  1682     0FAD                     l581:
  1683     0FAD  30FF               	movlw	255
  1684     0FAE  057D               	andwf	___xxtofl@arg+3,w
  1685     0FAF  1D03               	btfss	3,2
  1686     0FB0  2FB2               	goto	u2331
  1687     0FB1  2FB3               	goto	u2330
  1688     0FB2                     u2331:
  1689     0FB2  2F92               	goto	l1632
  1690     0FB3                     u2330:
  1691     0FB3  2FBF               	goto	l1640
  1692     0FB4                     l1638:
  1693     0FB4  3001               	movlw	1
  1694     0FB5  02F9               	subwf	___xxtofl@exp,f
  1695     0FB6  3001               	movlw	1
  1696     0FB7  00F4               	movwf	??___xxtofl
  1697     0FB8                     u2345:
  1698     0FB8  1003               	clrc
  1699     0FB9  0DFA               	rlf	___xxtofl@arg,f
  1700     0FBA  0DFB               	rlf	___xxtofl@arg+1,f
  1701     0FBB  0DFC               	rlf	___xxtofl@arg+2,f
  1702     0FBC  0DFD               	rlf	___xxtofl@arg+3,f
  1703     0FBD  0BF4               	decfsz	??___xxtofl,f
  1704     0FBE  2FB8               	goto	u2345
  1705     0FBF                     l1640:
  1706     0FBF  1BFC               	btfsc	___xxtofl@arg+2,7
  1707     0FC0  2FC2               	goto	u2351
  1708     0FC1  2FC3               	goto	u2350
  1709     0FC2                     u2351:
  1710     0FC2  2FC9               	goto	l588
  1711     0FC3                     u2350:
  1712     0FC3                     l1642:
  1713     0FC3  3002               	movlw	2
  1714     0FC4  0279               	subwf	___xxtofl@exp,w
  1715     0FC5  1803               	skipnc
  1716     0FC6  2FC8               	goto	u2361
  1717     0FC7  2FC9               	goto	u2360
  1718     0FC8                     u2361:
  1719     0FC8  2FB4               	goto	l1638
  1720     0FC9                     u2360:
  1721     0FC9                     l588:
  1722     0FC9  1879               	btfsc	___xxtofl@exp,0
  1723     0FCA  2FCC               	goto	u2371
  1724     0FCB  2FCD               	goto	u2370
  1725     0FCC                     u2371:
  1726     0FCC  2FD5               	goto	l589
  1727     0FCD                     u2370:
  1728     0FCD                     l1644:
  1729     0FCD  30FF               	movlw	255
  1730     0FCE  05FA               	andwf	___xxtofl@arg,f
  1731     0FCF  30FF               	movlw	255
  1732     0FD0  05FB               	andwf	___xxtofl@arg+1,f
  1733     0FD1  307F               	movlw	127
  1734     0FD2  05FC               	andwf	___xxtofl@arg+2,f
  1735     0FD3  30FF               	movlw	255
  1736     0FD4  05FD               	andwf	___xxtofl@arg+3,f
  1737     0FD5                     l589:
  1738     0FD5  1003               	clrc
  1739     0FD6  0CF9               	rrf	___xxtofl@exp,f
  1740     0FD7                     l1646:
  1741     0FD7  0879               	movf	___xxtofl@exp,w
  1742     0FD8  00F4               	movwf	??___xxtofl
  1743     0FD9  01F5               	clrf	??___xxtofl+1
  1744     0FDA  01F6               	clrf	??___xxtofl+2
  1745     0FDB  01F7               	clrf	??___xxtofl+3
  1746     0FDC  3018               	movlw	24
  1747     0FDD                     u2385:
  1748     0FDD  1003               	clrc
  1749     0FDE  0DF4               	rlf	??___xxtofl,f
  1750     0FDF  0DF5               	rlf	??___xxtofl+1,f
  1751     0FE0  0DF6               	rlf	??___xxtofl+2,f
  1752     0FE1  0DF7               	rlf	??___xxtofl+3,f
  1753     0FE2                     u2380:
  1754     0FE2  3EFF               	addlw	-1
  1755     0FE3  1D03               	skipz
  1756     0FE4  2FDD               	goto	u2385
  1757     0FE5  0874               	movf	??___xxtofl,w
  1758     0FE6  04FA               	iorwf	___xxtofl@arg,f
  1759     0FE7  0875               	movf	??___xxtofl+1,w
  1760     0FE8  04FB               	iorwf	___xxtofl@arg+1,f
  1761     0FE9  0876               	movf	??___xxtofl+2,w
  1762     0FEA  04FC               	iorwf	___xxtofl@arg+2,f
  1763     0FEB  0877               	movf	??___xxtofl+3,w
  1764     0FEC  04FD               	iorwf	___xxtofl@arg+3,f
  1765     0FED                     l1648:
  1766     0FED  0878               	movf	___xxtofl@sign,w
  1767     0FEE  1903               	btfsc	3,2
  1768     0FEF  2FF1               	goto	u2391
  1769     0FF0  2FF2               	goto	u2390
  1770     0FF1                     u2391:
  1771     0FF1  2FF7               	goto	l1654
  1772     0FF2                     u2390:
  1773     0FF2                     l1650:
  1774     0FF2  1FF3               	btfss	___xxtofl@val+3,7
  1775     0FF3  2FF5               	goto	u2401
  1776     0FF4  2FF6               	goto	u2400
  1777     0FF5                     u2401:
  1778     0FF5  2FF7               	goto	l1654
  1779     0FF6                     u2400:
  1780     0FF6                     l1652:
  1781     0FF6  17FD               	bsf	___xxtofl@arg+3,7
  1782     0FF7                     l1654:
  1783     0FF7  087D               	movf	___xxtofl@arg+3,w
  1784     0FF8  00F3               	movwf	?___xxtofl+3
  1785     0FF9  087C               	movf	___xxtofl@arg+2,w
  1786     0FFA  00F2               	movwf	?___xxtofl+2
  1787     0FFB  087B               	movf	___xxtofl@arg+1,w
  1788     0FFC  00F1               	movwf	?___xxtofl+1
  1789     0FFD  087A               	movf	___xxtofl@arg,w
  1790     0FFE  00F0               	movwf	?___xxtofl
  1791     0FFF                     l577:
  1792     0FFF  0008               	return
  1793     1000                     __end_of___xxtofl:
  1794                           
  1795                           	psect	text5
  1796     0D8B                     __ptext5:	
  1797 ;; *************** function ___wmul *****************
  1798 ;; Defined at:
  1799 ;;		line 15 in file "C:\Program Files\Microchip\xc8\v2.40\pic\sources\c90\common\Umul16.c"
  1800 ;; Parameters:    Size  Location     Type
  1801 ;;  multiplier      2    0[COMMON] unsigned int 
  1802 ;;  multiplicand    2    2[COMMON] unsigned int 
  1803 ;; Auto vars:     Size  Location     Type
  1804 ;;  product         2    4[COMMON] unsigned int 
  1805 ;; Return value:  Size  Location     Type
  1806 ;;                  2    0[COMMON] unsigned int 
  1807 ;; Registers used:
  1808 ;;		wreg, status,2, status,0
  1809 ;; Tracked objects:
  1810 ;;		On entry : 0/0
  1811 ;;		On exit  : 0/0
  1812 ;;		Unchanged: 0/0
  1813 ;; Data sizes:     COMMON   BANK0   BANK1   BANK3   BANK2
  1814 ;;      Params:         4       0       0       0       0
  1815 ;;      Locals:         2       0       0       0       0
  1816 ;;      Temps:          0       0       0       0       0
  1817 ;;      Totals:         6       0       0       0       0
  1818 ;;Total ram usage:        6 bytes
  1819 ;; Hardware stack levels used: 1
  1820 ;; This function calls:
  1821 ;;		Nothing
  1822 ;; This function is called by:
  1823 ;;		_adc
  1824 ;; This function uses a non-reentrant model
  1825 ;;
  1826                           
  1827     0D8B                     ___wmul:	
  1828                           ;psect for function ___wmul
  1829                           
  1830     0D8B                     l1200:	
  1831                           ;incstack = 0
  1832                           ; Regs used in ___wmul: [wreg+status,2+status,0]
  1833                           
  1834     0D8B  01F4               	clrf	___wmul@product
  1835     0D8C  01F5               	clrf	___wmul@product+1
  1836     0D8D                     l1202:
  1837     0D8D  1C70               	btfss	___wmul@multiplier,0
  1838     0D8E  2D90               	goto	u1281
  1839     0D8F  2D91               	goto	u1280
  1840     0D90                     u1281:
  1841     0D90  2D97               	goto	l142
  1842     0D91                     u1280:
  1843     0D91                     l1204:
  1844     0D91  0872               	movf	___wmul@multiplicand,w
  1845     0D92  07F4               	addwf	___wmul@product,f
  1846     0D93  1803               	skipnc
  1847     0D94  0AF5               	incf	___wmul@product+1,f
  1848     0D95  0873               	movf	___wmul@multiplicand+1,w
  1849     0D96  07F5               	addwf	___wmul@product+1,f
  1850     0D97                     l142:
  1851     0D97  3001               	movlw	1
  1852     0D98                     u1295:
  1853     0D98  1003               	clrc
  1854     0D99  0DF2               	rlf	___wmul@multiplicand,f
  1855     0D9A  0DF3               	rlf	___wmul@multiplicand+1,f
  1856     0D9B  3EFF               	addlw	-1
  1857     0D9C  1D03               	skipz
  1858     0D9D  2D98               	goto	u1295
  1859     0D9E                     l1206:
  1860     0D9E  3001               	movlw	1
  1861     0D9F                     u1305:
  1862     0D9F  1003               	clrc
  1863     0DA0  0CF1               	rrf	___wmul@multiplier+1,f
  1864     0DA1  0CF0               	rrf	___wmul@multiplier,f
  1865     0DA2  3EFF               	addlw	-1
  1866     0DA3  1D03               	skipz
  1867     0DA4  2D9F               	goto	u1305
  1868     0DA5                     l1208:
  1869     0DA5  0870               	movf	___wmul@multiplier,w
  1870     0DA6  0471               	iorwf	___wmul@multiplier+1,w
  1871     0DA7  1D03               	btfss	3,2
  1872     0DA8  2DAA               	goto	u1311
  1873     0DA9  2DAB               	goto	u1310
  1874     0DAA                     u1311:
  1875     0DAA  2D8D               	goto	l1202
  1876     0DAB                     u1310:
  1877     0DAB                     l1210:
  1878     0DAB  0875               	movf	___wmul@product+1,w
  1879     0DAC  00F1               	movwf	?___wmul+1
  1880     0DAD  0874               	movf	___wmul@product,w
  1881     0DAE  00F0               	movwf	?___wmul
  1882     0DAF                     l144:
  1883     0DAF  0008               	return
  1884     0DB0                     __end_of___wmul:
  1885                           
  1886                           	psect	text6
  1887     0ED0                     __ptext6:	
  1888 ;; *************** function ___fltol *****************
  1889 ;; Defined at:
  1890 ;;		line 43 in file "C:\Program Files\Microchip\xc8\v2.40\pic\sources\c90\common\fltol.c"
  1891 ;; Parameters:    Size  Location     Type
  1892 ;;  f1              4   52[BANK0 ] unsigned int 
  1893 ;; Auto vars:     Size  Location     Type
  1894 ;;  exp1            1   61[BANK0 ] unsigned char 
  1895 ;;  sign1           1   60[BANK0 ] unsigned char 
  1896 ;; Return value:  Size  Location     Type
  1897 ;;                  4   52[BANK0 ] long 
  1898 ;; Registers used:
  1899 ;;		wreg, status,2, status,0
  1900 ;; Tracked objects:
  1901 ;;		On entry : 0/0
  1902 ;;		On exit  : 0/0
  1903 ;;		Unchanged: 0/0
  1904 ;; Data sizes:     COMMON   BANK0   BANK1   BANK3   BANK2
  1905 ;;      Params:         0       4       0       0       0
  1906 ;;      Locals:         0       2       0       0       0
  1907 ;;      Temps:          0       4       0       0       0
  1908 ;;      Totals:         0      10       0       0       0
  1909 ;;Total ram usage:       10 bytes
  1910 ;; Hardware stack levels used: 1
  1911 ;; This function calls:
  1912 ;;		Nothing
  1913 ;; This function is called by:
  1914 ;;		_adc
  1915 ;; This function uses a non-reentrant model
  1916 ;;
  1917                           
  1918     0ED0                     ___fltol:	
  1919                           ;psect for function ___fltol
  1920                           
  1921     0ED0                     l1296:	
  1922                           ;incstack = 0
  1923                           ; Regs used in ___fltol: [wreg+status,2+status,0]
  1924                           
  1925     0ED0  1003               	clrc
  1926     0ED1  1283               	bcf	3,5	;RP0=0, select bank0
  1927     0ED2  1303               	bcf	3,6	;RP1=0, select bank0
  1928     0ED3  0D56               	rlf	___fltol@f1+2,w
  1929     0ED4  0D57               	rlf	___fltol@f1+3,w
  1930     0ED5  00DD               	movwf	___fltol@exp1
  1931     0ED6  085D               	movf	___fltol@exp1,w
  1932     0ED7  1D03               	btfss	3,2
  1933     0ED8  2EDA               	goto	u1511
  1934     0ED9  2EDB               	goto	u1510
  1935     0EDA                     u1511:
  1936     0EDA  2EE4               	goto	l1302
  1937     0EDB                     u1510:
  1938     0EDB                     l1298:
  1939     0EDB  3000               	movlw	0
  1940     0EDC  00D7               	movwf	?___fltol+3
  1941     0EDD  3000               	movlw	0
  1942     0EDE  00D6               	movwf	?___fltol+2
  1943     0EDF  3000               	movlw	0
  1944     0EE0  00D5               	movwf	?___fltol+1
  1945     0EE1  3000               	movlw	0
  1946     0EE2  00D4               	movwf	?___fltol
  1947     0EE3  2F47               	goto	l328
  1948     0EE4                     l1302:
  1949     0EE4  0854               	movf	___fltol@f1,w
  1950     0EE5  00D8               	movwf	??___fltol
  1951     0EE6  0855               	movf	___fltol@f1+1,w
  1952     0EE7  00D9               	movwf	??___fltol+1
  1953     0EE8  0856               	movf	___fltol@f1+2,w
  1954     0EE9  00DA               	movwf	??___fltol+2
  1955     0EEA  0857               	movf	___fltol@f1+3,w
  1956     0EEB  00DB               	movwf	??___fltol+3
  1957     0EEC  301F               	movlw	31
  1958     0EED                     u1525:
  1959     0EED  1003               	clrc
  1960     0EEE  0CDB               	rrf	??___fltol+3,f
  1961     0EEF  0CDA               	rrf	??___fltol+2,f
  1962     0EF0  0CD9               	rrf	??___fltol+1,f
  1963     0EF1  0CD8               	rrf	??___fltol,f
  1964     0EF2                     u1520:
  1965     0EF2  3EFF               	addlw	-1
  1966     0EF3  1D03               	skipz
  1967     0EF4  2EED               	goto	u1525
  1968     0EF5  0858               	movf	??___fltol,w
  1969     0EF6  00DC               	movwf	___fltol@sign1
  1970     0EF7                     l1304:
  1971     0EF7  17D6               	bsf	___fltol@f1+2,7
  1972     0EF8                     l1306:
  1973     0EF8  30FF               	movlw	255
  1974     0EF9  05D4               	andwf	___fltol@f1,f
  1975     0EFA  30FF               	movlw	255
  1976     0EFB  05D5               	andwf	___fltol@f1+1,f
  1977     0EFC  30FF               	movlw	255
  1978     0EFD  05D6               	andwf	___fltol@f1+2,f
  1979     0EFE  3000               	movlw	0
  1980     0EFF  05D7               	andwf	___fltol@f1+3,f
  1981     0F00                     l1308:
  1982     0F00  3096               	movlw	150
  1983     0F01  02DD               	subwf	___fltol@exp1,f
  1984     0F02                     l1310:
  1985     0F02  1FDD               	btfss	___fltol@exp1,7
  1986     0F03  2F05               	goto	u1531
  1987     0F04  2F06               	goto	u1530
  1988     0F05                     u1531:
  1989     0F05  2F20               	goto	l1320
  1990     0F06                     u1530:
  1991     0F06                     l1312:
  1992     0F06  085D               	movf	___fltol@exp1,w
  1993     0F07  3A80               	xorlw	128
  1994     0F08  3E97               	addlw	151
  1995     0F09  1803               	skipnc
  1996     0F0A  2F0C               	goto	u1541
  1997     0F0B  2F0D               	goto	u1540
  1998     0F0C                     u1541:
  1999     0F0C  2F0E               	goto	l1318
  2000     0F0D                     u1540:
  2001     0F0D  2EDB               	goto	l1298
  2002     0F0E                     l1318:
  2003     0F0E  3001               	movlw	1
  2004     0F0F                     u1555:
  2005     0F0F  1003               	clrc
  2006     0F10  0CD7               	rrf	___fltol@f1+3,f
  2007     0F11  0CD6               	rrf	___fltol@f1+2,f
  2008     0F12  0CD5               	rrf	___fltol@f1+1,f
  2009     0F13  0CD4               	rrf	___fltol@f1,f
  2010     0F14  3EFF               	addlw	-1
  2011     0F15  1D03               	skipz
  2012     0F16  2F0F               	goto	u1555
  2013     0F17  3001               	movlw	1
  2014     0F18  00D8               	movwf	??___fltol
  2015     0F19  0858               	movf	??___fltol,w
  2016     0F1A  07DD               	addwf	___fltol@exp1,f
  2017     0F1B  1D03               	btfss	3,2
  2018     0F1C  2F1E               	goto	u1561
  2019     0F1D  2F1F               	goto	u1560
  2020     0F1E                     u1561:
  2021     0F1E  2F0E               	goto	l1318
  2022     0F1F                     u1560:
  2023     0F1F  2F37               	goto	l1328
  2024     0F20                     l1320:
  2025     0F20  3020               	movlw	32
  2026     0F21  025D               	subwf	___fltol@exp1,w
  2027     0F22  1C03               	skipc
  2028     0F23  2F25               	goto	u1571
  2029     0F24  2F26               	goto	u1570
  2030     0F25                     u1571:
  2031     0F25  2F32               	goto	l335
  2032     0F26                     u1570:
  2033     0F26  2EDB               	goto	l1298
  2034     0F27                     l1326:
  2035     0F27  3001               	movlw	1
  2036     0F28  00D8               	movwf	??___fltol
  2037     0F29                     u1585:
  2038     0F29  1003               	clrc
  2039     0F2A  0DD4               	rlf	___fltol@f1,f
  2040     0F2B  0DD5               	rlf	___fltol@f1+1,f
  2041     0F2C  0DD6               	rlf	___fltol@f1+2,f
  2042     0F2D  0DD7               	rlf	___fltol@f1+3,f
  2043     0F2E  0BD8               	decfsz	??___fltol,f
  2044     0F2F  2F29               	goto	u1585
  2045     0F30  3001               	movlw	1
  2046     0F31  02DD               	subwf	___fltol@exp1,f
  2047     0F32                     l335:
  2048     0F32  085D               	movf	___fltol@exp1,w
  2049     0F33  1D03               	btfss	3,2
  2050     0F34  2F36               	goto	u1591
  2051     0F35  2F37               	goto	u1590
  2052     0F36                     u1591:
  2053     0F36  2F27               	goto	l1326
  2054     0F37                     u1590:
  2055     0F37                     l1328:
  2056     0F37  085C               	movf	___fltol@sign1,w
  2057     0F38  1903               	btfsc	3,2
  2058     0F39  2F3B               	goto	u1601
  2059     0F3A  2F3C               	goto	u1600
  2060     0F3B                     u1601:
  2061     0F3B  2F47               	goto	l338
  2062     0F3C                     u1600:
  2063     0F3C                     l1330:
  2064     0F3C  09D4               	comf	___fltol@f1,f
  2065     0F3D  09D5               	comf	___fltol@f1+1,f
  2066     0F3E  09D6               	comf	___fltol@f1+2,f
  2067     0F3F  09D7               	comf	___fltol@f1+3,f
  2068     0F40  0AD4               	incf	___fltol@f1,f
  2069     0F41  1903               	skipnz
  2070     0F42  0AD5               	incf	___fltol@f1+1,f
  2071     0F43  1903               	skipnz
  2072     0F44  0AD6               	incf	___fltol@f1+2,f
  2073     0F45  1903               	skipnz
  2074     0F46  0AD7               	incf	___fltol@f1+3,f
  2075     0F47                     l338:
  2076     0F47                     l328:
  2077     0F47  0008               	return
  2078     0F48                     __end_of___fltol:
  2079                           
  2080                           	psect	text7
  2081     04B3                     __ptext7:	
  2082 ;; *************** function ___flmul *****************
  2083 ;; Defined at:
  2084 ;;		line 8 in file "C:\Program Files\Microchip\xc8\v2.40\pic\sources\c90\common\sprcmul.c"
  2085 ;; Parameters:    Size  Location     Type
  2086 ;;  b               4    0[BANK0 ] long 
  2087 ;;  a               4    4[BANK0 ] long 
  2088 ;; Auto vars:     Size  Location     Type
  2089 ;;  prod            4   20[BANK0 ] struct .
  2090 ;;  grs             4   14[BANK0 ] unsigned long 
  2091 ;;  temp            2   24[BANK0 ] struct .
  2092 ;;  bexp            1   19[BANK0 ] unsigned char 
  2093 ;;  aexp            1   18[BANK0 ] unsigned char 
  2094 ;;  sign            1   13[BANK0 ] unsigned char 
  2095 ;; Return value:  Size  Location     Type
  2096 ;;                  4    0[BANK0 ] unsigned char 
  2097 ;; Registers used:
  2098 ;;		wreg, status,2, status,0, btemp+1, pclath, cstack
  2099 ;; Tracked objects:
  2100 ;;		On entry : 0/0
  2101 ;;		On exit  : 0/0
  2102 ;;		Unchanged: 0/0
  2103 ;; Data sizes:     COMMON   BANK0   BANK1   BANK3   BANK2
  2104 ;;      Params:         0       8       0       0       0
  2105 ;;      Locals:         0      13       0       0       0
  2106 ;;      Temps:          0       5       0       0       0
  2107 ;;      Totals:         0      26       0       0       0
  2108 ;;Total ram usage:       26 bytes
  2109 ;; Hardware stack levels used: 1
  2110 ;; Hardware stack levels required when called: 1
  2111 ;; This function calls:
  2112 ;;		__Umul8_16
  2113 ;; This function is called by:
  2114 ;;		_adc
  2115 ;; This function uses a non-reentrant model
  2116 ;;
  2117                           
  2118     04B3                     ___flmul:	
  2119                           ;psect for function ___flmul
  2120                           
  2121     04B3                     l1474:	
  2122                           ;incstack = 0
  2123                           ; Regs used in ___flmul: [wreg+status,2+status,0+btemp+1+pclath+cstack]
  2124                           
  2125     04B3  1283               	bcf	3,5	;RP0=0, select bank0
  2126     04B4  1303               	bcf	3,6	;RP1=0, select bank0
  2127     04B5  0823               	movf	___flmul@b+3,w
  2128     04B6  3980               	andlw	128
  2129     04B7  00AD               	movwf	___flmul@sign
  2130     04B8                     l1476:
  2131     04B8  0823               	movf	___flmul@b+3,w
  2132     04B9  00A8               	movwf	??___flmul
  2133     04BA  0728               	addwf	??___flmul,w
  2134     04BB  00B3               	movwf	___flmul@bexp
  2135     04BC                     l1478:
  2136     04BC  1FA2               	btfss	___flmul@b+2,7
  2137     04BD  2CBF               	goto	u1901
  2138     04BE  2CC0               	goto	u1900
  2139     04BF                     u1901:
  2140     04BF  2CC1               	goto	l1482
  2141     04C0                     u1900:
  2142     04C0                     l1480:
  2143     04C0  1433               	bsf	___flmul@bexp,0
  2144     04C1                     l1482:
  2145     04C1  0833               	movf	___flmul@bexp,w
  2146     04C2  1903               	btfsc	3,2
  2147     04C3  2CC5               	goto	u1911
  2148     04C4  2CC6               	goto	u1910
  2149     04C5                     u1911:
  2150     04C5  2CD5               	goto	l1490
  2151     04C6                     u1910:
  2152     04C6                     l1484:
  2153     04C6  0A33               	incf	___flmul@bexp,w
  2154     04C7  1D03               	btfss	3,2
  2155     04C8  2CCA               	goto	u1921
  2156     04C9  2CCB               	goto	u1920
  2157     04CA                     u1921:
  2158     04CA  2CD3               	goto	l1488
  2159     04CB                     u1920:
  2160     04CB                     l1486:
  2161     04CB  3000               	movlw	0
  2162     04CC  00A3               	movwf	___flmul@b+3
  2163     04CD  3000               	movlw	0
  2164     04CE  00A2               	movwf	___flmul@b+2
  2165     04CF  3000               	movlw	0
  2166     04D0  00A1               	movwf	___flmul@b+1
  2167     04D1  3000               	movlw	0
  2168     04D2  00A0               	movwf	___flmul@b
  2169     04D3                     l1488:
  2170     04D3  17A2               	bsf	___flmul@b+2,7
  2171     04D4  2CDD               	goto	l1492
  2172     04D5                     l1490:
  2173     04D5  3000               	movlw	0
  2174     04D6  00A3               	movwf	___flmul@b+3
  2175     04D7  3000               	movlw	0
  2176     04D8  00A2               	movwf	___flmul@b+2
  2177     04D9  3000               	movlw	0
  2178     04DA  00A1               	movwf	___flmul@b+1
  2179     04DB  3000               	movlw	0
  2180     04DC  00A0               	movwf	___flmul@b
  2181     04DD                     l1492:
  2182     04DD  0827               	movf	___flmul@a+3,w
  2183     04DE  3980               	andlw	128
  2184     04DF  00A8               	movwf	??___flmul
  2185     04E0  0828               	movf	??___flmul,w
  2186     04E1  06AD               	xorwf	___flmul@sign,f
  2187     04E2                     l1494:
  2188     04E2  0827               	movf	___flmul@a+3,w
  2189     04E3  00A8               	movwf	??___flmul
  2190     04E4  0728               	addwf	??___flmul,w
  2191     04E5  00B2               	movwf	___flmul@aexp
  2192     04E6                     l1496:
  2193     04E6  1FA6               	btfss	___flmul@a+2,7
  2194     04E7  2CE9               	goto	u1931
  2195     04E8  2CEA               	goto	u1930
  2196     04E9                     u1931:
  2197     04E9  2CEB               	goto	l1500
  2198     04EA                     u1930:
  2199     04EA                     l1498:
  2200     04EA  1432               	bsf	___flmul@aexp,0
  2201     04EB                     l1500:
  2202     04EB  0832               	movf	___flmul@aexp,w
  2203     04EC  1903               	btfsc	3,2
  2204     04ED  2CEF               	goto	u1941
  2205     04EE  2CF0               	goto	u1940
  2206     04EF                     u1941:
  2207     04EF  2CFF               	goto	l1508
  2208     04F0                     u1940:
  2209     04F0                     l1502:
  2210     04F0  0A32               	incf	___flmul@aexp,w
  2211     04F1  1D03               	btfss	3,2
  2212     04F2  2CF4               	goto	u1951
  2213     04F3  2CF5               	goto	u1950
  2214     04F4                     u1951:
  2215     04F4  2CFD               	goto	l1506
  2216     04F5                     u1950:
  2217     04F5                     l1504:
  2218     04F5  3000               	movlw	0
  2219     04F6  00A7               	movwf	___flmul@a+3
  2220     04F7  3000               	movlw	0
  2221     04F8  00A6               	movwf	___flmul@a+2
  2222     04F9  3000               	movlw	0
  2223     04FA  00A5               	movwf	___flmul@a+1
  2224     04FB  3000               	movlw	0
  2225     04FC  00A4               	movwf	___flmul@a
  2226     04FD                     l1506:
  2227     04FD  17A6               	bsf	___flmul@a+2,7
  2228     04FE  2D07               	goto	l1510
  2229     04FF                     l1508:
  2230     04FF  3000               	movlw	0
  2231     0500  00A7               	movwf	___flmul@a+3
  2232     0501  3000               	movlw	0
  2233     0502  00A6               	movwf	___flmul@a+2
  2234     0503  3000               	movlw	0
  2235     0504  00A5               	movwf	___flmul@a+1
  2236     0505  3000               	movlw	0
  2237     0506  00A4               	movwf	___flmul@a
  2238     0507                     l1510:
  2239     0507  0832               	movf	___flmul@aexp,w
  2240     0508  1903               	btfsc	3,2
  2241     0509  2D0B               	goto	u1961
  2242     050A  2D0C               	goto	u1960
  2243     050B                     u1961:
  2244     050B  2D11               	goto	l1514
  2245     050C                     u1960:
  2246     050C                     l1512:
  2247     050C  0833               	movf	___flmul@bexp,w
  2248     050D  1D03               	btfss	3,2
  2249     050E  2D10               	goto	u1971
  2250     050F  2D11               	goto	u1970
  2251     0510                     u1971:
  2252     0510  2D1A               	goto	l1518
  2253     0511                     u1970:
  2254     0511                     l1514:
  2255     0511  3000               	movlw	0
  2256     0512  00A3               	movwf	?___flmul+3
  2257     0513  3000               	movlw	0
  2258     0514  00A2               	movwf	?___flmul+2
  2259     0515  3000               	movlw	0
  2260     0516  00A1               	movwf	?___flmul+1
  2261     0517  3000               	movlw	0
  2262     0518  00A0               	movwf	?___flmul
  2263     0519  2FF7               	goto	l531
  2264     051A                     l1518:
  2265     051A  0820               	movf	___flmul@b,w
  2266     051B  00F0               	movwf	__Umul8_16@multiplicand
  2267     051C  0826               	movf	___flmul@a+2,w
  2268     051D  120A  158A  25B0  120A  118A  	fcall	__Umul8_16
  2269     0522  0871               	movf	?__Umul8_16+1,w
  2270     0523  1283               	bcf	3,5	;RP0=0, select bank0
  2271     0524  1303               	bcf	3,6	;RP1=0, select bank0
  2272     0525  00B9               	movwf	___flmul@temp+1
  2273     0526  0870               	movf	?__Umul8_16,w
  2274     0527  00B8               	movwf	___flmul@temp
  2275     0528                     l1520:
  2276     0528  0838               	movf	___flmul@temp,w
  2277     0529  00A8               	movwf	??___flmul
  2278     052A  01A9               	clrf	??___flmul+1
  2279     052B  01AA               	clrf	??___flmul+2
  2280     052C  01AB               	clrf	??___flmul+3
  2281     052D  082B               	movf	??___flmul+3,w
  2282     052E  00B1               	movwf	___flmul@grs+3
  2283     052F  082A               	movf	??___flmul+2,w
  2284     0530  00B0               	movwf	___flmul@grs+2
  2285     0531  0829               	movf	??___flmul+1,w
  2286     0532  00AF               	movwf	___flmul@grs+1
  2287     0533  0828               	movf	??___flmul,w
  2288     0534  00AE               	movwf	___flmul@grs
  2289     0535                     l1522:
  2290     0535  0839               	movf	___flmul@temp+1,w
  2291     0536  00A8               	movwf	??___flmul
  2292     0537  01A9               	clrf	??___flmul+1
  2293     0538  01AA               	clrf	??___flmul+2
  2294     0539  01AB               	clrf	??___flmul+3
  2295     053A  082B               	movf	??___flmul+3,w
  2296     053B  00B7               	movwf	___flmul@prod+3
  2297     053C  082A               	movf	??___flmul+2,w
  2298     053D  00B6               	movwf	___flmul@prod+2
  2299     053E  0829               	movf	??___flmul+1,w
  2300     053F  00B5               	movwf	___flmul@prod+1
  2301     0540  0828               	movf	??___flmul,w
  2302     0541  00B4               	movwf	___flmul@prod
  2303     0542  0821               	movf	___flmul@b+1,w
  2304     0543  00F0               	movwf	__Umul8_16@multiplicand
  2305     0544  0825               	movf	___flmul@a+1,w
  2306     0545  120A  158A  25B0  120A  118A  	fcall	__Umul8_16
  2307     054A  0871               	movf	?__Umul8_16+1,w
  2308     054B  1283               	bcf	3,5	;RP0=0, select bank0
  2309     054C  1303               	bcf	3,6	;RP1=0, select bank0
  2310     054D  00B9               	movwf	___flmul@temp+1
  2311     054E  0870               	movf	?__Umul8_16,w
  2312     054F  00B8               	movwf	___flmul@temp
  2313     0550                     l1524:
  2314     0550  0838               	movf	___flmul@temp,w
  2315     0551  00A8               	movwf	??___flmul
  2316     0552  01A9               	clrf	??___flmul+1
  2317     0553  01AA               	clrf	??___flmul+2
  2318     0554  01AB               	clrf	??___flmul+3
  2319     0555  0828               	movf	??___flmul,w
  2320     0556  07AE               	addwf	___flmul@grs,f
  2321     0557  0829               	movf	??___flmul+1,w
  2322     0558  1103               	clrz
  2323     0559  1803               	skipnc
  2324     055A  3E01               	addlw	1
  2325     055B  1903               	skipnz
  2326     055C  2D5E               	goto	u1981
  2327     055D  07AF               	addwf	___flmul@grs+1,f
  2328     055E                     u1981:
  2329     055E  082A               	movf	??___flmul+2,w
  2330     055F  1103               	clrz
  2331     0560  1803               	skipnc
  2332     0561  3E01               	addlw	1
  2333     0562  1903               	skipnz
  2334     0563  2D65               	goto	u1982
  2335     0564  07B0               	addwf	___flmul@grs+2,f
  2336     0565                     u1982:
  2337     0565  082B               	movf	??___flmul+3,w
  2338     0566  1103               	clrz
  2339     0567  1803               	skipnc
  2340     0568  3E01               	addlw	1
  2341     0569  1903               	skipnz
  2342     056A  2D6C               	goto	u1983
  2343     056B  07B1               	addwf	___flmul@grs+3,f
  2344     056C                     u1983:
  2345     056C                     l1526:
  2346     056C  0839               	movf	___flmul@temp+1,w
  2347     056D  00A8               	movwf	??___flmul
  2348     056E  01A9               	clrf	??___flmul+1
  2349     056F  01AA               	clrf	??___flmul+2
  2350     0570  01AB               	clrf	??___flmul+3
  2351     0571  0828               	movf	??___flmul,w
  2352     0572  07B4               	addwf	___flmul@prod,f
  2353     0573  0829               	movf	??___flmul+1,w
  2354     0574  1103               	clrz
  2355     0575  1803               	skipnc
  2356     0576  3E01               	addlw	1
  2357     0577  1903               	skipnz
  2358     0578  2D7A               	goto	u1991
  2359     0579  07B5               	addwf	___flmul@prod+1,f
  2360     057A                     u1991:
  2361     057A  082A               	movf	??___flmul+2,w
  2362     057B  1103               	clrz
  2363     057C  1803               	skipnc
  2364     057D  3E01               	addlw	1
  2365     057E  1903               	skipnz
  2366     057F  2D81               	goto	u1992
  2367     0580  07B6               	addwf	___flmul@prod+2,f
  2368     0581                     u1992:
  2369     0581  082B               	movf	??___flmul+3,w
  2370     0582  1103               	clrz
  2371     0583  1803               	skipnc
  2372     0584  3E01               	addlw	1
  2373     0585  1903               	skipnz
  2374     0586  2D88               	goto	u1993
  2375     0587  07B7               	addwf	___flmul@prod+3,f
  2376     0588                     u1993:
  2377     0588  0822               	movf	___flmul@b+2,w
  2378     0589  00F0               	movwf	__Umul8_16@multiplicand
  2379     058A  0824               	movf	___flmul@a,w
  2380     058B  120A  158A  25B0  120A  118A  	fcall	__Umul8_16
  2381     0590  0871               	movf	?__Umul8_16+1,w
  2382     0591  1283               	bcf	3,5	;RP0=0, select bank0
  2383     0592  1303               	bcf	3,6	;RP1=0, select bank0
  2384     0593  00B9               	movwf	___flmul@temp+1
  2385     0594  0870               	movf	?__Umul8_16,w
  2386     0595  00B8               	movwf	___flmul@temp
  2387     0596                     l1528:
  2388     0596  0838               	movf	___flmul@temp,w
  2389     0597  00A8               	movwf	??___flmul
  2390     0598  01A9               	clrf	??___flmul+1
  2391     0599  01AA               	clrf	??___flmul+2
  2392     059A  01AB               	clrf	??___flmul+3
  2393     059B  0828               	movf	??___flmul,w
  2394     059C  07AE               	addwf	___flmul@grs,f
  2395     059D  0829               	movf	??___flmul+1,w
  2396     059E  1103               	clrz
  2397     059F  1803               	skipnc
  2398     05A0  3E01               	addlw	1
  2399     05A1  1903               	skipnz
  2400     05A2  2DA4               	goto	u2001
  2401     05A3  07AF               	addwf	___flmul@grs+1,f
  2402     05A4                     u2001:
  2403     05A4  082A               	movf	??___flmul+2,w
  2404     05A5  1103               	clrz
  2405     05A6  1803               	skipnc
  2406     05A7  3E01               	addlw	1
  2407     05A8  1903               	skipnz
  2408     05A9  2DAB               	goto	u2002
  2409     05AA  07B0               	addwf	___flmul@grs+2,f
  2410     05AB                     u2002:
  2411     05AB  082B               	movf	??___flmul+3,w
  2412     05AC  1103               	clrz
  2413     05AD  1803               	skipnc
  2414     05AE  3E01               	addlw	1
  2415     05AF  1903               	skipnz
  2416     05B0  2DB2               	goto	u2003
  2417     05B1  07B1               	addwf	___flmul@grs+3,f
  2418     05B2                     u2003:
  2419     05B2                     l1530:
  2420     05B2  0839               	movf	___flmul@temp+1,w
  2421     05B3  00A8               	movwf	??___flmul
  2422     05B4  01A9               	clrf	??___flmul+1
  2423     05B5  01AA               	clrf	??___flmul+2
  2424     05B6  01AB               	clrf	??___flmul+3
  2425     05B7  0828               	movf	??___flmul,w
  2426     05B8  07B4               	addwf	___flmul@prod,f
  2427     05B9  0829               	movf	??___flmul+1,w
  2428     05BA  1103               	clrz
  2429     05BB  1803               	skipnc
  2430     05BC  3E01               	addlw	1
  2431     05BD  1903               	skipnz
  2432     05BE  2DC0               	goto	u2011
  2433     05BF  07B5               	addwf	___flmul@prod+1,f
  2434     05C0                     u2011:
  2435     05C0  082A               	movf	??___flmul+2,w
  2436     05C1  1103               	clrz
  2437     05C2  1803               	skipnc
  2438     05C3  3E01               	addlw	1
  2439     05C4  1903               	skipnz
  2440     05C5  2DC7               	goto	u2012
  2441     05C6  07B6               	addwf	___flmul@prod+2,f
  2442     05C7                     u2012:
  2443     05C7  082B               	movf	??___flmul+3,w
  2444     05C8  1103               	clrz
  2445     05C9  1803               	skipnc
  2446     05CA  3E01               	addlw	1
  2447     05CB  1903               	skipnz
  2448     05CC  2DCE               	goto	u2013
  2449     05CD  07B7               	addwf	___flmul@prod+3,f
  2450     05CE                     u2013:
  2451     05CE                     l1532:
  2452     05CE  3008               	movlw	8
  2453     05CF  00A8               	movwf	??___flmul
  2454     05D0                     u2025:
  2455     05D0  1003               	clrc
  2456     05D1  0DAE               	rlf	___flmul@grs,f
  2457     05D2  0DAF               	rlf	___flmul@grs+1,f
  2458     05D3  0DB0               	rlf	___flmul@grs+2,f
  2459     05D4  0DB1               	rlf	___flmul@grs+3,f
  2460     05D5  0BA8               	decfsz	??___flmul,f
  2461     05D6  2DD0               	goto	u2025
  2462     05D7                     l1534:
  2463     05D7  0821               	movf	___flmul@b+1,w
  2464     05D8  00F0               	movwf	__Umul8_16@multiplicand
  2465     05D9  0824               	movf	___flmul@a,w
  2466     05DA  120A  158A  25B0  120A  118A  	fcall	__Umul8_16
  2467     05DF  0871               	movf	?__Umul8_16+1,w
  2468     05E0  1283               	bcf	3,5	;RP0=0, select bank0
  2469     05E1  1303               	bcf	3,6	;RP1=0, select bank0
  2470     05E2  00B9               	movwf	___flmul@temp+1
  2471     05E3  0870               	movf	?__Umul8_16,w
  2472     05E4  00B8               	movwf	___flmul@temp
  2473     05E5                     l1536:
  2474     05E5  0838               	movf	___flmul@temp,w
  2475     05E6  00A8               	movwf	??___flmul
  2476     05E7  0839               	movf	___flmul@temp+1,w
  2477     05E8  00A9               	movwf	??___flmul+1
  2478     05E9  01AA               	clrf	??___flmul+2
  2479     05EA  01AB               	clrf	??___flmul+3
  2480     05EB  0828               	movf	??___flmul,w
  2481     05EC  07AE               	addwf	___flmul@grs,f
  2482     05ED  0829               	movf	??___flmul+1,w
  2483     05EE  1103               	clrz
  2484     05EF  1803               	skipnc
  2485     05F0  3E01               	addlw	1
  2486     05F1  1903               	skipnz
  2487     05F2  2DF4               	goto	u2031
  2488     05F3  07AF               	addwf	___flmul@grs+1,f
  2489     05F4                     u2031:
  2490     05F4  082A               	movf	??___flmul+2,w
  2491     05F5  1103               	clrz
  2492     05F6  1803               	skipnc
  2493     05F7  3E01               	addlw	1
  2494     05F8  1903               	skipnz
  2495     05F9  2DFB               	goto	u2032
  2496     05FA  07B0               	addwf	___flmul@grs+2,f
  2497     05FB                     u2032:
  2498     05FB  082B               	movf	??___flmul+3,w
  2499     05FC  1103               	clrz
  2500     05FD  1803               	skipnc
  2501     05FE  3E01               	addlw	1
  2502     05FF  1903               	skipnz
  2503     0600  2E02               	goto	u2033
  2504     0601  07B1               	addwf	___flmul@grs+3,f
  2505     0602                     u2033:
  2506     0602                     l1538:
  2507     0602  0820               	movf	___flmul@b,w
  2508     0603  00F0               	movwf	__Umul8_16@multiplicand
  2509     0604  0825               	movf	___flmul@a+1,w
  2510     0605  120A  158A  25B0  120A  118A  	fcall	__Umul8_16
  2511     060A  0871               	movf	?__Umul8_16+1,w
  2512     060B  1283               	bcf	3,5	;RP0=0, select bank0
  2513     060C  1303               	bcf	3,6	;RP1=0, select bank0
  2514     060D  00B9               	movwf	___flmul@temp+1
  2515     060E  0870               	movf	?__Umul8_16,w
  2516     060F  00B8               	movwf	___flmul@temp
  2517     0610                     l1540:
  2518     0610  0838               	movf	___flmul@temp,w
  2519     0611  00A8               	movwf	??___flmul
  2520     0612  0839               	movf	___flmul@temp+1,w
  2521     0613  00A9               	movwf	??___flmul+1
  2522     0614  01AA               	clrf	??___flmul+2
  2523     0615  01AB               	clrf	??___flmul+3
  2524     0616  0828               	movf	??___flmul,w
  2525     0617  07AE               	addwf	___flmul@grs,f
  2526     0618  0829               	movf	??___flmul+1,w
  2527     0619  1103               	clrz
  2528     061A  1803               	skipnc
  2529     061B  3E01               	addlw	1
  2530     061C  1903               	skipnz
  2531     061D  2E1F               	goto	u2041
  2532     061E  07AF               	addwf	___flmul@grs+1,f
  2533     061F                     u2041:
  2534     061F  082A               	movf	??___flmul+2,w
  2535     0620  1103               	clrz
  2536     0621  1803               	skipnc
  2537     0622  3E01               	addlw	1
  2538     0623  1903               	skipnz
  2539     0624  2E26               	goto	u2042
  2540     0625  07B0               	addwf	___flmul@grs+2,f
  2541     0626                     u2042:
  2542     0626  082B               	movf	??___flmul+3,w
  2543     0627  1103               	clrz
  2544     0628  1803               	skipnc
  2545     0629  3E01               	addlw	1
  2546     062A  1903               	skipnz
  2547     062B  2E2D               	goto	u2043
  2548     062C  07B1               	addwf	___flmul@grs+3,f
  2549     062D                     u2043:
  2550     062D                     l1542:
  2551     062D  3008               	movlw	8
  2552     062E  00A8               	movwf	??___flmul
  2553     062F                     u2055:
  2554     062F  1003               	clrc
  2555     0630  0DAE               	rlf	___flmul@grs,f
  2556     0631  0DAF               	rlf	___flmul@grs+1,f
  2557     0632  0DB0               	rlf	___flmul@grs+2,f
  2558     0633  0DB1               	rlf	___flmul@grs+3,f
  2559     0634  0BA8               	decfsz	??___flmul,f
  2560     0635  2E2F               	goto	u2055
  2561     0636  0820               	movf	___flmul@b,w
  2562     0637  00F0               	movwf	__Umul8_16@multiplicand
  2563     0638  0824               	movf	___flmul@a,w
  2564     0639  120A  158A  25B0  120A  118A  	fcall	__Umul8_16
  2565     063E  0871               	movf	?__Umul8_16+1,w
  2566     063F  1283               	bcf	3,5	;RP0=0, select bank0
  2567     0640  1303               	bcf	3,6	;RP1=0, select bank0
  2568     0641  00B9               	movwf	___flmul@temp+1
  2569     0642  0870               	movf	?__Umul8_16,w
  2570     0643  00B8               	movwf	___flmul@temp
  2571     0644                     l1544:
  2572     0644  0838               	movf	___flmul@temp,w
  2573     0645  00A8               	movwf	??___flmul
  2574     0646  0839               	movf	___flmul@temp+1,w
  2575     0647  00A9               	movwf	??___flmul+1
  2576     0648  01AA               	clrf	??___flmul+2
  2577     0649  01AB               	clrf	??___flmul+3
  2578     064A  0828               	movf	??___flmul,w
  2579     064B  07AE               	addwf	___flmul@grs,f
  2580     064C  0829               	movf	??___flmul+1,w
  2581     064D  1103               	clrz
  2582     064E  1803               	skipnc
  2583     064F  3E01               	addlw	1
  2584     0650  1903               	skipnz
  2585     0651  2E53               	goto	u2061
  2586     0652  07AF               	addwf	___flmul@grs+1,f
  2587     0653                     u2061:
  2588     0653  082A               	movf	??___flmul+2,w
  2589     0654  1103               	clrz
  2590     0655  1803               	skipnc
  2591     0656  3E01               	addlw	1
  2592     0657  1903               	skipnz
  2593     0658  2E5A               	goto	u2062
  2594     0659  07B0               	addwf	___flmul@grs+2,f
  2595     065A                     u2062:
  2596     065A  082B               	movf	??___flmul+3,w
  2597     065B  1103               	clrz
  2598     065C  1803               	skipnc
  2599     065D  3E01               	addlw	1
  2600     065E  1903               	skipnz
  2601     065F  2E61               	goto	u2063
  2602     0660  07B1               	addwf	___flmul@grs+3,f
  2603     0661                     u2063:
  2604     0661                     l1546:
  2605     0661  0821               	movf	___flmul@b+1,w
  2606     0662  00F0               	movwf	__Umul8_16@multiplicand
  2607     0663  0826               	movf	___flmul@a+2,w
  2608     0664  120A  158A  25B0  120A  118A  	fcall	__Umul8_16
  2609     0669  0871               	movf	?__Umul8_16+1,w
  2610     066A  1283               	bcf	3,5	;RP0=0, select bank0
  2611     066B  1303               	bcf	3,6	;RP1=0, select bank0
  2612     066C  00B9               	movwf	___flmul@temp+1
  2613     066D  0870               	movf	?__Umul8_16,w
  2614     066E  00B8               	movwf	___flmul@temp
  2615     066F  0838               	movf	___flmul@temp,w
  2616     0670  00A8               	movwf	??___flmul
  2617     0671  0839               	movf	___flmul@temp+1,w
  2618     0672  00A9               	movwf	??___flmul+1
  2619     0673  01AA               	clrf	??___flmul+2
  2620     0674  01AB               	clrf	??___flmul+3
  2621     0675  0828               	movf	??___flmul,w
  2622     0676  07B4               	addwf	___flmul@prod,f
  2623     0677  0829               	movf	??___flmul+1,w
  2624     0678  1103               	clrz
  2625     0679  1803               	skipnc
  2626     067A  3E01               	addlw	1
  2627     067B  1903               	skipnz
  2628     067C  2E7E               	goto	u2071
  2629     067D  07B5               	addwf	___flmul@prod+1,f
  2630     067E                     u2071:
  2631     067E  082A               	movf	??___flmul+2,w
  2632     067F  1103               	clrz
  2633     0680  1803               	skipnc
  2634     0681  3E01               	addlw	1
  2635     0682  1903               	skipnz
  2636     0683  2E85               	goto	u2072
  2637     0684  07B6               	addwf	___flmul@prod+2,f
  2638     0685                     u2072:
  2639     0685  082B               	movf	??___flmul+3,w
  2640     0686  1103               	clrz
  2641     0687  1803               	skipnc
  2642     0688  3E01               	addlw	1
  2643     0689  1903               	skipnz
  2644     068A  2E8C               	goto	u2073
  2645     068B  07B7               	addwf	___flmul@prod+3,f
  2646     068C                     u2073:
  2647     068C                     l1548:
  2648     068C  0822               	movf	___flmul@b+2,w
  2649     068D  00F0               	movwf	__Umul8_16@multiplicand
  2650     068E  0825               	movf	___flmul@a+1,w
  2651     068F  120A  158A  25B0  120A  118A  	fcall	__Umul8_16
  2652     0694  0871               	movf	?__Umul8_16+1,w
  2653     0695  1283               	bcf	3,5	;RP0=0, select bank0
  2654     0696  1303               	bcf	3,6	;RP1=0, select bank0
  2655     0697  00B9               	movwf	___flmul@temp+1
  2656     0698  0870               	movf	?__Umul8_16,w
  2657     0699  00B8               	movwf	___flmul@temp
  2658     069A                     l1550:
  2659     069A  0838               	movf	___flmul@temp,w
  2660     069B  00A8               	movwf	??___flmul
  2661     069C  0839               	movf	___flmul@temp+1,w
  2662     069D  00A9               	movwf	??___flmul+1
  2663     069E  01AA               	clrf	??___flmul+2
  2664     069F  01AB               	clrf	??___flmul+3
  2665     06A0  0828               	movf	??___flmul,w
  2666     06A1  07B4               	addwf	___flmul@prod,f
  2667     06A2  0829               	movf	??___flmul+1,w
  2668     06A3  1103               	clrz
  2669     06A4  1803               	skipnc
  2670     06A5  3E01               	addlw	1
  2671     06A6  1903               	skipnz
  2672     06A7  2EA9               	goto	u2081
  2673     06A8  07B5               	addwf	___flmul@prod+1,f
  2674     06A9                     u2081:
  2675     06A9  082A               	movf	??___flmul+2,w
  2676     06AA  1103               	clrz
  2677     06AB  1803               	skipnc
  2678     06AC  3E01               	addlw	1
  2679     06AD  1903               	skipnz
  2680     06AE  2EB0               	goto	u2082
  2681     06AF  07B6               	addwf	___flmul@prod+2,f
  2682     06B0                     u2082:
  2683     06B0  082B               	movf	??___flmul+3,w
  2684     06B1  1103               	clrz
  2685     06B2  1803               	skipnc
  2686     06B3  3E01               	addlw	1
  2687     06B4  1903               	skipnz
  2688     06B5  2EB7               	goto	u2083
  2689     06B6  07B7               	addwf	___flmul@prod+3,f
  2690     06B7                     u2083:
  2691     06B7  0822               	movf	___flmul@b+2,w
  2692     06B8  00F0               	movwf	__Umul8_16@multiplicand
  2693     06B9  0826               	movf	___flmul@a+2,w
  2694     06BA  120A  158A  25B0  120A  118A  	fcall	__Umul8_16
  2695     06BF  0871               	movf	?__Umul8_16+1,w
  2696     06C0  1283               	bcf	3,5	;RP0=0, select bank0
  2697     06C1  1303               	bcf	3,6	;RP1=0, select bank0
  2698     06C2  00B9               	movwf	___flmul@temp+1
  2699     06C3  0870               	movf	?__Umul8_16,w
  2700     06C4  00B8               	movwf	___flmul@temp
  2701     06C5                     l1552:
  2702     06C5  0838               	movf	___flmul@temp,w
  2703     06C6  00A8               	movwf	??___flmul
  2704     06C7  0839               	movf	___flmul@temp+1,w
  2705     06C8  00A9               	movwf	??___flmul+1
  2706     06C9  01AA               	clrf	??___flmul+2
  2707     06CA  01AB               	clrf	??___flmul+3
  2708     06CB  3008               	movlw	8
  2709     06CC                     u2095:
  2710     06CC  1003               	clrc
  2711     06CD  0DA8               	rlf	??___flmul,f
  2712     06CE  0DA9               	rlf	??___flmul+1,f
  2713     06CF  0DAA               	rlf	??___flmul+2,f
  2714     06D0  0DAB               	rlf	??___flmul+3,f
  2715     06D1                     u2090:
  2716     06D1  3EFF               	addlw	-1
  2717     06D2  1D03               	skipz
  2718     06D3  2ECC               	goto	u2095
  2719     06D4  0828               	movf	??___flmul,w
  2720     06D5  07B4               	addwf	___flmul@prod,f
  2721     06D6  0829               	movf	??___flmul+1,w
  2722     06D7  1103               	clrz
  2723     06D8  1803               	skipnc
  2724     06D9  3E01               	addlw	1
  2725     06DA  1903               	skipnz
  2726     06DB  2EDD               	goto	u2101
  2727     06DC  07B5               	addwf	___flmul@prod+1,f
  2728     06DD                     u2101:
  2729     06DD  082A               	movf	??___flmul+2,w
  2730     06DE  1103               	clrz
  2731     06DF  1803               	skipnc
  2732     06E0  3E01               	addlw	1
  2733     06E1  1903               	skipnz
  2734     06E2  2EE4               	goto	u2102
  2735     06E3  07B6               	addwf	___flmul@prod+2,f
  2736     06E4                     u2102:
  2737     06E4  082B               	movf	??___flmul+3,w
  2738     06E5  1103               	clrz
  2739     06E6  1803               	skipnc
  2740     06E7  3E01               	addlw	1
  2741     06E8  1903               	skipnz
  2742     06E9  2EEB               	goto	u2103
  2743     06EA  07B7               	addwf	___flmul@prod+3,f
  2744     06EB                     u2103:
  2745     06EB                     l1554:
  2746     06EB  082E               	movf	___flmul@grs,w
  2747     06EC  00A8               	movwf	??___flmul
  2748     06ED  082F               	movf	___flmul@grs+1,w
  2749     06EE  00A9               	movwf	??___flmul+1
  2750     06EF  0830               	movf	___flmul@grs+2,w
  2751     06F0  00AA               	movwf	??___flmul+2
  2752     06F1  0831               	movf	___flmul@grs+3,w
  2753     06F2  00AB               	movwf	??___flmul+3
  2754     06F3  3018               	movlw	24
  2755     06F4                     u2115:
  2756     06F4  1003               	clrc
  2757     06F5  0CAB               	rrf	??___flmul+3,f
  2758     06F6  0CAA               	rrf	??___flmul+2,f
  2759     06F7  0CA9               	rrf	??___flmul+1,f
  2760     06F8  0CA8               	rrf	??___flmul,f
  2761     06F9                     u2110:
  2762     06F9  3EFF               	addlw	-1
  2763     06FA  1D03               	skipz
  2764     06FB  2EF4               	goto	u2115
  2765     06FC  0828               	movf	??___flmul,w
  2766     06FD  07B4               	addwf	___flmul@prod,f
  2767     06FE  0829               	movf	??___flmul+1,w
  2768     06FF  1103               	clrz
  2769     0700  1803               	skipnc
  2770     0701  3E01               	addlw	1
  2771     0702  1903               	skipnz
  2772     0703  2F05               	goto	u2121
  2773     0704  07B5               	addwf	___flmul@prod+1,f
  2774     0705                     u2121:
  2775     0705  082A               	movf	??___flmul+2,w
  2776     0706  1103               	clrz
  2777     0707  1803               	skipnc
  2778     0708  3E01               	addlw	1
  2779     0709  1903               	skipnz
  2780     070A  2F0C               	goto	u2122
  2781     070B  07B6               	addwf	___flmul@prod+2,f
  2782     070C                     u2122:
  2783     070C  082B               	movf	??___flmul+3,w
  2784     070D  1103               	clrz
  2785     070E  1803               	skipnc
  2786     070F  3E01               	addlw	1
  2787     0710  1903               	skipnz
  2788     0711  2F13               	goto	u2123
  2789     0712  07B7               	addwf	___flmul@prod+3,f
  2790     0713                     u2123:
  2791     0713                     l1556:
  2792     0713  3008               	movlw	8
  2793     0714  00A8               	movwf	??___flmul
  2794     0715                     u2135:
  2795     0715  1003               	clrc
  2796     0716  0DAE               	rlf	___flmul@grs,f
  2797     0717  0DAF               	rlf	___flmul@grs+1,f
  2798     0718  0DB0               	rlf	___flmul@grs+2,f
  2799     0719  0DB1               	rlf	___flmul@grs+3,f
  2800     071A  0BA8               	decfsz	??___flmul,f
  2801     071B  2F15               	goto	u2135
  2802     071C                     l1558:
  2803     071C  0833               	movf	___flmul@bexp,w
  2804     071D  0732               	addwf	___flmul@aexp,w
  2805     071E  00A8               	movwf	??___flmul
  2806     071F  01A9               	clrf	??___flmul+1
  2807     0720  0DA9               	rlf	??___flmul+1,f
  2808     0721  0828               	movf	??___flmul,w
  2809     0722  3E82               	addlw	130
  2810     0723  00B8               	movwf	___flmul@temp
  2811     0724  0829               	movf	??___flmul+1,w
  2812     0725  1803               	skipnc
  2813     0726  3E01               	addlw	1
  2814     0727  3EFF               	addlw	255
  2815     0728  00B9               	movwf	___flmul@temp+1
  2816     0729  2F47               	goto	l1570
  2817     072A                     l1560:
  2818     072A  3001               	movlw	1
  2819     072B  00A8               	movwf	??___flmul
  2820     072C                     u2145:
  2821     072C  1003               	clrc
  2822     072D  0DB4               	rlf	___flmul@prod,f
  2823     072E  0DB5               	rlf	___flmul@prod+1,f
  2824     072F  0DB6               	rlf	___flmul@prod+2,f
  2825     0730  0DB7               	rlf	___flmul@prod+3,f
  2826     0731  0BA8               	decfsz	??___flmul,f
  2827     0732  2F2C               	goto	u2145
  2828     0733                     l1562:
  2829     0733  1FB1               	btfss	___flmul@grs+3,7
  2830     0734  2F36               	goto	u2151
  2831     0735  2F37               	goto	u2150
  2832     0736                     u2151:
  2833     0736  2F38               	goto	l1566
  2834     0737                     u2150:
  2835     0737                     l1564:
  2836     0737  1434               	bsf	___flmul@prod,0
  2837     0738                     l1566:
  2838     0738  3001               	movlw	1
  2839     0739  00A8               	movwf	??___flmul
  2840     073A                     u2165:
  2841     073A  1003               	clrc
  2842     073B  0DAE               	rlf	___flmul@grs,f
  2843     073C  0DAF               	rlf	___flmul@grs+1,f
  2844     073D  0DB0               	rlf	___flmul@grs+2,f
  2845     073E  0DB1               	rlf	___flmul@grs+3,f
  2846     073F  0BA8               	decfsz	??___flmul,f
  2847     0740  2F3A               	goto	u2165
  2848     0741                     l1568:
  2849     0741  30FF               	movlw	255
  2850     0742  07B8               	addwf	___flmul@temp,f
  2851     0743  1803               	skipnc
  2852     0744  0AB9               	incf	___flmul@temp+1,f
  2853     0745  30FF               	movlw	255
  2854     0746  07B9               	addwf	___flmul@temp+1,f
  2855     0747                     l1570:
  2856     0747  1FB6               	btfss	___flmul@prod+2,7
  2857     0748  2F4A               	goto	u2171
  2858     0749  2F4B               	goto	u2170
  2859     074A                     u2171:
  2860     074A  2F2A               	goto	l1560
  2861     074B                     u2170:
  2862     074B                     l1572:
  2863     074B  01B2               	clrf	___flmul@aexp
  2864     074C                     l1574:
  2865     074C  1FB1               	btfss	___flmul@grs+3,7
  2866     074D  2F4F               	goto	u2181
  2867     074E  2F50               	goto	u2180
  2868     074F                     u2181:
  2869     074F  2F6C               	goto	l1582
  2870     0750                     u2180:
  2871     0750                     l1576:
  2872     0750  30FF               	movlw	255
  2873     0751  052E               	andwf	___flmul@grs,w
  2874     0752  00A8               	movwf	??___flmul
  2875     0753  30FF               	movlw	255
  2876     0754  052F               	andwf	___flmul@grs+1,w
  2877     0755  00A9               	movwf	??___flmul+1
  2878     0756  30FF               	movlw	255
  2879     0757  0530               	andwf	___flmul@grs+2,w
  2880     0758  00AA               	movwf	??___flmul+2
  2881     0759  307F               	movlw	127
  2882     075A  0531               	andwf	___flmul@grs+3,w
  2883     075B  00AB               	movwf	??___flmul+3
  2884     075C  082B               	movf	??___flmul+3,w
  2885     075D  042A               	iorwf	??___flmul+2,w
  2886     075E  0429               	iorwf	??___flmul+1,w
  2887     075F  0428               	iorwf	??___flmul,w
  2888     0760  1903               	skipnz
  2889     0761  2F63               	goto	u2191
  2890     0762  2F64               	goto	u2190
  2891     0763                     u2191:
  2892     0763  2F67               	goto	l537
  2893     0764                     u2190:
  2894     0764                     l1578:
  2895     0764  01B2               	clrf	___flmul@aexp
  2896     0765  0AB2               	incf	___flmul@aexp,f
  2897     0766  2F6C               	goto	l1582
  2898     0767                     l537:
  2899     0767  1C34               	btfss	___flmul@prod,0
  2900     0768  2F6A               	goto	u2201
  2901     0769  2F6B               	goto	u2200
  2902     076A                     u2201:
  2903     076A  2F6C               	goto	l1582
  2904     076B                     u2200:
  2905     076B  2F64               	goto	l1578
  2906     076C                     l1582:
  2907     076C  0832               	movf	___flmul@aexp,w
  2908     076D  1903               	btfsc	3,2
  2909     076E  2F70               	goto	u2211
  2910     076F  2F71               	goto	u2210
  2911     0770                     u2211:
  2912     0770  2FA2               	goto	l1592
  2913     0771                     u2210:
  2914     0771                     l1584:
  2915     0771  3001               	movlw	1
  2916     0772  07B4               	addwf	___flmul@prod,f
  2917     0773  3000               	movlw	0
  2918     0774  1803               	skipnc
  2919     0775  3001               	movlw	1
  2920     0776  07B5               	addwf	___flmul@prod+1,f
  2921     0777  3000               	movlw	0
  2922     0778  1803               	skipnc
  2923     0779  3001               	movlw	1
  2924     077A  07B6               	addwf	___flmul@prod+2,f
  2925     077B  3000               	movlw	0
  2926     077C  1803               	skipnc
  2927     077D  3001               	movlw	1
  2928     077E  07B7               	addwf	___flmul@prod+3,f
  2929     077F                     l1586:
  2930     077F  1C37               	btfss	___flmul@prod+3,0
  2931     0780  2F82               	goto	u2221
  2932     0781  2F83               	goto	u2220
  2933     0782                     u2221:
  2934     0782  2FA2               	goto	l1592
  2935     0783                     u2220:
  2936     0783                     l1588:
  2937     0783  0834               	movf	___flmul@prod,w
  2938     0784  00A8               	movwf	??___flmul
  2939     0785  0835               	movf	___flmul@prod+1,w
  2940     0786  00A9               	movwf	??___flmul+1
  2941     0787  0836               	movf	___flmul@prod+2,w
  2942     0788  00AA               	movwf	??___flmul+2
  2943     0789  0837               	movf	___flmul@prod+3,w
  2944     078A  00AB               	movwf	??___flmul+3
  2945     078B  3001               	movlw	1
  2946     078C  00AC               	movwf	??___flmul+4
  2947     078D                     u2235:
  2948     078D  0D2B               	rlf	??___flmul+3,w
  2949     078E  0CAB               	rrf	??___flmul+3,f
  2950     078F  0CAA               	rrf	??___flmul+2,f
  2951     0790  0CA9               	rrf	??___flmul+1,f
  2952     0791  0CA8               	rrf	??___flmul,f
  2953     0792                     u2230:
  2954     0792  0BAC               	decfsz	??___flmul+4,f
  2955     0793  2F8D               	goto	u2235
  2956     0794  082B               	movf	??___flmul+3,w
  2957     0795  00B7               	movwf	___flmul@prod+3
  2958     0796  082A               	movf	??___flmul+2,w
  2959     0797  00B6               	movwf	___flmul@prod+2
  2960     0798  0829               	movf	??___flmul+1,w
  2961     0799  00B5               	movwf	___flmul@prod+1
  2962     079A  0828               	movf	??___flmul,w
  2963     079B  00B4               	movwf	___flmul@prod
  2964     079C                     l1590:
  2965     079C  3001               	movlw	1
  2966     079D  07B8               	addwf	___flmul@temp,f
  2967     079E  1803               	skipnc
  2968     079F  0AB9               	incf	___flmul@temp+1,f
  2969     07A0  3000               	movlw	0
  2970     07A1  07B9               	addwf	___flmul@temp+1,f
  2971     07A2                     l1592:
  2972     07A2  0839               	movf	___flmul@temp+1,w
  2973     07A3  3A80               	xorlw	128
  2974     07A4  00FF               	movwf	btemp+1
  2975     07A5  3080               	movlw	128
  2976     07A6  027F               	subwf	btemp+1,w
  2977     07A7  1D03               	skipz
  2978     07A8  2FAB               	goto	u2245
  2979     07A9  30FF               	movlw	255
  2980     07AA  0238               	subwf	___flmul@temp,w
  2981     07AB                     u2245:
  2982     07AB  1C03               	skipc
  2983     07AC  2FAE               	goto	u2241
  2984     07AD  2FAF               	goto	u2240
  2985     07AE                     u2241:
  2986     07AE  2FBA               	goto	l1596
  2987     07AF                     u2240:
  2988     07AF                     l1594:
  2989     07AF  307F               	movlw	127
  2990     07B0  1283               	bcf	3,5	;RP0=0, select bank0
  2991     07B1  1303               	bcf	3,6	;RP1=0, select bank0
  2992     07B2  00B7               	movwf	___flmul@prod+3
  2993     07B3  3080               	movlw	128
  2994     07B4  00B6               	movwf	___flmul@prod+2
  2995     07B5  3000               	movlw	0
  2996     07B6  00B5               	movwf	___flmul@prod+1
  2997     07B7  3000               	movlw	0
  2998     07B8  00B4               	movwf	___flmul@prod
  2999     07B9  2FEB               	goto	l543
  3000     07BA                     l1596:
  3001     07BA  1283               	bcf	3,5	;RP0=0, select bank0
  3002     07BB  1303               	bcf	3,6	;RP1=0, select bank0
  3003     07BC  0839               	movf	___flmul@temp+1,w
  3004     07BD  3A80               	xorlw	128
  3005     07BE  00FF               	movwf	btemp+1
  3006     07BF  3080               	movlw	128
  3007     07C0  027F               	subwf	btemp+1,w
  3008     07C1  1D03               	skipz
  3009     07C2  2FC5               	goto	u2255
  3010     07C3  3001               	movlw	1
  3011     07C4  0238               	subwf	___flmul@temp,w
  3012     07C5                     u2255:
  3013     07C5  1803               	skipnc
  3014     07C6  2FC8               	goto	u2251
  3015     07C7  2FC9               	goto	u2250
  3016     07C8                     u2251:
  3017     07C8  2FD5               	goto	l1602
  3018     07C9                     u2250:
  3019     07C9                     l1598:
  3020     07C9  3000               	movlw	0
  3021     07CA  1283               	bcf	3,5	;RP0=0, select bank0
  3022     07CB  1303               	bcf	3,6	;RP1=0, select bank0
  3023     07CC  00B7               	movwf	___flmul@prod+3
  3024     07CD  3000               	movlw	0
  3025     07CE  00B6               	movwf	___flmul@prod+2
  3026     07CF  3000               	movlw	0
  3027     07D0  00B5               	movwf	___flmul@prod+1
  3028     07D1  3000               	movlw	0
  3029     07D2  00B4               	movwf	___flmul@prod
  3030     07D3                     l1600:
  3031     07D3  01AD               	clrf	___flmul@sign
  3032     07D4  2FEB               	goto	l543
  3033     07D5                     l1602:
  3034     07D5  1283               	bcf	3,5	;RP0=0, select bank0
  3035     07D6  1303               	bcf	3,6	;RP1=0, select bank0
  3036     07D7  0838               	movf	___flmul@temp,w
  3037     07D8  00B3               	movwf	___flmul@bexp
  3038     07D9  30FF               	movlw	255
  3039     07DA  05B4               	andwf	___flmul@prod,f
  3040     07DB  30FF               	movlw	255
  3041     07DC  05B5               	andwf	___flmul@prod+1,f
  3042     07DD  307F               	movlw	127
  3043     07DE  05B6               	andwf	___flmul@prod+2,f
  3044     07DF  3000               	movlw	0
  3045     07E0  05B7               	andwf	___flmul@prod+3,f
  3046     07E1                     l1604:
  3047     07E1  1C33               	btfss	___flmul@bexp,0
  3048     07E2  2FE4               	goto	u2261
  3049     07E3  2FE5               	goto	u2260
  3050     07E4                     u2261:
  3051     07E4  2FE6               	goto	l1608
  3052     07E5                     u2260:
  3053     07E5                     l1606:
  3054     07E5  17B6               	bsf	___flmul@prod+2,7
  3055     07E6                     l1608:
  3056     07E6  0833               	movf	___flmul@bexp,w
  3057     07E7  00A8               	movwf	??___flmul
  3058     07E8  1003               	clrc
  3059     07E9  0C28               	rrf	??___flmul,w
  3060     07EA  00B7               	movwf	___flmul@prod+3
  3061     07EB                     l543:
  3062     07EB  082D               	movf	___flmul@sign,w
  3063     07EC  00A8               	movwf	??___flmul
  3064     07ED  0828               	movf	??___flmul,w
  3065     07EE  04B7               	iorwf	___flmul@prod+3,f
  3066     07EF                     l1610:
  3067     07EF  0837               	movf	___flmul@prod+3,w
  3068     07F0  00A3               	movwf	?___flmul+3
  3069     07F1  0836               	movf	___flmul@prod+2,w
  3070     07F2  00A2               	movwf	?___flmul+2
  3071     07F3  0835               	movf	___flmul@prod+1,w
  3072     07F4  00A1               	movwf	?___flmul+1
  3073     07F5  0834               	movf	___flmul@prod,w
  3074     07F6  00A0               	movwf	?___flmul
  3075     07F7                     l531:
  3076     07F7  0008               	return
  3077     07F8                     __end_of___flmul:
  3078                           
  3079                           	psect	text8
  3080     0DB0                     __ptext8:	
  3081 ;; *************** function __Umul8_16 *****************
  3082 ;; Defined at:
  3083 ;;		line 4 in file "C:\Program Files\Microchip\xc8\v2.40\pic\sources\c90\common\Umul8_16.c"
  3084 ;; Parameters:    Size  Location     Type
  3085 ;;  multiplier      1    wreg     unsigned char 
  3086 ;;  multiplicand    1    0[COMMON] unsigned char 
  3087 ;; Auto vars:     Size  Location     Type
  3088 ;;  multiplier      1    8[COMMON] unsigned char 
  3089 ;;  word_mpld       2    6[COMMON] unsigned int 
  3090 ;;  product         2    4[COMMON] unsigned int 
  3091 ;; Return value:  Size  Location     Type
  3092 ;;                  2    0[COMMON] unsigned int 
  3093 ;; Registers used:
  3094 ;;		wreg, status,2, status,0
  3095 ;; Tracked objects:
  3096 ;;		On entry : 0/0
  3097 ;;		On exit  : 0/0
  3098 ;;		Unchanged: 0/0
  3099 ;; Data sizes:     COMMON   BANK0   BANK1   BANK3   BANK2
  3100 ;;      Params:         2       0       0       0       0
  3101 ;;      Locals:         5       0       0       0       0
  3102 ;;      Temps:          2       0       0       0       0
  3103 ;;      Totals:         9       0       0       0       0
  3104 ;;Total ram usage:        9 bytes
  3105 ;; Hardware stack levels used: 1
  3106 ;; This function calls:
  3107 ;;		Nothing
  3108 ;; This function is called by:
  3109 ;;		___flmul
  3110 ;; This function uses a non-reentrant model
  3111 ;;
  3112                           
  3113     0DB0                     __Umul8_16:	
  3114                           ;psect for function __Umul8_16
  3115                           
  3116                           
  3117                           ;incstack = 0
  3118                           ; Regs used in __Umul8_16: [wreg+status,2+status,0]
  3119                           ;__Umul8_16@multiplier stored from wreg
  3120     0DB0  00F8               	movwf	__Umul8_16@multiplier
  3121     0DB1                     l1174:
  3122     0DB1  01F4               	clrf	__Umul8_16@product
  3123     0DB2  01F5               	clrf	__Umul8_16@product+1
  3124     0DB3                     l1176:
  3125     0DB3  0870               	movf	__Umul8_16@multiplicand,w
  3126     0DB4  00F2               	movwf	??__Umul8_16
  3127     0DB5  01F3               	clrf	??__Umul8_16+1
  3128     0DB6  0872               	movf	??__Umul8_16,w
  3129     0DB7  00F6               	movwf	__Umul8_16@word_mpld
  3130     0DB8  0873               	movf	??__Umul8_16+1,w
  3131     0DB9  00F7               	movwf	__Umul8_16@word_mpld+1
  3132     0DBA                     l1178:
  3133     0DBA  1C78               	btfss	__Umul8_16@multiplier,0
  3134     0DBB  2DBD               	goto	u1231
  3135     0DBC  2DBE               	goto	u1230
  3136     0DBD                     u1231:
  3137     0DBD  2DC4               	goto	l550
  3138     0DBE                     u1230:
  3139     0DBE                     l1180:
  3140     0DBE  0876               	movf	__Umul8_16@word_mpld,w
  3141     0DBF  07F4               	addwf	__Umul8_16@product,f
  3142     0DC0  1803               	skipnc
  3143     0DC1  0AF5               	incf	__Umul8_16@product+1,f
  3144     0DC2  0877               	movf	__Umul8_16@word_mpld+1,w
  3145     0DC3  07F5               	addwf	__Umul8_16@product+1,f
  3146     0DC4                     l550:
  3147     0DC4  3001               	movlw	1
  3148     0DC5                     u1245:
  3149     0DC5  1003               	clrc
  3150     0DC6  0DF6               	rlf	__Umul8_16@word_mpld,f
  3151     0DC7  0DF7               	rlf	__Umul8_16@word_mpld+1,f
  3152     0DC8  3EFF               	addlw	-1
  3153     0DC9  1D03               	skipz
  3154     0DCA  2DC5               	goto	u1245
  3155     0DCB  1003               	clrc
  3156     0DCC  0CF8               	rrf	__Umul8_16@multiplier,f
  3157     0DCD                     l1182:
  3158     0DCD  0878               	movf	__Umul8_16@multiplier,w
  3159     0DCE  1D03               	btfss	3,2
  3160     0DCF  2DD1               	goto	u1251
  3161     0DD0  2DD2               	goto	u1250
  3162     0DD1                     u1251:
  3163     0DD1  2DBA               	goto	l1178
  3164     0DD2                     u1250:
  3165     0DD2                     l1184:
  3166     0DD2  0875               	movf	__Umul8_16@product+1,w
  3167     0DD3  00F1               	movwf	?__Umul8_16+1
  3168     0DD4  0874               	movf	__Umul8_16@product,w
  3169     0DD5  00F0               	movwf	?__Umul8_16
  3170     0DD6                     l552:
  3171     0DD6  0008               	return
  3172     0DD7                     __end_of__Umul8_16:
  3173                           
  3174                           	psect	text9
  3175     0019                     __ptext9:	
  3176 ;; *************** function ___fldiv *****************
  3177 ;; Defined at:
  3178 ;;		line 8 in file "C:\Program Files\Microchip\xc8\v2.40\pic\sources\c90\common\sprcdiv.c"
  3179 ;; Parameters:    Size  Location     Type
  3180 ;;  a               4   26[BANK0 ] unsigned int 
  3181 ;;  b               4   30[BANK0 ] unsigned int 
  3182 ;; Auto vars:     Size  Location     Type
  3183 ;;  grs             4   46[BANK0 ] unsigned long 
  3184 ;;  rem             4   39[BANK0 ] unsigned long 
  3185 ;;  new_exp         2   44[BANK0 ] int 
  3186 ;;  aexp            1   51[BANK0 ] unsigned char 
  3187 ;;  bexp            1   50[BANK0 ] unsigned char 
  3188 ;;  sign            1   43[BANK0 ] unsigned char 
  3189 ;; Return value:  Size  Location     Type
  3190 ;;                  4   26[BANK0 ] unsigned char 
  3191 ;; Registers used:
  3192 ;;		wreg, status,2, status,0, btemp+1
  3193 ;; Tracked objects:
  3194 ;;		On entry : 0/0
  3195 ;;		On exit  : 0/0
  3196 ;;		Unchanged: 0/0
  3197 ;; Data sizes:     COMMON   BANK0   BANK1   BANK3   BANK2
  3198 ;;      Params:         0       8       0       0       0
  3199 ;;      Locals:         0      13       0       0       0
  3200 ;;      Temps:          0       5       0       0       0
  3201 ;;      Totals:         0      26       0       0       0
  3202 ;;Total ram usage:       26 bytes
  3203 ;; Hardware stack levels used: 1
  3204 ;; This function calls:
  3205 ;;		Nothing
  3206 ;; This function is called by:
  3207 ;;		_adc
  3208 ;; This function uses a non-reentrant model
  3209 ;;
  3210                           
  3211     0019                     ___fldiv:	
  3212                           ;psect for function ___fldiv
  3213                           
  3214     0019                     l1332:	
  3215                           ;incstack = 0
  3216                           ; Regs used in ___fldiv: [wreg+status,2+status,0+btemp+1]
  3217                           
  3218     0019  1283               	bcf	3,5	;RP0=0, select bank0
  3219     001A  1303               	bcf	3,6	;RP1=0, select bank0
  3220     001B  0841               	movf	___fldiv@b+3,w
  3221     001C  3980               	andlw	128
  3222     001D  00CB               	movwf	___fldiv@sign
  3223     001E                     l1334:
  3224     001E  0841               	movf	___fldiv@b+3,w
  3225     001F  00C2               	movwf	??___fldiv
  3226     0020  0742               	addwf	??___fldiv,w
  3227     0021  00D2               	movwf	___fldiv@bexp
  3228     0022                     l1336:
  3229     0022  1FC0               	btfss	___fldiv@b+2,7
  3230     0023  2825               	goto	u1611
  3231     0024  2826               	goto	u1610
  3232     0025                     u1611:
  3233     0025  2827               	goto	l1340
  3234     0026                     u1610:
  3235     0026                     l1338:
  3236     0026  1452               	bsf	___fldiv@bexp,0
  3237     0027                     l1340:
  3238     0027  0852               	movf	___fldiv@bexp,w
  3239     0028  1903               	btfsc	3,2
  3240     0029  282B               	goto	u1621
  3241     002A  282C               	goto	u1620
  3242     002B                     u1621:
  3243     002B  283C               	goto	l1350
  3244     002C                     u1620:
  3245     002C                     l1342:
  3246     002C  0A52               	incf	___fldiv@bexp,w
  3247     002D  1D03               	btfss	3,2
  3248     002E  2830               	goto	u1631
  3249     002F  2831               	goto	u1630
  3250     0030                     u1631:
  3251     0030  2839               	goto	l1346
  3252     0031                     u1630:
  3253     0031                     l1344:
  3254     0031  3000               	movlw	0
  3255     0032  00C1               	movwf	___fldiv@b+3
  3256     0033  3000               	movlw	0
  3257     0034  00C0               	movwf	___fldiv@b+2
  3258     0035  3000               	movlw	0
  3259     0036  00BF               	movwf	___fldiv@b+1
  3260     0037  3000               	movlw	0
  3261     0038  00BE               	movwf	___fldiv@b
  3262     0039                     l1346:
  3263     0039  17C0               	bsf	___fldiv@b+2,7
  3264     003A                     l1348:
  3265     003A  01C1               	clrf	___fldiv@b+3
  3266     003B  2844               	goto	l1352
  3267     003C                     l1350:
  3268     003C  3000               	movlw	0
  3269     003D  00C1               	movwf	___fldiv@b+3
  3270     003E  3000               	movlw	0
  3271     003F  00C0               	movwf	___fldiv@b+2
  3272     0040  3000               	movlw	0
  3273     0041  00BF               	movwf	___fldiv@b+1
  3274     0042  3000               	movlw	0
  3275     0043  00BE               	movwf	___fldiv@b
  3276     0044                     l1352:
  3277     0044  083D               	movf	___fldiv@a+3,w
  3278     0045  3980               	andlw	128
  3279     0046  00C2               	movwf	??___fldiv
  3280     0047  0842               	movf	??___fldiv,w
  3281     0048  06CB               	xorwf	___fldiv@sign,f
  3282     0049                     l1354:
  3283     0049  083D               	movf	___fldiv@a+3,w
  3284     004A  00C2               	movwf	??___fldiv
  3285     004B  0742               	addwf	??___fldiv,w
  3286     004C  00D3               	movwf	___fldiv@aexp
  3287     004D                     l1356:
  3288     004D  1FBC               	btfss	___fldiv@a+2,7
  3289     004E  2850               	goto	u1641
  3290     004F  2851               	goto	u1640
  3291     0050                     u1641:
  3292     0050  2852               	goto	l1360
  3293     0051                     u1640:
  3294     0051                     l1358:
  3295     0051  1453               	bsf	___fldiv@aexp,0
  3296     0052                     l1360:
  3297     0052  0853               	movf	___fldiv@aexp,w
  3298     0053  1903               	btfsc	3,2
  3299     0054  2856               	goto	u1651
  3300     0055  2857               	goto	u1650
  3301     0056                     u1651:
  3302     0056  2867               	goto	l1370
  3303     0057                     u1650:
  3304     0057                     l1362:
  3305     0057  0A53               	incf	___fldiv@aexp,w
  3306     0058  1D03               	btfss	3,2
  3307     0059  285B               	goto	u1661
  3308     005A  285C               	goto	u1660
  3309     005B                     u1661:
  3310     005B  2864               	goto	l1366
  3311     005C                     u1660:
  3312     005C                     l1364:
  3313     005C  3000               	movlw	0
  3314     005D  00BD               	movwf	___fldiv@a+3
  3315     005E  3000               	movlw	0
  3316     005F  00BC               	movwf	___fldiv@a+2
  3317     0060  3000               	movlw	0
  3318     0061  00BB               	movwf	___fldiv@a+1
  3319     0062  3000               	movlw	0
  3320     0063  00BA               	movwf	___fldiv@a
  3321     0064                     l1366:
  3322     0064  17BC               	bsf	___fldiv@a+2,7
  3323     0065                     l1368:
  3324     0065  01BD               	clrf	___fldiv@a+3
  3325     0066  286F               	goto	l491
  3326     0067                     l1370:
  3327     0067  3000               	movlw	0
  3328     0068  00BD               	movwf	___fldiv@a+3
  3329     0069  3000               	movlw	0
  3330     006A  00BC               	movwf	___fldiv@a+2
  3331     006B  3000               	movlw	0
  3332     006C  00BB               	movwf	___fldiv@a+1
  3333     006D  3000               	movlw	0
  3334     006E  00BA               	movwf	___fldiv@a
  3335     006F                     l491:
  3336     006F  083D               	movf	___fldiv@a+3,w
  3337     0070  043C               	iorwf	___fldiv@a+2,w
  3338     0071  043B               	iorwf	___fldiv@a+1,w
  3339     0072  043A               	iorwf	___fldiv@a,w
  3340     0073  1D03               	skipz
  3341     0074  2876               	goto	u1671
  3342     0075  2877               	goto	u1670
  3343     0076                     u1671:
  3344     0076  2890               	goto	l1380
  3345     0077                     u1670:
  3346     0077                     l1372:
  3347     0077  3000               	movlw	0
  3348     0078  00C1               	movwf	___fldiv@b+3
  3349     0079  3000               	movlw	0
  3350     007A  00C0               	movwf	___fldiv@b+2
  3351     007B  3000               	movlw	0
  3352     007C  00BF               	movwf	___fldiv@b+1
  3353     007D  3000               	movlw	0
  3354     007E  00BE               	movwf	___fldiv@b
  3355     007F  3080               	movlw	128
  3356     0080  04C0               	iorwf	___fldiv@b+2,f
  3357     0081  307F               	movlw	127
  3358     0082  04C1               	iorwf	___fldiv@b+3,f
  3359     0083                     l1374:
  3360     0083  084B               	movf	___fldiv@sign,w
  3361     0084  00C2               	movwf	??___fldiv
  3362     0085  0842               	movf	??___fldiv,w
  3363     0086  04C1               	iorwf	___fldiv@b+3,f
  3364     0087                     l1376:
  3365     0087  0841               	movf	___fldiv@b+3,w
  3366     0088  00BD               	movwf	?___fldiv+3
  3367     0089  0840               	movf	___fldiv@b+2,w
  3368     008A  00BC               	movwf	?___fldiv+2
  3369     008B  083F               	movf	___fldiv@b+1,w
  3370     008C  00BB               	movwf	?___fldiv+1
  3371     008D  083E               	movf	___fldiv@b,w
  3372     008E  00BA               	movwf	?___fldiv
  3373     008F  29EB               	goto	l493
  3374     0090                     l1380:
  3375     0090  0852               	movf	___fldiv@bexp,w
  3376     0091  1D03               	btfss	3,2
  3377     0092  2894               	goto	u1681
  3378     0093  2895               	goto	u1680
  3379     0094                     u1681:
  3380     0094  289E               	goto	l1386
  3381     0095                     u1680:
  3382     0095                     l1382:
  3383     0095  3000               	movlw	0
  3384     0096  00BD               	movwf	?___fldiv+3
  3385     0097  3000               	movlw	0
  3386     0098  00BC               	movwf	?___fldiv+2
  3387     0099  3000               	movlw	0
  3388     009A  00BB               	movwf	?___fldiv+1
  3389     009B  3000               	movlw	0
  3390     009C  00BA               	movwf	?___fldiv
  3391     009D  29EB               	goto	l493
  3392     009E                     l1386:
  3393     009E  0852               	movf	___fldiv@bexp,w
  3394     009F  00C2               	movwf	??___fldiv
  3395     00A0  01C3               	clrf	??___fldiv+1
  3396     00A1  0843               	movf	??___fldiv+1,w
  3397     00A2  00C5               	movwf	??___fldiv+3
  3398     00A3  0853               	movf	___fldiv@aexp,w
  3399     00A4  0242               	subwf	??___fldiv,w
  3400     00A5  00C4               	movwf	??___fldiv+2
  3401     00A6  1C03               	skipc
  3402     00A7  03C5               	decf	??___fldiv+3,f
  3403     00A8  0844               	movf	??___fldiv+2,w
  3404     00A9  3E7F               	addlw	127
  3405     00AA  00CC               	movwf	___fldiv@new_exp
  3406     00AB  0845               	movf	??___fldiv+3,w
  3407     00AC  1803               	skipnc
  3408     00AD  3E01               	addlw	1
  3409     00AE  3E00               	addlw	0
  3410     00AF  00CD               	movwf	___fldiv@new_exp+1
  3411     00B0                     l1388:
  3412     00B0  0841               	movf	___fldiv@b+3,w
  3413     00B1  00CA               	movwf	___fldiv@rem+3
  3414     00B2  0840               	movf	___fldiv@b+2,w
  3415     00B3  00C9               	movwf	___fldiv@rem+2
  3416     00B4  083F               	movf	___fldiv@b+1,w
  3417     00B5  00C8               	movwf	___fldiv@rem+1
  3418     00B6  083E               	movf	___fldiv@b,w
  3419     00B7  00C7               	movwf	___fldiv@rem
  3420     00B8                     l1390:
  3421     00B8  3000               	movlw	0
  3422     00B9  00C1               	movwf	___fldiv@b+3
  3423     00BA  3000               	movlw	0
  3424     00BB  00C0               	movwf	___fldiv@b+2
  3425     00BC  3000               	movlw	0
  3426     00BD  00BF               	movwf	___fldiv@b+1
  3427     00BE  3000               	movlw	0
  3428     00BF  00BE               	movwf	___fldiv@b
  3429     00C0                     l1392:
  3430     00C0  3000               	movlw	0
  3431     00C1  00D1               	movwf	___fldiv@grs+3
  3432     00C2  3000               	movlw	0
  3433     00C3  00D0               	movwf	___fldiv@grs+2
  3434     00C4  3000               	movlw	0
  3435     00C5  00CF               	movwf	___fldiv@grs+1
  3436     00C6  3000               	movlw	0
  3437     00C7  00CE               	movwf	___fldiv@grs
  3438     00C8                     l1394:
  3439     00C8  01D3               	clrf	___fldiv@aexp
  3440     00C9  2914               	goto	l1414
  3441     00CA                     l1396:
  3442     00CA  0853               	movf	___fldiv@aexp,w
  3443     00CB  1903               	btfsc	3,2
  3444     00CC  28CE               	goto	u1691
  3445     00CD  28CF               	goto	u1690
  3446     00CE                     u1691:
  3447     00CE  28EF               	goto	l1406
  3448     00CF                     u1690:
  3449     00CF                     l1398:
  3450     00CF  3001               	movlw	1
  3451     00D0  00C2               	movwf	??___fldiv
  3452     00D1                     u1705:
  3453     00D1  1003               	clrc
  3454     00D2  0DC7               	rlf	___fldiv@rem,f
  3455     00D3  0DC8               	rlf	___fldiv@rem+1,f
  3456     00D4  0DC9               	rlf	___fldiv@rem+2,f
  3457     00D5  0DCA               	rlf	___fldiv@rem+3,f
  3458     00D6  0BC2               	decfsz	??___fldiv,f
  3459     00D7  28D1               	goto	u1705
  3460     00D8  3001               	movlw	1
  3461     00D9  00C2               	movwf	??___fldiv
  3462     00DA                     u1715:
  3463     00DA  1003               	clrc
  3464     00DB  0DBE               	rlf	___fldiv@b,f
  3465     00DC  0DBF               	rlf	___fldiv@b+1,f
  3466     00DD  0DC0               	rlf	___fldiv@b+2,f
  3467     00DE  0DC1               	rlf	___fldiv@b+3,f
  3468     00DF  0BC2               	decfsz	??___fldiv,f
  3469     00E0  28DA               	goto	u1715
  3470     00E1                     l1400:
  3471     00E1  1FD1               	btfss	___fldiv@grs+3,7
  3472     00E2  28E4               	goto	u1721
  3473     00E3  28E5               	goto	u1720
  3474     00E4                     u1721:
  3475     00E4  28E6               	goto	l1404
  3476     00E5                     u1720:
  3477     00E5                     l1402:
  3478     00E5  143E               	bsf	___fldiv@b,0
  3479     00E6                     l1404:
  3480     00E6  3001               	movlw	1
  3481     00E7  00C2               	movwf	??___fldiv
  3482     00E8                     u1735:
  3483     00E8  1003               	clrc
  3484     00E9  0DCE               	rlf	___fldiv@grs,f
  3485     00EA  0DCF               	rlf	___fldiv@grs+1,f
  3486     00EB  0DD0               	rlf	___fldiv@grs+2,f
  3487     00EC  0DD1               	rlf	___fldiv@grs+3,f
  3488     00ED  0BC2               	decfsz	??___fldiv,f
  3489     00EE  28E8               	goto	u1735
  3490     00EF                     l1406:
  3491     00EF  083D               	movf	___fldiv@a+3,w
  3492     00F0  024A               	subwf	___fldiv@rem+3,w
  3493     00F1  1D03               	skipz
  3494     00F2  28FD               	goto	u1745
  3495     00F3  083C               	movf	___fldiv@a+2,w
  3496     00F4  0249               	subwf	___fldiv@rem+2,w
  3497     00F5  1D03               	skipz
  3498     00F6  28FD               	goto	u1745
  3499     00F7  083B               	movf	___fldiv@a+1,w
  3500     00F8  0248               	subwf	___fldiv@rem+1,w
  3501     00F9  1D03               	skipz
  3502     00FA  28FD               	goto	u1745
  3503     00FB  083A               	movf	___fldiv@a,w
  3504     00FC  0247               	subwf	___fldiv@rem,w
  3505     00FD                     u1745:
  3506     00FD  1C03               	skipc
  3507     00FE  2900               	goto	u1741
  3508     00FF  2901               	goto	u1740
  3509     0100                     u1741:
  3510     0100  2910               	goto	l1412
  3511     0101                     u1740:
  3512     0101                     l1408:
  3513     0101  1751               	bsf	___fldiv@grs+3,6
  3514     0102                     l1410:
  3515     0102  083A               	movf	___fldiv@a,w
  3516     0103  02C7               	subwf	___fldiv@rem,f
  3517     0104  083B               	movf	___fldiv@a+1,w
  3518     0105  1C03               	skipc
  3519     0106  0F3B               	incfsz	___fldiv@a+1,w
  3520     0107  02C8               	subwf	___fldiv@rem+1,f
  3521     0108  083C               	movf	___fldiv@a+2,w
  3522     0109  1C03               	skipc
  3523     010A  0F3C               	incfsz	___fldiv@a+2,w
  3524     010B  02C9               	subwf	___fldiv@rem+2,f
  3525     010C  083D               	movf	___fldiv@a+3,w
  3526     010D  1C03               	skipc
  3527     010E  0F3D               	incfsz	___fldiv@a+3,w
  3528     010F  02CA               	subwf	___fldiv@rem+3,f
  3529     0110                     l1412:
  3530     0110  3001               	movlw	1
  3531     0111  00C2               	movwf	??___fldiv
  3532     0112  0842               	movf	??___fldiv,w
  3533     0113  07D3               	addwf	___fldiv@aexp,f
  3534     0114                     l1414:
  3535     0114  301A               	movlw	26
  3536     0115  0253               	subwf	___fldiv@aexp,w
  3537     0116  1C03               	skipc
  3538     0117  2919               	goto	u1751
  3539     0118  291A               	goto	u1750
  3540     0119                     u1751:
  3541     0119  28CA               	goto	l1396
  3542     011A                     u1750:
  3543     011A                     l1416:
  3544     011A  084A               	movf	___fldiv@rem+3,w
  3545     011B  0449               	iorwf	___fldiv@rem+2,w
  3546     011C  0448               	iorwf	___fldiv@rem+1,w
  3547     011D  0447               	iorwf	___fldiv@rem,w
  3548     011E  1903               	skipnz
  3549     011F  2921               	goto	u1761
  3550     0120  2922               	goto	u1760
  3551     0121                     u1761:
  3552     0121  2941               	goto	l1430
  3553     0122                     u1760:
  3554     0122                     l1418:
  3555     0122  144E               	bsf	___fldiv@grs,0
  3556     0123  2941               	goto	l1430
  3557     0124                     l1420:
  3558     0124  3001               	movlw	1
  3559     0125  00C2               	movwf	??___fldiv
  3560     0126                     u1775:
  3561     0126  1003               	clrc
  3562     0127  0DBE               	rlf	___fldiv@b,f
  3563     0128  0DBF               	rlf	___fldiv@b+1,f
  3564     0129  0DC0               	rlf	___fldiv@b+2,f
  3565     012A  0DC1               	rlf	___fldiv@b+3,f
  3566     012B  0BC2               	decfsz	??___fldiv,f
  3567     012C  2926               	goto	u1775
  3568     012D                     l1422:
  3569     012D  1FD1               	btfss	___fldiv@grs+3,7
  3570     012E  2930               	goto	u1781
  3571     012F  2931               	goto	u1780
  3572     0130                     u1781:
  3573     0130  2932               	goto	l1426
  3574     0131                     u1780:
  3575     0131                     l1424:
  3576     0131  143E               	bsf	___fldiv@b,0
  3577     0132                     l1426:
  3578     0132  3001               	movlw	1
  3579     0133  00C2               	movwf	??___fldiv
  3580     0134                     u1795:
  3581     0134  1003               	clrc
  3582     0135  0DCE               	rlf	___fldiv@grs,f
  3583     0136  0DCF               	rlf	___fldiv@grs+1,f
  3584     0137  0DD0               	rlf	___fldiv@grs+2,f
  3585     0138  0DD1               	rlf	___fldiv@grs+3,f
  3586     0139  0BC2               	decfsz	??___fldiv,f
  3587     013A  2934               	goto	u1795
  3588     013B                     l1428:
  3589     013B  30FF               	movlw	255
  3590     013C  07CC               	addwf	___fldiv@new_exp,f
  3591     013D  1803               	skipnc
  3592     013E  0ACD               	incf	___fldiv@new_exp+1,f
  3593     013F  30FF               	movlw	255
  3594     0140  07CD               	addwf	___fldiv@new_exp+1,f
  3595     0141                     l1430:
  3596     0141  1FC0               	btfss	___fldiv@b+2,7
  3597     0142  2944               	goto	u1801
  3598     0143  2945               	goto	u1800
  3599     0144                     u1801:
  3600     0144  2924               	goto	l1420
  3601     0145                     u1800:
  3602     0145                     l1432:
  3603     0145  01D3               	clrf	___fldiv@aexp
  3604     0146                     l1434:
  3605     0146  1FD1               	btfss	___fldiv@grs+3,7
  3606     0147  2949               	goto	u1811
  3607     0148  294A               	goto	u1810
  3608     0149                     u1811:
  3609     0149  2966               	goto	l1442
  3610     014A                     u1810:
  3611     014A                     l1436:
  3612     014A  30FF               	movlw	255
  3613     014B  054E               	andwf	___fldiv@grs,w
  3614     014C  00C2               	movwf	??___fldiv
  3615     014D  30FF               	movlw	255
  3616     014E  054F               	andwf	___fldiv@grs+1,w
  3617     014F  00C3               	movwf	??___fldiv+1
  3618     0150  30FF               	movlw	255
  3619     0151  0550               	andwf	___fldiv@grs+2,w
  3620     0152  00C4               	movwf	??___fldiv+2
  3621     0153  307F               	movlw	127
  3622     0154  0551               	andwf	___fldiv@grs+3,w
  3623     0155  00C5               	movwf	??___fldiv+3
  3624     0156  0845               	movf	??___fldiv+3,w
  3625     0157  0444               	iorwf	??___fldiv+2,w
  3626     0158  0443               	iorwf	??___fldiv+1,w
  3627     0159  0442               	iorwf	??___fldiv,w
  3628     015A  1903               	skipnz
  3629     015B  295D               	goto	u1821
  3630     015C  295E               	goto	u1820
  3631     015D                     u1821:
  3632     015D  2961               	goto	l507
  3633     015E                     u1820:
  3634     015E                     l1438:
  3635     015E  01D3               	clrf	___fldiv@aexp
  3636     015F  0AD3               	incf	___fldiv@aexp,f
  3637     0160  2966               	goto	l1442
  3638     0161                     l507:
  3639     0161  1C3E               	btfss	___fldiv@b,0
  3640     0162  2964               	goto	u1831
  3641     0163  2965               	goto	u1830
  3642     0164                     u1831:
  3643     0164  2966               	goto	l1442
  3644     0165                     u1830:
  3645     0165  295E               	goto	l1438
  3646     0166                     l1442:
  3647     0166  0853               	movf	___fldiv@aexp,w
  3648     0167  1903               	btfsc	3,2
  3649     0168  296A               	goto	u1841
  3650     0169  296B               	goto	u1840
  3651     016A                     u1841:
  3652     016A  299C               	goto	l1452
  3653     016B                     u1840:
  3654     016B                     l1444:
  3655     016B  3001               	movlw	1
  3656     016C  07BE               	addwf	___fldiv@b,f
  3657     016D  3000               	movlw	0
  3658     016E  1803               	skipnc
  3659     016F  3001               	movlw	1
  3660     0170  07BF               	addwf	___fldiv@b+1,f
  3661     0171  3000               	movlw	0
  3662     0172  1803               	skipnc
  3663     0173  3001               	movlw	1
  3664     0174  07C0               	addwf	___fldiv@b+2,f
  3665     0175  3000               	movlw	0
  3666     0176  1803               	skipnc
  3667     0177  3001               	movlw	1
  3668     0178  07C1               	addwf	___fldiv@b+3,f
  3669     0179                     l1446:
  3670     0179  1C41               	btfss	___fldiv@b+3,0
  3671     017A  297C               	goto	u1851
  3672     017B  297D               	goto	u1850
  3673     017C                     u1851:
  3674     017C  299C               	goto	l1452
  3675     017D                     u1850:
  3676     017D                     l1448:
  3677     017D  083E               	movf	___fldiv@b,w
  3678     017E  00C2               	movwf	??___fldiv
  3679     017F  083F               	movf	___fldiv@b+1,w
  3680     0180  00C3               	movwf	??___fldiv+1
  3681     0181  0840               	movf	___fldiv@b+2,w
  3682     0182  00C4               	movwf	??___fldiv+2
  3683     0183  0841               	movf	___fldiv@b+3,w
  3684     0184  00C5               	movwf	??___fldiv+3
  3685     0185  3001               	movlw	1
  3686     0186  00C6               	movwf	??___fldiv+4
  3687     0187                     u1865:
  3688     0187  0D45               	rlf	??___fldiv+3,w
  3689     0188  0CC5               	rrf	??___fldiv+3,f
  3690     0189  0CC4               	rrf	??___fldiv+2,f
  3691     018A  0CC3               	rrf	??___fldiv+1,f
  3692     018B  0CC2               	rrf	??___fldiv,f
  3693     018C                     u1860:
  3694     018C  0BC6               	decfsz	??___fldiv+4,f
  3695     018D  2987               	goto	u1865
  3696     018E  0845               	movf	??___fldiv+3,w
  3697     018F  00C1               	movwf	___fldiv@b+3
  3698     0190  0844               	movf	??___fldiv+2,w
  3699     0191  00C0               	movwf	___fldiv@b+2
  3700     0192  0843               	movf	??___fldiv+1,w
  3701     0193  00BF               	movwf	___fldiv@b+1
  3702     0194  0842               	movf	??___fldiv,w
  3703     0195  00BE               	movwf	___fldiv@b
  3704     0196                     l1450:
  3705     0196  3001               	movlw	1
  3706     0197  07CC               	addwf	___fldiv@new_exp,f
  3707     0198  1803               	skipnc
  3708     0199  0ACD               	incf	___fldiv@new_exp+1,f
  3709     019A  3000               	movlw	0
  3710     019B  07CD               	addwf	___fldiv@new_exp+1,f
  3711     019C                     l1452:
  3712     019C  084D               	movf	___fldiv@new_exp+1,w
  3713     019D  3A80               	xorlw	128
  3714     019E  00FF               	movwf	btemp+1
  3715     019F  3080               	movlw	128
  3716     01A0  027F               	subwf	btemp+1,w
  3717     01A1  1D03               	skipz
  3718     01A2  29A5               	goto	u1875
  3719     01A3  30FF               	movlw	255
  3720     01A4  024C               	subwf	___fldiv@new_exp,w
  3721     01A5                     u1875:
  3722     01A5  1C03               	skipc
  3723     01A6  29A8               	goto	u1871
  3724     01A7  29A9               	goto	u1870
  3725     01A8                     u1871:
  3726     01A8  29B7               	goto	l1456
  3727     01A9                     u1870:
  3728     01A9                     l1454:
  3729     01A9  30FF               	movlw	255
  3730     01AA  1283               	bcf	3,5	;RP0=0, select bank0
  3731     01AB  1303               	bcf	3,6	;RP1=0, select bank0
  3732     01AC  00CC               	movwf	___fldiv@new_exp
  3733     01AD  3000               	movlw	0
  3734     01AE  00CD               	movwf	___fldiv@new_exp+1
  3735     01AF  3000               	movlw	0
  3736     01B0  00C1               	movwf	___fldiv@b+3
  3737     01B1  3000               	movlw	0
  3738     01B2  00C0               	movwf	___fldiv@b+2
  3739     01B3  3000               	movlw	0
  3740     01B4  00BF               	movwf	___fldiv@b+1
  3741     01B5  3000               	movlw	0
  3742     01B6  00BE               	movwf	___fldiv@b
  3743     01B7                     l1456:
  3744     01B7  1283               	bcf	3,5	;RP0=0, select bank0
  3745     01B8  1303               	bcf	3,6	;RP1=0, select bank0
  3746     01B9  084D               	movf	___fldiv@new_exp+1,w
  3747     01BA  3A80               	xorlw	128
  3748     01BB  00FF               	movwf	btemp+1
  3749     01BC  3080               	movlw	128
  3750     01BD  027F               	subwf	btemp+1,w
  3751     01BE  1D03               	skipz
  3752     01BF  29C2               	goto	u1885
  3753     01C0  3001               	movlw	1
  3754     01C1  024C               	subwf	___fldiv@new_exp,w
  3755     01C2                     u1885:
  3756     01C2  1803               	skipnc
  3757     01C3  29C5               	goto	u1881
  3758     01C4  29C6               	goto	u1880
  3759     01C5                     u1881:
  3760     01C5  29D3               	goto	l513
  3761     01C6                     u1880:
  3762     01C6                     l1458:
  3763     01C6  1283               	bcf	3,5	;RP0=0, select bank0
  3764     01C7  1303               	bcf	3,6	;RP1=0, select bank0
  3765     01C8  01CC               	clrf	___fldiv@new_exp
  3766     01C9  01CD               	clrf	___fldiv@new_exp+1
  3767     01CA                     l1460:
  3768     01CA  3000               	movlw	0
  3769     01CB  00C1               	movwf	___fldiv@b+3
  3770     01CC  3000               	movlw	0
  3771     01CD  00C0               	movwf	___fldiv@b+2
  3772     01CE  3000               	movlw	0
  3773     01CF  00BF               	movwf	___fldiv@b+1
  3774     01D0  3000               	movlw	0
  3775     01D1  00BE               	movwf	___fldiv@b
  3776     01D2                     l1462:
  3777     01D2  01CB               	clrf	___fldiv@sign
  3778     01D3                     l513:
  3779     01D3  1283               	bcf	3,5	;RP0=0, select bank0
  3780     01D4  1303               	bcf	3,6	;RP1=0, select bank0
  3781     01D5  084C               	movf	___fldiv@new_exp,w
  3782     01D6  00D2               	movwf	___fldiv@bexp
  3783     01D7                     l1464:
  3784     01D7  1C52               	btfss	___fldiv@bexp,0
  3785     01D8  29DA               	goto	u1891
  3786     01D9  29DB               	goto	u1890
  3787     01DA                     u1891:
  3788     01DA  29DD               	goto	l1468
  3789     01DB                     u1890:
  3790     01DB                     l1466:
  3791     01DB  17C0               	bsf	___fldiv@b+2,7
  3792     01DC  29E1               	goto	l515
  3793     01DD                     l1468:
  3794     01DD  307F               	movlw	127
  3795     01DE  00C2               	movwf	??___fldiv
  3796     01DF  0842               	movf	??___fldiv,w
  3797     01E0  05C0               	andwf	___fldiv@b+2,f
  3798     01E1                     l515:
  3799     01E1  0852               	movf	___fldiv@bexp,w
  3800     01E2  00C2               	movwf	??___fldiv
  3801     01E3  1003               	clrc
  3802     01E4  0C42               	rrf	??___fldiv,w
  3803     01E5  00C1               	movwf	___fldiv@b+3
  3804     01E6  084B               	movf	___fldiv@sign,w
  3805     01E7  00C2               	movwf	??___fldiv
  3806     01E8  0842               	movf	??___fldiv,w
  3807     01E9  04C1               	iorwf	___fldiv@b+3,f
  3808     01EA  2887               	goto	l1376
  3809     01EB                     l493:
  3810     01EB  0008               	return
  3811     01EC                     __end_of___fldiv:
  3812                           
  3813                           	psect	text10
  3814     0E0C                     __ptext10:	
  3815 ;; *************** function ___awmod *****************
  3816 ;; Defined at:
  3817 ;;		line 5 in file "C:\Program Files\Microchip\xc8\v2.40\pic\sources\c90\common\awmod.c"
  3818 ;; Parameters:    Size  Location     Type
  3819 ;;  divisor         2    4[BANK0 ] int 
  3820 ;;  dividend        2    6[BANK0 ] int 
  3821 ;; Auto vars:     Size  Location     Type
  3822 ;;  sign            1   13[COMMON] unsigned char 
  3823 ;;  counter         1   12[COMMON] unsigned char 
  3824 ;; Return value:  Size  Location     Type
  3825 ;;                  2    4[BANK0 ] int 
  3826 ;; Registers used:
  3827 ;;		wreg, status,2, status,0
  3828 ;; Tracked objects:
  3829 ;;		On entry : 0/0
  3830 ;;		On exit  : 0/0
  3831 ;;		Unchanged: 0/0
  3832 ;; Data sizes:     COMMON   BANK0   BANK1   BANK3   BANK2
  3833 ;;      Params:         0       4       0       0       0
  3834 ;;      Locals:         2       0       0       0       0
  3835 ;;      Temps:          1       0       0       0       0
  3836 ;;      Totals:         3       4       0       0       0
  3837 ;;Total ram usage:        7 bytes
  3838 ;; Hardware stack levels used: 1
  3839 ;; This function calls:
  3840 ;;		Nothing
  3841 ;; This function is called by:
  3842 ;;		_adc
  3843 ;; This function uses a non-reentrant model
  3844 ;;
  3845                           
  3846     0E0C                     ___awmod:	
  3847                           ;psect for function ___awmod
  3848                           
  3849     0E0C                     l1258:	
  3850                           ;incstack = 0
  3851                           ; Regs used in ___awmod: [wreg+status,2+status,0]
  3852                           
  3853     0E0C  01FD               	clrf	___awmod@sign
  3854     0E0D                     l1260:
  3855     0E0D  1283               	bcf	3,5	;RP0=0, select bank0
  3856     0E0E  1303               	bcf	3,6	;RP1=0, select bank0
  3857     0E0F  1FA7               	btfss	___awmod@dividend+1,7
  3858     0E10  2E12               	goto	u1421
  3859     0E11  2E13               	goto	u1420
  3860     0E12                     u1421:
  3861     0E12  2E1A               	goto	l1266
  3862     0E13                     u1420:
  3863     0E13                     l1262:
  3864     0E13  09A6               	comf	___awmod@dividend,f
  3865     0E14  09A7               	comf	___awmod@dividend+1,f
  3866     0E15  0AA6               	incf	___awmod@dividend,f
  3867     0E16  1903               	skipnz
  3868     0E17  0AA7               	incf	___awmod@dividend+1,f
  3869     0E18                     l1264:
  3870     0E18  01FD               	clrf	___awmod@sign
  3871     0E19  0AFD               	incf	___awmod@sign,f
  3872     0E1A                     l1266:
  3873     0E1A  1FA5               	btfss	___awmod@divisor+1,7
  3874     0E1B  2E1D               	goto	u1431
  3875     0E1C  2E1E               	goto	u1430
  3876     0E1D                     u1431:
  3877     0E1D  2E23               	goto	l1270
  3878     0E1E                     u1430:
  3879     0E1E                     l1268:
  3880     0E1E  09A4               	comf	___awmod@divisor,f
  3881     0E1F  09A5               	comf	___awmod@divisor+1,f
  3882     0E20  0AA4               	incf	___awmod@divisor,f
  3883     0E21  1903               	skipnz
  3884     0E22  0AA5               	incf	___awmod@divisor+1,f
  3885     0E23                     l1270:
  3886     0E23  0824               	movf	___awmod@divisor,w
  3887     0E24  0425               	iorwf	___awmod@divisor+1,w
  3888     0E25  1903               	btfsc	3,2
  3889     0E26  2E28               	goto	u1441
  3890     0E27  2E29               	goto	u1440
  3891     0E28                     u1441:
  3892     0E28  2E58               	goto	l1288
  3893     0E29                     u1440:
  3894     0E29                     l1272:
  3895     0E29  01FC               	clrf	___awmod@counter
  3896     0E2A  0AFC               	incf	___awmod@counter,f
  3897     0E2B  2E37               	goto	l1278
  3898     0E2C                     l1274:
  3899     0E2C  3001               	movlw	1
  3900     0E2D                     u1455:
  3901     0E2D  1003               	clrc
  3902     0E2E  0DA4               	rlf	___awmod@divisor,f
  3903     0E2F  0DA5               	rlf	___awmod@divisor+1,f
  3904     0E30  3EFF               	addlw	-1
  3905     0E31  1D03               	skipz
  3906     0E32  2E2D               	goto	u1455
  3907     0E33                     l1276:
  3908     0E33  3001               	movlw	1
  3909     0E34  00FB               	movwf	??___awmod
  3910     0E35  087B               	movf	??___awmod,w
  3911     0E36  07FC               	addwf	___awmod@counter,f
  3912     0E37                     l1278:
  3913     0E37  1FA5               	btfss	___awmod@divisor+1,7
  3914     0E38  2E3A               	goto	u1461
  3915     0E39  2E3B               	goto	u1460
  3916     0E3A                     u1461:
  3917     0E3A  2E2C               	goto	l1274
  3918     0E3B                     u1460:
  3919     0E3B                     l1280:
  3920     0E3B  0825               	movf	___awmod@divisor+1,w
  3921     0E3C  0227               	subwf	___awmod@dividend+1,w
  3922     0E3D  1D03               	skipz
  3923     0E3E  2E41               	goto	u1475
  3924     0E3F  0824               	movf	___awmod@divisor,w
  3925     0E40  0226               	subwf	___awmod@dividend,w
  3926     0E41                     u1475:
  3927     0E41  1C03               	skipc
  3928     0E42  2E44               	goto	u1471
  3929     0E43  2E45               	goto	u1470
  3930     0E44                     u1471:
  3931     0E44  2E4B               	goto	l1284
  3932     0E45                     u1470:
  3933     0E45                     l1282:
  3934     0E45  0824               	movf	___awmod@divisor,w
  3935     0E46  02A6               	subwf	___awmod@dividend,f
  3936     0E47  0825               	movf	___awmod@divisor+1,w
  3937     0E48  1C03               	skipc
  3938     0E49  03A7               	decf	___awmod@dividend+1,f
  3939     0E4A  02A7               	subwf	___awmod@dividend+1,f
  3940     0E4B                     l1284:
  3941     0E4B  3001               	movlw	1
  3942     0E4C                     u1485:
  3943     0E4C  1003               	clrc
  3944     0E4D  0CA5               	rrf	___awmod@divisor+1,f
  3945     0E4E  0CA4               	rrf	___awmod@divisor,f
  3946     0E4F  3EFF               	addlw	-1
  3947     0E50  1D03               	skipz
  3948     0E51  2E4C               	goto	u1485
  3949     0E52                     l1286:
  3950     0E52  3001               	movlw	1
  3951     0E53  02FC               	subwf	___awmod@counter,f
  3952     0E54  1D03               	btfss	3,2
  3953     0E55  2E57               	goto	u1491
  3954     0E56  2E58               	goto	u1490
  3955     0E57                     u1491:
  3956     0E57  2E3B               	goto	l1280
  3957     0E58                     u1490:
  3958     0E58                     l1288:
  3959     0E58  087D               	movf	___awmod@sign,w
  3960     0E59  1903               	btfsc	3,2
  3961     0E5A  2E5C               	goto	u1501
  3962     0E5B  2E5D               	goto	u1500
  3963     0E5C                     u1501:
  3964     0E5C  2E62               	goto	l1292
  3965     0E5D                     u1500:
  3966     0E5D                     l1290:
  3967     0E5D  09A6               	comf	___awmod@dividend,f
  3968     0E5E  09A7               	comf	___awmod@dividend+1,f
  3969     0E5F  0AA6               	incf	___awmod@dividend,f
  3970     0E60  1903               	skipnz
  3971     0E61  0AA7               	incf	___awmod@dividend+1,f
  3972     0E62                     l1292:
  3973     0E62  0827               	movf	___awmod@dividend+1,w
  3974     0E63  00A5               	movwf	?___awmod+1
  3975     0E64  0826               	movf	___awmod@dividend,w
  3976     0E65  00A4               	movwf	?___awmod
  3977     0E66                     l308:
  3978     0E66  0008               	return
  3979     0E67                     __end_of___awmod:
  3980                           
  3981                           	psect	text11
  3982     0E67                     __ptext11:	
  3983 ;; *************** function ___awdiv *****************
  3984 ;; Defined at:
  3985 ;;		line 5 in file "C:\Program Files\Microchip\xc8\v2.40\pic\sources\c90\common\awdiv.c"
  3986 ;; Parameters:    Size  Location     Type
  3987 ;;  divisor         2    6[COMMON] int 
  3988 ;;  dividend        2    8[COMMON] int 
  3989 ;; Auto vars:     Size  Location     Type
  3990 ;;  quotient        2    2[BANK0 ] int 
  3991 ;;  sign            1    1[BANK0 ] unsigned char 
  3992 ;;  counter         1    0[BANK0 ] unsigned char 
  3993 ;; Return value:  Size  Location     Type
  3994 ;;                  2    6[COMMON] int 
  3995 ;; Registers used:
  3996 ;;		wreg, status,2, status,0
  3997 ;; Tracked objects:
  3998 ;;		On entry : 0/0
  3999 ;;		On exit  : 0/0
  4000 ;;		Unchanged: 0/0
  4001 ;; Data sizes:     COMMON   BANK0   BANK1   BANK3   BANK2
  4002 ;;      Params:         4       0       0       0       0
  4003 ;;      Locals:         0       4       0       0       0
  4004 ;;      Temps:          1       0       0       0       0
  4005 ;;      Totals:         5       4       0       0       0
  4006 ;;Total ram usage:        9 bytes
  4007 ;; Hardware stack levels used: 1
  4008 ;; This function calls:
  4009 ;;		Nothing
  4010 ;; This function is called by:
  4011 ;;		_adc
  4012 ;; This function uses a non-reentrant model
  4013 ;;
  4014                           
  4015     0E67                     ___awdiv:	
  4016                           ;psect for function ___awdiv
  4017                           
  4018     0E67                     l1214:	
  4019                           ;incstack = 0
  4020                           ; Regs used in ___awdiv: [wreg+status,2+status,0]
  4021                           
  4022     0E67  1283               	bcf	3,5	;RP0=0, select bank0
  4023     0E68  1303               	bcf	3,6	;RP1=0, select bank0
  4024     0E69  01A1               	clrf	___awdiv@sign
  4025     0E6A                     l1216:
  4026     0E6A  1FF7               	btfss	___awdiv@divisor+1,7
  4027     0E6B  2E6D               	goto	u1321
  4028     0E6C  2E6E               	goto	u1320
  4029     0E6D                     u1321:
  4030     0E6D  2E75               	goto	l1222
  4031     0E6E                     u1320:
  4032     0E6E                     l1218:
  4033     0E6E  09F6               	comf	___awdiv@divisor,f
  4034     0E6F  09F7               	comf	___awdiv@divisor+1,f
  4035     0E70  0AF6               	incf	___awdiv@divisor,f
  4036     0E71  1903               	skipnz
  4037     0E72  0AF7               	incf	___awdiv@divisor+1,f
  4038     0E73                     l1220:
  4039     0E73  01A1               	clrf	___awdiv@sign
  4040     0E74  0AA1               	incf	___awdiv@sign,f
  4041     0E75                     l1222:
  4042     0E75  1FF9               	btfss	___awdiv@dividend+1,7
  4043     0E76  2E78               	goto	u1331
  4044     0E77  2E79               	goto	u1330
  4045     0E78                     u1331:
  4046     0E78  2E82               	goto	l1228
  4047     0E79                     u1330:
  4048     0E79                     l1224:
  4049     0E79  09F8               	comf	___awdiv@dividend,f
  4050     0E7A  09F9               	comf	___awdiv@dividend+1,f
  4051     0E7B  0AF8               	incf	___awdiv@dividend,f
  4052     0E7C  1903               	skipnz
  4053     0E7D  0AF9               	incf	___awdiv@dividend+1,f
  4054     0E7E                     l1226:
  4055     0E7E  3001               	movlw	1
  4056     0E7F  00FA               	movwf	??___awdiv
  4057     0E80  087A               	movf	??___awdiv,w
  4058     0E81  06A1               	xorwf	___awdiv@sign,f
  4059     0E82                     l1228:
  4060     0E82  01A2               	clrf	___awdiv@quotient
  4061     0E83  01A3               	clrf	___awdiv@quotient+1
  4062     0E84                     l1230:
  4063     0E84  0876               	movf	___awdiv@divisor,w
  4064     0E85  0477               	iorwf	___awdiv@divisor+1,w
  4065     0E86  1903               	btfsc	3,2
  4066     0E87  2E89               	goto	u1341
  4067     0E88  2E8A               	goto	u1340
  4068     0E89                     u1341:
  4069     0E89  2EC1               	goto	l1250
  4070     0E8A                     u1340:
  4071     0E8A                     l1232:
  4072     0E8A  01A0               	clrf	___awdiv@counter
  4073     0E8B  0AA0               	incf	___awdiv@counter,f
  4074     0E8C  2E98               	goto	l1238
  4075     0E8D                     l1234:
  4076     0E8D  3001               	movlw	1
  4077     0E8E                     u1355:
  4078     0E8E  1003               	clrc
  4079     0E8F  0DF6               	rlf	___awdiv@divisor,f
  4080     0E90  0DF7               	rlf	___awdiv@divisor+1,f
  4081     0E91  3EFF               	addlw	-1
  4082     0E92  1D03               	skipz
  4083     0E93  2E8E               	goto	u1355
  4084     0E94                     l1236:
  4085     0E94  3001               	movlw	1
  4086     0E95  00FA               	movwf	??___awdiv
  4087     0E96  087A               	movf	??___awdiv,w
  4088     0E97  07A0               	addwf	___awdiv@counter,f
  4089     0E98                     l1238:
  4090     0E98  1FF7               	btfss	___awdiv@divisor+1,7
  4091     0E99  2E9B               	goto	u1361
  4092     0E9A  2E9C               	goto	u1360
  4093     0E9B                     u1361:
  4094     0E9B  2E8D               	goto	l1234
  4095     0E9C                     u1360:
  4096     0E9C                     l1240:
  4097     0E9C  3001               	movlw	1
  4098     0E9D                     u1375:
  4099     0E9D  1003               	clrc
  4100     0E9E  0DA2               	rlf	___awdiv@quotient,f
  4101     0E9F  0DA3               	rlf	___awdiv@quotient+1,f
  4102     0EA0  3EFF               	addlw	-1
  4103     0EA1  1D03               	skipz
  4104     0EA2  2E9D               	goto	u1375
  4105     0EA3  0877               	movf	___awdiv@divisor+1,w
  4106     0EA4  0279               	subwf	___awdiv@dividend+1,w
  4107     0EA5  1D03               	skipz
  4108     0EA6  2EA9               	goto	u1385
  4109     0EA7  0876               	movf	___awdiv@divisor,w
  4110     0EA8  0278               	subwf	___awdiv@dividend,w
  4111     0EA9                     u1385:
  4112     0EA9  1C03               	skipc
  4113     0EAA  2EAC               	goto	u1381
  4114     0EAB  2EAD               	goto	u1380
  4115     0EAC                     u1381:
  4116     0EAC  2EB4               	goto	l1246
  4117     0EAD                     u1380:
  4118     0EAD                     l1242:
  4119     0EAD  0876               	movf	___awdiv@divisor,w
  4120     0EAE  02F8               	subwf	___awdiv@dividend,f
  4121     0EAF  0877               	movf	___awdiv@divisor+1,w
  4122     0EB0  1C03               	skipc
  4123     0EB1  03F9               	decf	___awdiv@dividend+1,f
  4124     0EB2  02F9               	subwf	___awdiv@dividend+1,f
  4125     0EB3                     l1244:
  4126     0EB3  1422               	bsf	___awdiv@quotient,0
  4127     0EB4                     l1246:
  4128     0EB4  3001               	movlw	1
  4129     0EB5                     u1395:
  4130     0EB5  1003               	clrc
  4131     0EB6  0CF7               	rrf	___awdiv@divisor+1,f
  4132     0EB7  0CF6               	rrf	___awdiv@divisor,f
  4133     0EB8  3EFF               	addlw	-1
  4134     0EB9  1D03               	skipz
  4135     0EBA  2EB5               	goto	u1395
  4136     0EBB                     l1248:
  4137     0EBB  3001               	movlw	1
  4138     0EBC  02A0               	subwf	___awdiv@counter,f
  4139     0EBD  1D03               	btfss	3,2
  4140     0EBE  2EC0               	goto	u1401
  4141     0EBF  2EC1               	goto	u1400
  4142     0EC0                     u1401:
  4143     0EC0  2E9C               	goto	l1240
  4144     0EC1                     u1400:
  4145     0EC1                     l1250:
  4146     0EC1  0821               	movf	___awdiv@sign,w
  4147     0EC2  1903               	btfsc	3,2
  4148     0EC3  2EC5               	goto	u1411
  4149     0EC4  2EC6               	goto	u1410
  4150     0EC5                     u1411:
  4151     0EC5  2ECB               	goto	l1254
  4152     0EC6                     u1410:
  4153     0EC6                     l1252:
  4154     0EC6  09A2               	comf	___awdiv@quotient,f
  4155     0EC7  09A3               	comf	___awdiv@quotient+1,f
  4156     0EC8  0AA2               	incf	___awdiv@quotient,f
  4157     0EC9  1903               	skipnz
  4158     0ECA  0AA3               	incf	___awdiv@quotient+1,f
  4159     0ECB                     l1254:
  4160     0ECB  0823               	movf	___awdiv@quotient+1,w
  4161     0ECC  00F7               	movwf	?___awdiv+1
  4162     0ECD  0822               	movf	___awdiv@quotient,w
  4163     0ECE  00F6               	movwf	?___awdiv
  4164     0ECF                     l295:
  4165     0ECF  0008               	return
  4166     0ED0                     __end_of___awdiv:
  4167     007E                     btemp	set	126	;btemp
  4168     007E                     wtemp0	set	126
  4169                           
  4170                           	psect	idloc
  4171                           
  4172                           ;Config register IDLOC0 @ 0x2000
  4173                           ;	unspecified, using default values
  4174     2000                     	org	8192
  4175     2000  3FFF               	dw	16383
  4176                           
  4177                           ;Config register IDLOC1 @ 0x2001
  4178                           ;	unspecified, using default values
  4179     2001                     	org	8193
  4180     2001  3FFF               	dw	16383
  4181                           
  4182                           ;Config register IDLOC2 @ 0x2002
  4183                           ;	unspecified, using default values
  4184     2002                     	org	8194
  4185     2002  3FFF               	dw	16383
  4186                           
  4187                           ;Config register IDLOC3 @ 0x2003
  4188                           ;	unspecified, using default values
  4189     2003                     	org	8195
  4190     2003  3FFF               	dw	16383
  4191                           
  4192                           	psect	config
  4193                           
  4194                           ;Config register CONFIG1 @ 0x2007
  4195                           ;	Oscillator Selection bits
  4196                           ;	FOSC = INTRC_NOCLKOUT, INTOSCIO oscillator: I/O function on RA6/OSC2/CLKOUT pin, I/O f
      +                          unction on RA7/OSC1/CLKIN
  4197                           ;	Watchdog Timer Enable bit
  4198                           ;	WDTE = OFF, WDT disabled and can be enabled by SWDTEN bit of the WDTCON register
  4199                           ;	Power-up Timer Enable bit
  4200                           ;	PWRTE = ON, PWRT enabled
  4201                           ;	RE3/MCLR pin function select bit
  4202                           ;	MCLRE = ON, RE3/MCLR pin function is MCLR
  4203                           ;	Code Protection bit
  4204                           ;	CP = OFF, Program memory code protection is disabled
  4205                           ;	Data Code Protection bit
  4206                           ;	CPD = OFF, Data memory code protection is disabled
  4207                           ;	Brown Out Reset Selection bits
  4208                           ;	BOREN = OFF, BOR disabled
  4209                           ;	Internal External Switchover bit
  4210                           ;	IESO = ON, Internal/External Switchover mode is enabled
  4211                           ;	Fail-Safe Clock Monitor Enabled bit
  4212                           ;	FCMEN = ON, Fail-Safe Clock Monitor is enabled
  4213                           ;	Low Voltage Programming Enable bit
  4214                           ;	LVP = OFF, RB3 pin has digital I/O, HV on MCLR must be used for programming
  4215                           ;	In-Circuit Debugger Mode bit
  4216                           ;	DEBUG = 0x1, unprogrammed default
  4217     2007                     	org	8199
  4218     2007  2CE4               	dw	11492
  4219                           
  4220                           ;Config register CONFIG2 @ 0x2008
  4221                           ;	Brown-out Reset Selection bit
  4222                           ;	BOR4V = BOR40V, Brown-out Reset set to 4.0V
  4223                           ;	Flash Program Memory Self Write Enable bits
  4224                           ;	WRT = OFF, Write protection off
  4225     2008                     	org	8200
  4226     2008  3FFF               	dw	16383

Data Sizes:
    Strings     0
    Constant    0
    Data        0
    BSS         2
    Persistent  0
    Stack       0

Auto Spaces:
    Space          Size  Autos    Used
    COMMON           14     14      14
    BANK0            80     62      62
    BANK1            80     28      30
    BANK3            96      0       0
    BANK2            96      0       0

Pointer List with Targets:

    None.

Critical Paths under _main in COMMON

    _adc->___awmod
    _adc->___xxtofl
    _lcd->_delay
    ___fltol->___xxtofl
    ___flmul->___xxtofl
    ___fldiv->___xxtofl
    ___awmod->___awdiv
    ___awdiv->___wmul

Critical Paths under _main in BANK0

    _adc->___fltol
    ___fltol->___fldiv
    ___fldiv->___flmul
    ___awmod->___awdiv

Critical Paths under _main in BANK1

    _main->_adc

Critical Paths under _main in BANK3

    None.

Critical Paths under _main in BANK2

    None.

Call Graph Tables:

 ---------------------------------------------------------------------------------
 (Depth) Function   	        Calls       Base Space   Used Autos Params    Refs
 ---------------------------------------------------------------------------------
 (0) _main                                                 0     0      0   11681
                                _adc
                                _lcd
 ---------------------------------------------------------------------------------
 (1) _adc                                                 28    28      0   10095
                                              0 BANK1     28    28      0
                            ___awdiv
                            ___awmod
                            ___fldiv
                            ___flmul
                            ___fltol
                             ___wmul
                           ___xxtofl
                                _lcd
 ---------------------------------------------------------------------------------
 (1) _lcd                                                  2     1      1    1586
                                              2 COMMON     2     1      1
                              _delay
 ---------------------------------------------------------------------------------
 (2) _delay                                                2     0      2     174
                                              0 COMMON     2     0      2
 ---------------------------------------------------------------------------------
 (2) ___xxtofl                                            14    10      4     398
                                              0 COMMON    14    10      4
 ---------------------------------------------------------------------------------
 (2) ___wmul                                               6     2      4     700
                                              0 COMMON     6     2      4
 ---------------------------------------------------------------------------------
 (2) ___fltol                                             10     6      4     305
                                             52 BANK0     10     6      4
                            ___fldiv (ARG)
                            ___flmul (ARG)
                           ___xxtofl (ARG)
 ---------------------------------------------------------------------------------
 (2) ___flmul                                             26    18      8    2417
                                              0 BANK0     26    18      8
                          __Umul8_16
                           ___xxtofl (ARG)
 ---------------------------------------------------------------------------------
 (3) __Umul8_16                                            9     7      2     799
                                              0 COMMON     9     7      2
 ---------------------------------------------------------------------------------
 (2) ___fldiv                                             26    18      8    1273
                                             26 BANK0     26    18      8
                            ___flmul (ARG)
                           ___xxtofl (ARG)
 ---------------------------------------------------------------------------------
 (2) ___awmod                                              7     3      4    1512
                                             11 COMMON     3     3      0
                                              4 BANK0      4     0      4
                            ___awdiv (ARG)
                             ___wmul (ARG)
 ---------------------------------------------------------------------------------
 (2) ___awdiv                                              9     5      4    1516
                                              6 COMMON     5     1      4
                                              0 BANK0      4     4      0
                             ___wmul (ARG)
 ---------------------------------------------------------------------------------
 Estimated maximum stack depth 3
 ---------------------------------------------------------------------------------

 Call Graph Graphs:

 _main (ROOT)
   _adc
     ___awdiv
       ___wmul (ARG)
     ___awmod
       ___awdiv (ARG)
       ___wmul (ARG)
     ___fldiv
       ___flmul (ARG)
         __Umul8_16
         ___xxtofl (ARG)
       ___xxtofl (ARG)
     ___flmul
     ___fltol
       ___fldiv (ARG)
       ___flmul (ARG)
       ___xxtofl (ARG)
     ___wmul
     ___xxtofl
     _lcd
       _delay
   _lcd

 Address spaces:
Name               Size   Autos  Total    Cost      Usage
BITCOMMON            E      0       0       0        0.0%
EEDATA             100      0       0       0        0.0%
NULL                 0      0       0       0        0.0%
CODE                 0      0       0       0        0.0%
COMMON               E      E       E       1      100.0%
BITSFR0              0      0       0       1        0.0%
SFR0                 0      0       0       1        0.0%
BITSFR1              0      0       0       2        0.0%
SFR1                 0      0       0       2        0.0%
STACK                0      0       0       2        0.0%
ABS                  0      0      6A       3        0.0%
BITBANK0            50      0       0       4        0.0%
BITSFR3              0      0       0       4        0.0%
SFR3                 0      0       0       4        0.0%
BANK0               50     3E      3E       5       77.5%
BITSFR2              0      0       0       5        0.0%
SFR2                 0      0       0       5        0.0%
BITBANK1            50      0       0       6        0.0%
BANK1               50     1C      1E       7       37.5%
BITBANK3            60      0       0       8        0.0%
BANK3               60      0       0       9        0.0%
BITBANK2            60      0       0      10        0.0%
BANK2               60      0       0      11        0.0%
DATA                 0      0      6A      12        0.0%


Microchip Technology PIC Macro Assembler V2.40 build 20220703182018 
Symbol Table                                                                                   Wed May 28 14:47:20 2025

           ___fldiv@aexp 0053             ___fldiv@bexp 0052             ___fldiv@sign 004B  
                     l41 0D8A                       l38 0018                       l47 0449  
                     l48 04B2                       _GO 00F9             ___awdiv@sign 0021  
                     _dv 00BC      ___wmul@multiplicand 0072      __Umul8_16@word_mpld 0076  
                    l142 0D97                      l144 0DAF                      l308 0E66  
                    l335 0F32                      l328 0F47                      l513 01D3  
                    l338 0F47                      l515 01E1                      l507 0161  
                    l531 07F7                      l550 0DC4                      l295 0ECF  
                    l543 07EB                      l552 0DD6                      l537 0767  
                    l491 006F                      l493 01EB                      l581 0FAD  
                    l575 0F6A                      l577 0FFF                      l588 0FC9  
                    l589 0FD5                      _RE0 0048                      _RE1 0049  
                    _adc 01EC                      _lcd 0D67             ___awmod@sign 007D  
           ___flmul@aexp 0032             ___flmul@bexp 0033             ___flmul@sign 002D  
           ___flmul@temp 0038             ___flmul@prod 0034             ___fltol@exp1 005D  
                   ?_adc 0070                     l1200 0D8B                     l1210 0DAB  
                   l1202 0D8D                     l1220 0E73                     l1204 0D91  
                   l1230 0E84                     l1222 0E75                     l1214 0E67  
                   l1310 0F02                     l1302 0EE4                     l1206 0D9E  
                   l1240 0E9C                     l1232 0E8A                     l1224 0E79  
                   l1216 0E6A                     l1400 00E1                     l1312 0F06  
                   l1320 0F20                     l1304 0EF7                     l1208 0DA5  
                   l1242 0EAD                     l1234 0E8D                     l1250 0EC1  
                   l1226 0E7E                     l1218 0E6E                     l1410 0102  
                   l1402 00E5                     l1330 0F3C                     l1306 0EF8  
                   l1170 000A                     l1252 0EC6                     l1244 0EB3  
                   l1236 0E94                     l1228 0E82                     l1260 0E0D  
                   l1420 0124                     l1412 0110                     l1404 00E6  
                   l1340 0027                     l1332 0019                     l1180 0DBE  
                   l1500 04EB                     l1308 0F00                     l1172 000A  
                   l1254 0ECB                     l1246 0EB4                     l1238 0E98  
                   l1270 0E23                     l1262 0E13                     l1422 012D  
                   l1430 0141                     l1406 00EF                     l1414 0114  
                   l1342 002C                     l1350 003C                     l1334 001E  
                   l1182 0DCD                     l1174 0DB1                     l1510 0507  
                   l1502 04F0                     l1326 0F27                     l1318 0F0E  
                   l1190 0D72                     l1248 0EBB                     l1280 0E3B  
                   l1272 0E29                     l1264 0E18                     l1432 0145  
                   l1424 0131                     l1416 011A                     l1408 0101  
                   l1360 0052                     l1352 0044                     l1344 0031  
                   l1336 0022                     l1184 0DD2                     l1176 0DB3  
                   l1600 07D3                     l1520 0528                     l1512 050C  
                   l1504 04F5                     l1328 0F37                     l1192 0D74  
                   l1290 0E5D                     l1282 0E45                     l1274 0E2C  
                   l1266 0E1A                     l1258 0E0C                     l1450 0196  
                   l1442 0166                     l1434 0146                     l1426 0132  
                   l1418 0122                     l1362 0057                     l1370 0067  
                   l1354 0049                     l1346 0039                     l1338 0026  
                   l1178 0DBA                     l1610 07EF                     l1602 07D5  
                   l1530 05B2                     l1522 0535                     l1514 0511  
                   l1506 04FD                     l1194 0D75                     l1292 0E62  
                   l1284 0E4B                     l1276 0E33                     l1268 0E1E  
                   l1460 01CA                     l1444 016B                     l1452 019C  
                   l1436 014A                     l1428 013B                     l1372 0077  
                   l1380 0090                     l1364 005C                     l1356 004D  
                   l1348 003A                     l1604 07E1                     l1540 0610  
                   l1532 05CE                     l1524 0550                     l1508 04FF  
                   l1620 0F62                     l1196 0D7E                     l1188 0D68  
                   l1286 0E52                     l1278 0E37                     l1462 01D2  
                   l1454 01A9                     l1446 0179                     l1438 015E  
                   l1390 00B8                     l1382 0095                     l1374 0083  
                   l1366 0064                     l1358 0051                     l1606 07E5  
                   l1550 069A                     l1542 062D                     l1534 05D7  
                   l1526 056C                     l1518 051A                     l1630 0F8B  
                   l1622 0F72                     l1614 0F49                     l1198 0D81  
                   l1288 0E58                     l1464 01D7                     l1456 01B7  
                   l1448 017D                     l1392 00C0                     l1376 0087  
                   l1368 0065                     l1608 07E6                     l1560 072A  
                   l1552 06C5                     l1544 0644                     l1536 05E5  
                   l1528 0596                     l1480 04C0                     l1296 0ED0  
                   l1640 0FBF                     l1632 0F92                     l1616 0F4E  
                   l1466 01DB                     l1458 01C6                     l1394 00C8  
                   l1386 009E                     l1562 0733                     l1570 0747  
                   l1554 06EB                     l1546 0661                     l1538 0602  
                   l1490 04D5                     l1482 04C1                     l1474 04B3  
                   l1298 0EDB                     l1650 0FF2                     l1642 0FC3  
                   l1634 0F96                     l1626 0F7B                     l1618 0F52  
                   l1468 01DD                     l1396 00CA                     l1388 00B0  
                   l1572 074B                     l1564 0737                     l1556 0713  
                   l1548 068C                     l1492 04DD                     l1484 04C6  
                   l1476 04B8                     l1652 0FF6                     l1644 0FCD  
                   l1636 0FA4                     l1628 0F7E                     l1660 01F0  
                   l1398 00CF                     l1590 079C                     l1582 076C  
                   l1574 074C                     l1566 0738                     l1558 071C  
                   l1494 04E2                     l1486 04CB                     l1478 04BC  
                   l1654 0FF7                     l1646 0FD7                     l1638 0FB4  
                   l1670 042B                     l1662 01F6                     l1584 0771  
                   l1592 07A2                     l1576 0750                     l1568 0741  
                   l1496 04E6                     l1488 04D3                     l1648 0FED  
                   l1664 01FB                     l1680 0DE8                     l1672 0DD7  
                   l1594 07AF                     l1586 077F                     l1578 0764  
                   l1498 04EA                     l1666 03C4                     l1658 01EC  
                   l1690 0E03                     l1682 0DEA                     l1674 0DDA  
                   ?_lcd 0072                     l1596 07BA                     l1588 0783  
                   l1668 041E                     l1684 0DEE                     l1676 0DDE  
                   l1598 07C9                     l1686 0DF3                     l1678 0DE2  
                   l1688 0DFB                     u2001 05A4                     u2002 05AB  
                   u2011 05C0                     u2003 05B2                     u2012 05C7  
                   u1220 0018                     u2101 06DD                     u2013 05CE  
                   u1221 0017                     u1230 0DBE                     u2110 06F9  
                   u2102 06E4                     u1310 0DAB                     u1231 0DBD  
                   u2103 06EB                     u2031 05F4                     u1311 0DAA  
                   u1400 0EC1                     u1320 0E6E                     u2200 076B  
                   u2032 05FB                     u1401 0EC0                     u1321 0E6D  
                   u2201 076A                     u2121 0705                     u2041 061F  
                   u2033 0602                     u2025 05D0                     u1305 0D9F  
                   u1410 0EC6                     u1330 0E79                     u1250 0DD2  
                   u2210 0771                     u2122 070C                     u2042 0626  
                   u1411 0EC5                     u1331 0E78                     u1251 0DD1  
                   u2211 0770                     u2123 0713                     u2115 06F4  
                   u2043 062D                     u1340 0E8A                     u1500 0E5D  
                   u1420 0E13                     u2220 0783                     u1260 0D6F  
                   u1341 0E89                     u1501 0E5C                     u1421 0E12  
                   u1245 0DC5                     u2221 0782                     u2061 0653  
                   u1261 0D6B                     u1430 0E1E                     u2230 0792  
                   u2150 0737                     u2062 065A                     u1510 0EDB  
                   u2310 0F91                     u1431 0E1D                     u2151 0736  
                   u2135 0715                     u2071 067E                     u2063 0661  
                   u2055 062F                     u1511 0EDA                     u2311 0F90  
                   u1360 0E9C                     u1440 0E29                     u2240 07AF  
                   u2072 0685                     u1600 0F3C                     u1520 0EF2  
                   u1280 0D91                     u2400 0FF6                     u1361 0E9B  
                   u1441 0E28                     u2241 07AE                     u2145 072C  
                   u2081 06A9                     u2073 068C                     u1601 0F3B  
                   u1281 0D90                     u2401 0FF5                     u2305 0F83  
                   u1610 0026                     u2250 07C9                     u2170 074B  
                   u2090 06D1                     u2082 06B0                     u1530 0F06  
                   u2330 0FB3                     u1274 0D72                     u2410 01FB  
                   u1355 0E8E                     u1611 0025                     u2251 07C8  
                   u2235 078D                     u2171 074A                     u2083 06B7  
                   u1531 0F05                     u2331 0FB2                     u2411 01FA  
                   u1380 0EAD                     u1460 0E3B                     u1620 002C  
                   u2260 07E5                     u2180 0750                     u1540 0F0D  
                   u2420 042B                     u1381 0EAC                     u1461 0E3A  
                   u1621 002B                     u2261 07E4                     u2245 07AB  
                   u2181 074F                     u2165 073A                     u1541 0F0C  
                   u1525 0EED                     u2325 0FA5                     u2421 042A  
                   u1470 0E45                     u1630 0031                     u2190 0764  
                   u2350 0FC3                     u2270 0F4E                     u1375 0E9D  
                   u1471 0E44                     u1455 0E2D                     u1631 0030  
                   u2255 07C5                     u2191 0763                     u2095 06CC  
                   u1295 0D98                     u2351 0FC2                     u2271 0F4D  
                   u1800 0145                     u1720 00E5                     u1640 0051  
                   u1560 0F1F                     u2360 0FC9                     u2280 0F52  
                   u1385 0EA9                     u1801 0144                     u1721 00E4  
                   u1705 00D1                     u1641 0050                     u1561 0F1E  
                   u2361 0FC8                     u2345 0FB8                     u2281 0F51  
                   u2425 0427                     u1490 0E58                     u1810 014A  
                   u1650 0057                     u1570 0F26                     u2370 0FCD  
                   u2290 0F72                     u1395 0EB5                     u1491 0E57  
                   u1475 0E41                     u1811 0149                     u1715 00DA  
                   u1651 0056                     u1571 0F25                     u1555 0F0F  
                   u2371 0FCC                     u2291 0F71                     u1820 015E  
                   u1740 0101                     u1660 005C                     u1900 04C0  
                   u2380 0FE2                     u1485 0E4C                     u1821 015D  
                   u1741 0100                     u1661 005B                     u1901 04BF  
                   u1830 0165                     u1750 011A                     u1670 0077  
                   u1910 04C6                     u1590 0F37                     u2390 0FF2  
                   u1831 0164                     u1751 0119                     u1735 00E8  
                   u1671 0076                     u1911 04C5                     u1591 0F36  
                   u2391 0FF1                     u1840 016B                     u1760 0122  
                   u1680 0095                     u1920 04CB                     u1841 016A  
                   u1761 0121                     u1745 00FD                     u1681 0094  
                   u1921 04CA                     u1585 0F29                     u2385 0FDD  
                   u1850 017D                     u1690 00CF                     u1930 04EA  
                   u1851 017C                     u1691 00CE                     u1931 04E9  
                   u1860 018C                     u1780 0131                     u1940 04F0  
                   u1781 0130                     u1941 04EF                     u1870 01A9  
                   u1950 04F5                     u1871 01A8                     u1775 0126  
                   u1951 04F4                     u1880 01C6                     u1960 050C  
                   u1881 01C5                     u1865 0187                     u1961 050B  
                   u1890 01DB                     u1970 0511                     u1891 01DA  
                   u1875 01A5                     u1795 0134                     u1971 0510  
                   u1885 01C2                     u1981 055E                     u1982 0565  
                   u1991 057A                     u1983 056C                     u1992 0581  
                   u1993 0588                     adc@b 00B2                     adc@c 00B4  
                   adc@d 00B6                     adc@p 00AE                     adc@q 00B0  
                   adc@v 00AA                     adc@w 00A8                     adc@x 00A2  
                   adc@y 00A4                     adc@z 00A6                     _main 0DD7  
                   btemp 007E                     start 0000          ___fldiv@new_exp 004C  
                  ??_adc 007E                    ??_lcd 0073            ___fltol@sign1 005C  
                  ?_main 0070          __end_of___fldiv 01EC          __end_of___awdiv 0ED0  
        __end_of___awmod 0E67          __end_of___flmul 07F8          __end_of___fltol 0F48  
                  _ANSEL 0188          ___awdiv@divisor 0076          ___awdiv@counter 0020  
                  _PORTA 0005                    _PORTD 0008                    _PORTE 0009  
                  _TRISA 0085                    _TRISD 0088                    _TRISE 0089  
                  _delay 000A                    lcd@ra 0073                    status 0003  
                  wtemp0 007E          __initialization 07F8             __end_of_main 0E0C  
                 ??_main 007E                   ?_delay 0070                   _ADCON0 001F  
                 _ADCON1 009F                   _ADRESH 001E                   _ADRESL 009E  
       ___awdiv@dividend 0078                   _ANSELH 0189         __end_of___xxtofl 1000  
                 adc@rem 00A0                   adc@res 00BA                   adc@vlt 00AC  
                 ___wmul 0D8B                ??___fldiv 0042                ??___awdiv 007A  
              ??___awmod 007B                ??___flmul 0028                ??___fltol 0058  
                 delay@t 0070         ___awdiv@quotient 0022          ___awmod@divisor 0024  
        ___awmod@counter 007C             ___xxtofl@arg 007A             ___xxtofl@exp 0079  
           ___xxtofl@val 0070  __end_of__initialization 07FC               ___fltol@f1 0054  
         __pcstackCOMMON 0070            __end_of_delay 0019                  ??_delay 0072  
             __pbssBANK1 00BC        __end_of__Umul8_16 0DD7               __pmaintext 0DD7  
                ?___wmul 0070                ?___xxtofl 0070                  _adc$671 00B8  
                ___fldiv 0019                  ___awdiv 0E67                  ___awmod 0E0C  
                ___flmul 04B3                  ___fltol 0ED0                  __ptext1 01EC  
                __ptext2 0D67                  __ptext3 000A                  __ptext4 0F48  
                __ptext5 0D8B                  __ptext6 0ED0                  __ptext7 04B3  
                __ptext8 0DB0                  __ptext9 0019               ??___xxtofl 0074  
       ___awmod@dividend 0026                  lcd@data 0072     end_of_initialization 07FC  
          ___xxtofl@sign 0078              ___fldiv@grs 004E              ___fldiv@rem 0047  
            ___flmul@grs 002E           __end_of___wmul 0DB0      start_initialization 07F8  
            __end_of_adc 04B3              __end_of_lcd 0D8B                 ??___wmul 0074  
              __Umul8_16 0DB0                ___fldiv@a 003A                ___fldiv@b 003E  
              ___flmul@a 0024                ___flmul@b 0020                ___latbits 0002  
          __pcstackBANK0 0020            __pcstackBANK1 00A0                 ?___fldiv 003A  
               ?___awdiv 0076                 ?___awmod 0024                 ?___flmul 0020  
               ?___fltol 0054               ?__Umul8_16 0070           ___wmul@product 0074  
      ___wmul@multiplier 0070              ??__Umul8_16 0072                 ___xxtofl 0F48  
               __ptext10 0E0C                 __ptext11 0E67   __Umul8_16@multiplicand 0070  
   __Umul8_16@multiplier 0078        __Umul8_16@product 0074  
