

Microchip MPLAB XC8 Assembler V2.40 build 20220703182018 
                                                                                               Thu May 29 14:25:28 2025

Microchip MPLAB XC8 C Compiler v2.40 (Free license) build 20220703182018 Og1 
     1                           	processor	16F887
     2                           	pagewidth 120
     3                           	opt	flic
     4                           	psect	cinit,global,class=CODE,merge=1,delta=2
     5                           	psect	bssBANK1,global,class=BANK1,space=1,delta=1,noexec
     6                           	psect	cstackBANK1,global,class=BANK1,space=1,delta=1,noexec
     7                           	psect	cstackCOMMON,global,class=COMMON,space=1,delta=1,noexec
     8                           	psect	cstackBANK0,global,class=BANK0,space=1,delta=1,noexec
     9                           	psect	maintext,global,class=CODE,split=1,delta=2
    10                           	psect	text1,local,class=CODE,merge=1,delta=2
    11                           	psect	text2,local,class=CODE,merge=1,delta=2
    12                           	psect	text3,local,class=CODE,merge=1,delta=2
    13                           	psect	intentry,global,class=CODE,delta=2
    14                           	psect	text4,local,class=CODE,merge=1,delta=2
    15                           	psect	text5,local,class=CODE,merge=1,delta=2
    16                           	psect	text6,local,class=CODE,merge=1,delta=2,group=1
    17                           	psect	text7,local,class=CODE,merge=1,delta=2,group=1
    18                           	psect	text8,local,class=CODE,merge=1,delta=2,group=1
    19                           	psect	text9,local,class=CODE,merge=1,delta=2,group=1
    20                           	psect	text10,local,class=CODE,merge=1,delta=2,group=1
    21                           	psect	text11,local,class=CODE,merge=1,delta=2,group=1
    22                           	psect	text12,local,class=CODE,merge=1,delta=2,group=1
    23                           	psect	text13,local,class=CODE,merge=1,delta=2,group=1
    24                           	psect	idloc,global,abs,ovrld,class=IDLOC,space=5,delta=2,noexec
    25                           	psect	config,global,abs,ovrld,class=CONFIG,space=4,delta=2,noexec
    26                           	dabs	1,0x7E,2
    27     0000                     
    28                           ; Version 2.40
    29                           ; Generated 17/11/2021 GMT
    30                           ; 
    31                           ; Copyright © 2021, Microchip Technology Inc. and its subsidiaries ("Microchip")
    32                           ; All rights reserved.
    33                           ; 
    34                           ; This software is developed by Microchip Technology Inc. and its subsidiaries ("Microch
      +                          ip").
    35                           ; 
    36                           ; Redistribution and use in source and binary forms, with or without modification, are
    37                           ; permitted provided that the following conditions are met:
    38                           ; 
    39                           ;     1. Redistributions of source code must retain the above copyright notice, this lis
      +                          t of
    40                           ;        conditions and the following disclaimer.
    41                           ; 
    42                           ;     2. Redistributions in binary form must reproduce the above copyright notice, this 
      +                          list
    43                           ;        of conditions and the following disclaimer in the documentation and/or other
    44                           ;        materials provided with the distribution. Publication is not required when
    45                           ;        this file is used in an embedded application.
    46                           ; 
    47                           ;     3. Microchip's name may not be used to endorse or promote products derived from th
      +                          is
    48                           ;        software without specific prior written permission.
    49                           ; 
    50                           ; THIS SOFTWARE IS PROVIDED BY MICROCHIP "AS IS" AND ANY EXPRESS OR IMPLIED WARRANTIES,
    51                           ; INCLUDING, BUT NOT LIMITED TO, THE IMPLIED WARRANTIES OF MERCHANTABILITY AND FITNESS F
      +                          OR
    52                           ; PURPOSE ARE DISCLAIMED.  IN NO EVENT SHALL MICROCHIP BE LIABLE FOR ANY DIRECT, INDIREC
      +                          T,
    53                           ; INCIDENTAL, SPECIAL, EXEMPLARY, OR CONSEQUENTIAL DAMAGES (INCLUDING BUT NOT LIMITED TO
    54                           ; PROCUREMENT OF SUBSTITUTE GOODS OR SERVICES; LOSS OF USE, DATA OR PROFITS; OR BUSINESS
    55                           ; INTERRUPTION) HOWSOEVER CAUSED AND ON ANY THEORY OF LIABILITY, WHETHER IN CONTRACT, ST
      +                          RICT
    56                           ; LIABILITY, OR TORT (INCLUDING NEGLIGENCE OR OTHERWISE) ARISING IN ANY WAY OUT OF THE U
      +                          SE OF
    57                           ; THIS SOFTWARE, EVEN IF ADVISED OF THE POSSIBILITY OF SUCH DAMAGE.
    58                           ; 
    59                           ; 
    60                           ; Code-generator required, PIC16F887 Definitions
    61                           ; 
    62                           ; SFR Addresses
    63     0000                     	;# 
    64     0001                     	;# 
    65     0002                     	;# 
    66     0003                     	;# 
    67     0004                     	;# 
    68     0005                     	;# 
    69     0006                     	;# 
    70     0007                     	;# 
    71     0008                     	;# 
    72     0009                     	;# 
    73     000A                     	;# 
    74     000B                     	;# 
    75     000C                     	;# 
    76     000D                     	;# 
    77     000E                     	;# 
    78     000E                     	;# 
    79     000F                     	;# 
    80     0010                     	;# 
    81     0011                     	;# 
    82     0012                     	;# 
    83     0013                     	;# 
    84     0014                     	;# 
    85     0015                     	;# 
    86     0015                     	;# 
    87     0016                     	;# 
    88     0017                     	;# 
    89     0018                     	;# 
    90     0019                     	;# 
    91     001A                     	;# 
    92     001B                     	;# 
    93     001B                     	;# 
    94     001C                     	;# 
    95     001D                     	;# 
    96     001E                     	;# 
    97     001F                     	;# 
    98     0081                     	;# 
    99     0085                     	;# 
   100     0086                     	;# 
   101     0087                     	;# 
   102     0088                     	;# 
   103     0089                     	;# 
   104     008C                     	;# 
   105     008D                     	;# 
   106     008E                     	;# 
   107     008F                     	;# 
   108     0090                     	;# 
   109     0091                     	;# 
   110     0092                     	;# 
   111     0093                     	;# 
   112     0093                     	;# 
   113     0093                     	;# 
   114     0094                     	;# 
   115     0095                     	;# 
   116     0096                     	;# 
   117     0097                     	;# 
   118     0098                     	;# 
   119     0099                     	;# 
   120     009A                     	;# 
   121     009B                     	;# 
   122     009C                     	;# 
   123     009D                     	;# 
   124     009E                     	;# 
   125     009F                     	;# 
   126     0105                     	;# 
   127     0107                     	;# 
   128     0108                     	;# 
   129     0109                     	;# 
   130     010C                     	;# 
   131     010C                     	;# 
   132     010D                     	;# 
   133     010E                     	;# 
   134     010F                     	;# 
   135     0185                     	;# 
   136     0187                     	;# 
   137     0188                     	;# 
   138     0189                     	;# 
   139     018C                     	;# 
   140     018D                     	;# 
   141     0000                     	;# 
   142     0001                     	;# 
   143     0002                     	;# 
   144     0003                     	;# 
   145     0004                     	;# 
   146     0005                     	;# 
   147     0006                     	;# 
   148     0007                     	;# 
   149     0008                     	;# 
   150     0009                     	;# 
   151     000A                     	;# 
   152     000B                     	;# 
   153     000C                     	;# 
   154     000D                     	;# 
   155     000E                     	;# 
   156     000E                     	;# 
   157     000F                     	;# 
   158     0010                     	;# 
   159     0011                     	;# 
   160     0012                     	;# 
   161     0013                     	;# 
   162     0014                     	;# 
   163     0015                     	;# 
   164     0015                     	;# 
   165     0016                     	;# 
   166     0017                     	;# 
   167     0018                     	;# 
   168     0019                     	;# 
   169     001A                     	;# 
   170     001B                     	;# 
   171     001B                     	;# 
   172     001C                     	;# 
   173     001D                     	;# 
   174     001E                     	;# 
   175     001F                     	;# 
   176     0081                     	;# 
   177     0085                     	;# 
   178     0086                     	;# 
   179     0087                     	;# 
   180     0088                     	;# 
   181     0089                     	;# 
   182     008C                     	;# 
   183     008D                     	;# 
   184     008E                     	;# 
   185     008F                     	;# 
   186     0090                     	;# 
   187     0091                     	;# 
   188     0092                     	;# 
   189     0093                     	;# 
   190     0093                     	;# 
   191     0093                     	;# 
   192     0094                     	;# 
   193     0095                     	;# 
   194     0096                     	;# 
   195     0097                     	;# 
   196     0098                     	;# 
   197     0099                     	;# 
   198     009A                     	;# 
   199     009B                     	;# 
   200     009C                     	;# 
   201     009D                     	;# 
   202     009E                     	;# 
   203     009F                     	;# 
   204     0105                     	;# 
   205     0107                     	;# 
   206     0108                     	;# 
   207     0109                     	;# 
   208     010C                     	;# 
   209     010C                     	;# 
   210     010D                     	;# 
   211     010E                     	;# 
   212     010F                     	;# 
   213     0185                     	;# 
   214     0187                     	;# 
   215     0188                     	;# 
   216     0189                     	;# 
   217     018C                     	;# 
   218     018D                     	;# 
   219     001F                     _ADCON0	set	31
   220     0009                     _PORTE	set	9
   221     0005                     _PORTA	set	5
   222     001E                     _ADRESH	set	30
   223     0008                     _PORTD	set	8
   224     00F9                     _GO	set	249
   225     005E                     _PEIE	set	94
   226     005F                     _GIE	set	95
   227     0066                     _ADIF	set	102
   228     0049                     _RE1	set	73
   229     0048                     _RE0	set	72
   230     009F                     _ADCON1	set	159
   231     0089                     _TRISE	set	137
   232     0088                     _TRISD	set	136
   233     0085                     _TRISA	set	133
   234     009E                     _ADRESL	set	158
   235     0466                     _ADIE	set	1126
   236     0189                     _ANSELH	set	393
   237     0188                     _ANSEL	set	392
   238                           
   239                           	psect	cinit
   240     0013                     start_initialization:	
   241                           ; #config settings
   242                           
   243     0013                     __initialization:
   244                           
   245                           ; Clear objects allocated to BANK1
   246     0013  1683               	bsf	3,5	;RP0=1, select bank1
   247     0014  1303               	bcf	3,6	;RP1=0, select bank1
   248     0015  01C5               	clrf	__pbssBANK1& (0+127)
   249     0016  01C6               	clrf	(__pbssBANK1+1)& (0+127)
   250     0017                     end_of_initialization:	
   251                           ;End of C runtime variable initialization code
   252                           
   253     0017                     __end_of__initialization:
   254     0017  0183               	clrf	3
   255     0018  120A  158A  2C85   	ljmp	_main	;jump to C main() function
   256                           
   257                           	psect	bssBANK1
   258     00C5                     __pbssBANK1:
   259     00C5                     _dv:
   260     00C5                     	ds	2
   261                           
   262                           	psect	cstackBANK1
   263     00A0                     __pcstackBANK1:
   264     00A0                     ___awdiv@counter:
   265                           
   266                           ; 1 bytes @ 0x0
   267     00A0                     	ds	1
   268     00A1                     ___awdiv@sign:
   269                           
   270                           ; 1 bytes @ 0x1
   271     00A1                     	ds	1
   272     00A2                     ___awdiv@quotient:
   273                           
   274                           ; 2 bytes @ 0x2
   275     00A2                     	ds	2
   276     00A4                     ?i1_lcd:
   277     00A4                     i1lcd@rs:	
   278                           ; 1 bytes @ 0x4
   279                           
   280                           
   281                           ; 2 bytes @ 0x4
   282     00A4                     	ds	2
   283     00A6                     i1lcd@data:
   284                           
   285                           ; 1 bytes @ 0x6
   286     00A6                     	ds	1
   287     00A7                     ??_adc:
   288                           
   289                           ; 1 bytes @ 0x7
   290     00A7                     	ds	3
   291     00AA                     adc@dvolt:
   292                           
   293                           ; 2 bytes @ 0xA
   294     00AA                     	ds	2
   295     00AC                     adc@dvolt_dec:
   296                           
   297                           ; 2 bytes @ 0xC
   298     00AC                     	ds	2
   299     00AE                     adc@volt_dec:
   300                           
   301                           ; 2 bytes @ 0xE
   302     00AE                     	ds	2
   303     00B0                     adc@a:
   304                           
   305                           ; 2 bytes @ 0x10
   306     00B0                     	ds	2
   307     00B2                     adc@b:
   308                           
   309                           ; 2 bytes @ 0x12
   310     00B2                     	ds	2
   311     00B4                     adc@c:
   312                           
   313                           ; 2 bytes @ 0x14
   314     00B4                     	ds	2
   315     00B6                     adc@d:
   316                           
   317                           ; 2 bytes @ 0x16
   318     00B6                     	ds	2
   319     00B8                     _adc$674:
   320                           
   321                           ; 2 bytes @ 0x18
   322     00B8                     	ds	2
   323     00BA                     adc@volt:
   324                           
   325                           ; 2 bytes @ 0x1A
   326     00BA                     	ds	2
   327     00BC                     _adc$675:
   328                           
   329                           ; 4 bytes @ 0x1C
   330     00BC                     	ds	4
   331     00C0                     ?_delay:
   332     00C0                     delay@t:	
   333                           ; 1 bytes @ 0x20
   334                           
   335                           
   336                           ; 2 bytes @ 0x20
   337     00C0                     	ds	2
   338     00C2                     ??_delay:
   339     00C2                     ?_lcd:	
   340                           ; 1 bytes @ 0x22
   341                           
   342     00C2                     lcd@rs:	
   343                           ; 1 bytes @ 0x22
   344                           
   345                           
   346                           ; 2 bytes @ 0x22
   347     00C2                     	ds	2
   348     00C4                     lcd@data:
   349                           
   350                           ; 1 bytes @ 0x24
   351     00C4                     	ds	1
   352     00C5                     ??_lcd:
   353     00C5                     ??_main:	
   354                           ; 1 bytes @ 0x25
   355                           
   356                           
   357                           	psect	cstackCOMMON
   358     0070                     __pcstackCOMMON:	
   359                           ; 1 bytes @ 0x25
   360                           
   361     0070                     ?_adc:
   362     0070                     ?_main:	
   363                           ; 1 bytes @ 0x0
   364                           
   365     0070                     ?i1_delay:	
   366                           ; 1 bytes @ 0x0
   367                           
   368     0070                     ?__Umul8_16:	
   369                           ; 1 bytes @ 0x0
   370                           
   371     0070                     ?___xxtofl:	
   372                           ; 2 bytes @ 0x0
   373                           
   374     0070                     __Umul8_16@multiplicand:	
   375                           ; 4 bytes @ 0x0
   376                           
   377     0070                     i1delay@t:	
   378                           ; 1 bytes @ 0x0
   379                           
   380     0070                     ___xxtofl@val:	
   381                           ; 2 bytes @ 0x0
   382                           
   383                           
   384                           ; 4 bytes @ 0x0
   385     0070                     	ds	2
   386     0072                     ??__Umul8_16:
   387     0072                     ??i1_delay:	
   388                           ; 1 bytes @ 0x2
   389                           
   390                           
   391                           ; 1 bytes @ 0x2
   392     0072                     	ds	2
   393     0074                     ??___xxtofl:
   394     0074                     __Umul8_16@product:	
   395                           ; 1 bytes @ 0x4
   396                           
   397                           
   398                           ; 2 bytes @ 0x4
   399     0074                     	ds	2
   400     0076                     __Umul8_16@word_mpld:
   401                           
   402                           ; 2 bytes @ 0x6
   403     0076                     	ds	2
   404     0078                     __Umul8_16@multiplier:
   405     0078                     ___xxtofl@sign:	
   406                           ; 1 bytes @ 0x8
   407                           
   408                           
   409                           ; 1 bytes @ 0x8
   410     0078                     	ds	1
   411     0079                     ___xxtofl@exp:
   412                           
   413                           ; 1 bytes @ 0x9
   414     0079                     	ds	1
   415     007A                     ___xxtofl@arg:
   416                           
   417                           ; 4 bytes @ 0xA
   418     007A                     	ds	4
   419     007E                     ??___wmul:
   420     007E                     ??i1_lcd:	
   421                           ; 1 bytes @ 0xE
   422                           
   423                           
   424                           	psect	cstackBANK0
   425     0020                     __pcstackBANK0:	
   426                           ; 1 bytes @ 0xE
   427                           
   428     0020                     ?___flmul:
   429     0020                     ___flmul@b:	
   430                           ; 4 bytes @ 0x0
   431                           
   432                           
   433                           ; 4 bytes @ 0x0
   434     0020                     	ds	4
   435     0024                     ___flmul@a:
   436                           
   437                           ; 4 bytes @ 0x4
   438     0024                     	ds	4
   439     0028                     ??___flmul:
   440                           
   441                           ; 1 bytes @ 0x8
   442     0028                     	ds	5
   443     002D                     ___flmul@sign:
   444                           
   445                           ; 1 bytes @ 0xD
   446     002D                     	ds	1
   447     002E                     ___flmul@grs:
   448                           
   449                           ; 4 bytes @ 0xE
   450     002E                     	ds	4
   451     0032                     ___flmul@aexp:
   452                           
   453                           ; 1 bytes @ 0x12
   454     0032                     	ds	1
   455     0033                     ___flmul@bexp:
   456                           
   457                           ; 1 bytes @ 0x13
   458     0033                     	ds	1
   459     0034                     ___flmul@prod:
   460                           
   461                           ; 4 bytes @ 0x14
   462     0034                     	ds	4
   463     0038                     ___flmul@temp:
   464                           
   465                           ; 2 bytes @ 0x18
   466     0038                     	ds	2
   467     003A                     ?___fldiv:
   468     003A                     ___fldiv@a:	
   469                           ; 4 bytes @ 0x1A
   470                           
   471                           
   472                           ; 4 bytes @ 0x1A
   473     003A                     	ds	4
   474     003E                     ___fldiv@b:
   475                           
   476                           ; 4 bytes @ 0x1E
   477     003E                     	ds	4
   478     0042                     ??___fldiv:
   479                           
   480                           ; 1 bytes @ 0x22
   481     0042                     	ds	5
   482     0047                     ___fldiv@rem:
   483                           
   484                           ; 4 bytes @ 0x27
   485     0047                     	ds	4
   486     004B                     ___fldiv@sign:
   487                           
   488                           ; 1 bytes @ 0x2B
   489     004B                     	ds	1
   490     004C                     ___fldiv@new_exp:
   491                           
   492                           ; 2 bytes @ 0x2C
   493     004C                     	ds	2
   494     004E                     ___fldiv@grs:
   495                           
   496                           ; 4 bytes @ 0x2E
   497     004E                     	ds	4
   498     0052                     ___fldiv@bexp:
   499                           
   500                           ; 1 bytes @ 0x32
   501     0052                     	ds	1
   502     0053                     ___fldiv@aexp:
   503                           
   504                           ; 1 bytes @ 0x33
   505     0053                     	ds	1
   506     0054                     ?___fltol:
   507     0054                     ___fltol@f1:	
   508                           ; 4 bytes @ 0x34
   509                           
   510                           
   511                           ; 4 bytes @ 0x34
   512     0054                     	ds	4
   513     0058                     ??___fltol:
   514                           
   515                           ; 1 bytes @ 0x38
   516     0058                     	ds	4
   517     005C                     ___fltol@sign1:
   518                           
   519                           ; 1 bytes @ 0x3C
   520     005C                     	ds	1
   521     005D                     ___fltol@exp1:
   522                           
   523                           ; 1 bytes @ 0x3D
   524     005D                     	ds	1
   525     005E                     ?___wmul:
   526     005E                     ___wmul@multiplier:	
   527                           ; 2 bytes @ 0x3E
   528                           
   529                           
   530                           ; 2 bytes @ 0x3E
   531     005E                     	ds	2
   532     0060                     ___wmul@multiplicand:
   533                           
   534                           ; 2 bytes @ 0x40
   535     0060                     	ds	2
   536     0062                     ___wmul@product:
   537                           
   538                           ; 2 bytes @ 0x42
   539     0062                     	ds	2
   540     0064                     ?___awmod:
   541     0064                     ___awmod@divisor:	
   542                           ; 2 bytes @ 0x44
   543                           
   544                           
   545                           ; 2 bytes @ 0x44
   546     0064                     	ds	2
   547     0066                     ___awmod@dividend:
   548                           
   549                           ; 2 bytes @ 0x46
   550     0066                     	ds	2
   551     0068                     ??___awmod:
   552                           
   553                           ; 1 bytes @ 0x48
   554     0068                     	ds	1
   555     0069                     ___awmod@counter:
   556                           
   557                           ; 1 bytes @ 0x49
   558     0069                     	ds	1
   559     006A                     ___awmod@sign:
   560                           
   561                           ; 1 bytes @ 0x4A
   562     006A                     	ds	1
   563     006B                     ?___awdiv:
   564     006B                     ___awdiv@divisor:	
   565                           ; 2 bytes @ 0x4B
   566                           
   567                           
   568                           ; 2 bytes @ 0x4B
   569     006B                     	ds	2
   570     006D                     ___awdiv@dividend:
   571                           
   572                           ; 2 bytes @ 0x4D
   573     006D                     	ds	2
   574     006F                     ??___awdiv:
   575                           
   576                           ; 1 bytes @ 0x4F
   577     006F                     	ds	1
   578                           
   579                           	psect	maintext
   580     0C85                     __pmaintext:	
   581 ;;
   582 ;;Main: autosize = 0, tempsize = 0, incstack = 0, save=0
   583 ;;
   584 ;; *************** function _main *****************
   585 ;; Defined at:
   586 ;;		line 80 in file "voltage_divider.c"
   587 ;; Parameters:    Size  Location     Type
   588 ;;		None
   589 ;; Auto vars:     Size  Location     Type
   590 ;;		None
   591 ;; Return value:  Size  Location     Type
   592 ;;                  1    wreg      void 
   593 ;; Registers used:
   594 ;;		wreg, status,2, status,0, pclath, cstack
   595 ;; Tracked objects:
   596 ;;		On entry : B00/0
   597 ;;		On exit  : 0/0
   598 ;;		Unchanged: 0/0
   599 ;; Data sizes:     COMMON   BANK0   BANK1   BANK3   BANK2
   600 ;;      Params:         0       0       0       0       0
   601 ;;      Locals:         0       0       0       0       0
   602 ;;      Temps:          0       0       0       0       0
   603 ;;      Totals:         0       0       0       0       0
   604 ;;Total ram usage:        0 bytes
   605 ;; Hardware stack levels required when called: 5
   606 ;; This function calls:
   607 ;;		_lcd
   608 ;; This function is called by:
   609 ;;		Startup code after reset
   610 ;; This function uses a non-reentrant model
   611 ;;
   612                           
   613     0C85                     _main:	
   614                           ;psect for function _main
   615                           
   616     0C85                     l1809:	
   617                           ;incstack = 0
   618                           ; Regs used in _main: [wreg+status,2+status,0+pclath+cstack]
   619                           
   620                           
   621                           ;voltage_divider.c: 82:     PORTA=0x00;
   622     0C85  1283               	bcf	3,5	;RP0=0, select bank0
   623     0C86  1303               	bcf	3,6	;RP1=0, select bank0
   624     0C87  0185               	clrf	5	;volatile
   625     0C88                     l1811:
   626                           
   627                           ;voltage_divider.c: 83:     TRISA=0x01;
   628     0C88  3001               	movlw	1
   629     0C89  1683               	bsf	3,5	;RP0=1, select bank1
   630     0C8A  1303               	bcf	3,6	;RP1=0, select bank1
   631     0C8B  0085               	movwf	5	;volatile
   632     0C8C                     l1813:
   633                           
   634                           ;voltage_divider.c: 84:     PORTD=TRISD=0x00;
   635     0C8C  0188               	clrf	8	;volatile
   636     0C8D  1283               	bcf	3,5	;RP0=0, select bank0
   637     0C8E  1303               	bcf	3,6	;RP1=0, select bank0
   638     0C8F  0188               	clrf	8	;volatile
   639     0C90                     l1815:
   640                           
   641                           ;voltage_divider.c: 85:     PORTE=TRISE=0x00;
   642     0C90  1683               	bsf	3,5	;RP0=1, select bank1
   643     0C91  1303               	bcf	3,6	;RP1=0, select bank1
   644     0C92  0189               	clrf	9	;volatile
   645     0C93  1283               	bcf	3,5	;RP0=0, select bank0
   646     0C94  1303               	bcf	3,6	;RP1=0, select bank0
   647     0C95  0189               	clrf	9	;volatile
   648     0C96                     l1817:
   649                           
   650                           ;voltage_divider.c: 86:     ADCON0=0x81;
   651     0C96  3081               	movlw	129
   652     0C97  009F               	movwf	31	;volatile
   653     0C98                     l1819:
   654                           
   655                           ;voltage_divider.c: 87:     ADCON1=0x80;
   656     0C98  3080               	movlw	128
   657     0C99  1683               	bsf	3,5	;RP0=1, select bank1
   658     0C9A  1303               	bcf	3,6	;RP1=0, select bank1
   659     0C9B  009F               	movwf	31	;volatile
   660     0C9C                     l1821:
   661                           
   662                           ;voltage_divider.c: 88:     ANSEL=0x01;
   663     0C9C  3001               	movlw	1
   664     0C9D  1683               	bsf	3,5	;RP0=1, select bank3
   665     0C9E  1703               	bsf	3,6	;RP1=1, select bank3
   666     0C9F  0088               	movwf	8	;volatile
   667                           
   668                           ;voltage_divider.c: 89:     ANSELH=0x00;
   669     0CA0  0189               	clrf	9	;volatile
   670     0CA1                     l1823:
   671                           
   672                           ;voltage_divider.c: 90:     GIE=PEIE=ADIE=1;
   673     0CA1  1683               	bsf	3,5	;RP0=1, select bank1
   674     0CA2  1303               	bcf	3,6	;RP1=0, select bank1
   675     0CA3  170C               	bsf	12,6	;volatile
   676     0CA4  1B0C               	btfsc	12,6	;volatile
   677     0CA5  2CA7               	goto	u2501
   678     0CA6  2CA9               	goto	u2500
   679     0CA7                     u2501:
   680     0CA7  170B               	bsf	11,6	;volatile
   681     0CA8  2CAA               	goto	u2514
   682     0CA9                     u2500:
   683     0CA9  130B               	bcf	11,6	;volatile
   684     0CAA                     u2514:
   685     0CAA  1B0B               	btfsc	11,6	;volatile
   686     0CAB  2CAD               	goto	u2511
   687     0CAC  2CAF               	goto	u2510
   688     0CAD                     u2511:
   689     0CAD  178B               	bsf	11,7	;volatile
   690     0CAE  2CB0               	goto	u2524
   691     0CAF                     u2510:
   692     0CAF  138B               	bcf	11,7	;volatile
   693     0CB0                     u2524:
   694     0CB0                     l1825:
   695                           
   696                           ;voltage_divider.c: 91:     lcd(0,0x38);
   697     0CB0  3000               	movlw	0
   698     0CB1  1683               	bsf	3,5	;RP0=1, select bank1
   699     0CB2  1303               	bcf	3,6	;RP1=0, select bank1
   700     0CB3  00C2               	movwf	lcd@rs^(0+128)
   701     0CB4  00C3               	movwf	(lcd@rs+1)^(0+128)
   702     0CB5  3038               	movlw	56
   703     0CB6  00C4               	movwf	lcd@data^(0+128)
   704     0CB7  120A  118A  27BC  120A  158A  	fcall	_lcd
   705     0CBC                     l1827:
   706                           
   707                           ;voltage_divider.c: 92:     lcd(0,0x0c);
   708     0CBC  3000               	movlw	0
   709     0CBD  1683               	bsf	3,5	;RP0=1, select bank1
   710     0CBE  1303               	bcf	3,6	;RP1=0, select bank1
   711     0CBF  00C2               	movwf	lcd@rs^(0+128)
   712     0CC0  00C3               	movwf	(lcd@rs+1)^(0+128)
   713     0CC1  300C               	movlw	12
   714     0CC2  00C4               	movwf	lcd@data^(0+128)
   715     0CC3  120A  118A  27BC  120A  158A  	fcall	_lcd
   716     0CC8                     l1829:
   717                           
   718                           ;voltage_divider.c: 94:     {;voltage_divider.c: 95:         GO=1;
   719     0CC8  1283               	bcf	3,5	;RP0=0, select bank0
   720     0CC9  1303               	bcf	3,6	;RP1=0, select bank0
   721     0CCA  149F               	bsf	31,1	;volatile
   722     0CCB  2CC8               	goto	l1829
   723     0CCC  120A  118A  2810   	ljmp	start
   724     0CCF                     __end_of_main:
   725                           
   726                           	psect	text1
   727     07BC                     __ptext1:	
   728 ;; *************** function _lcd *****************
   729 ;; Defined at:
   730 ;;		line 29 in file "voltage_divider.c"
   731 ;; Parameters:    Size  Location     Type
   732 ;;  rs              2   34[BANK1 ] int 
   733 ;;  data            1   36[BANK1 ] unsigned char 
   734 ;; Auto vars:     Size  Location     Type
   735 ;;		None
   736 ;; Return value:  Size  Location     Type
   737 ;;                  1    wreg      void 
   738 ;; Registers used:
   739 ;;		wreg, status,2, status,0, pclath, cstack
   740 ;; Tracked objects:
   741 ;;		On entry : 0/0
   742 ;;		On exit  : 0/0
   743 ;;		Unchanged: 0/0
   744 ;; Data sizes:     COMMON   BANK0   BANK1   BANK3   BANK2
   745 ;;      Params:         0       0       3       0       0
   746 ;;      Locals:         0       0       0       0       0
   747 ;;      Temps:          0       0       0       0       0
   748 ;;      Totals:         0       0       3       0       0
   749 ;;Total ram usage:        3 bytes
   750 ;; Hardware stack levels used: 1
   751 ;; Hardware stack levels required when called: 4
   752 ;; This function calls:
   753 ;;		_delay
   754 ;; This function is called by:
   755 ;;		_main
   756 ;; This function uses a non-reentrant model
   757 ;;
   758                           
   759     07BC                     _lcd:	
   760                           ;psect for function _lcd
   761                           
   762     07BC                     l1265:	
   763                           ;incstack = 0
   764                           ; Regs used in _lcd: [wreg+status,2+status,0+pclath+cstack]
   765                           
   766                           
   767                           ;voltage_divider.c: 29: void lcd(int rs,char data);voltage_divider.c: 30: {;voltage_divi
      +                          der.c: 31:     RE0=rs;
   768     07BC  1683               	bsf	3,5	;RP0=1, select bank1
   769     07BD  1303               	bcf	3,6	;RP1=0, select bank1
   770     07BE  1842               	btfsc	lcd@rs^(0+128),0
   771     07BF  2FC1               	goto	u1321
   772     07C0  2FC5               	goto	u1320
   773     07C1                     u1321:
   774     07C1  1283               	bcf	3,5	;RP0=0, select bank0
   775     07C2  1303               	bcf	3,6	;RP1=0, select bank0
   776     07C3  1409               	bsf	9,0	;volatile
   777     07C4  2FC8               	goto	u1334
   778     07C5                     u1320:
   779     07C5  1283               	bcf	3,5	;RP0=0, select bank0
   780     07C6  1303               	bcf	3,6	;RP1=0, select bank0
   781     07C7  1009               	bcf	9,0	;volatile
   782     07C8                     u1334:
   783     07C8                     l1267:
   784                           
   785                           ;voltage_divider.c: 32:     PORTD=data;
   786     07C8  1683               	bsf	3,5	;RP0=1, select bank1
   787     07C9  1303               	bcf	3,6	;RP1=0, select bank1
   788     07CA  0844               	movf	lcd@data^(0+128),w
   789     07CB  1283               	bcf	3,5	;RP0=0, select bank0
   790     07CC  1303               	bcf	3,6	;RP1=0, select bank0
   791     07CD  0088               	movwf	8	;volatile
   792     07CE                     l1269:
   793                           
   794                           ;voltage_divider.c: 33:     RE1=1;
   795     07CE  1489               	bsf	9,1	;volatile
   796     07CF                     l1271:
   797                           
   798                           ;voltage_divider.c: 34:     delay(100);
   799     07CF  3064               	movlw	100
   800     07D0  1683               	bsf	3,5	;RP0=1, select bank1
   801     07D1  1303               	bcf	3,6	;RP1=0, select bank1
   802     07D2  00C0               	movwf	delay@t^(0+128)
   803     07D3  3000               	movlw	0
   804     07D4  00C1               	movwf	(delay@t^(0+128)+1)
   805     07D5  120A  118A  27E9  120A  118A  	fcall	_delay
   806     07DA                     l1273:
   807                           
   808                           ;voltage_divider.c: 35:     RE1=0;
   809     07DA  1283               	bcf	3,5	;RP0=0, select bank0
   810     07DB  1303               	bcf	3,6	;RP1=0, select bank0
   811     07DC  1089               	bcf	9,1	;volatile
   812     07DD                     l1275:
   813                           
   814                           ;voltage_divider.c: 36:     delay(100);
   815     07DD  3064               	movlw	100
   816     07DE  1683               	bsf	3,5	;RP0=1, select bank1
   817     07DF  1303               	bcf	3,6	;RP1=0, select bank1
   818     07E0  00C0               	movwf	delay@t^(0+128)
   819     07E1  3000               	movlw	0
   820     07E2  00C1               	movwf	(delay@t^(0+128)+1)
   821     07E3  120A  118A  27E9  120A  118A  	fcall	_delay
   822     07E8                     l49:
   823     07E8  0008               	return
   824     07E9                     __end_of_lcd:
   825                           
   826                           	psect	text2
   827     07E9                     __ptext2:	
   828 ;; *************** function _delay *****************
   829 ;; Defined at:
   830 ;;		line 24 in file "voltage_divider.c"
   831 ;; Parameters:    Size  Location     Type
   832 ;;  t               2   32[BANK1 ] int 
   833 ;; Auto vars:     Size  Location     Type
   834 ;;		None
   835 ;; Return value:  Size  Location     Type
   836 ;;                  1    wreg      void 
   837 ;; Registers used:
   838 ;;		wreg, status,2, status,0
   839 ;; Tracked objects:
   840 ;;		On entry : 0/0
   841 ;;		On exit  : 0/0
   842 ;;		Unchanged: 0/0
   843 ;; Data sizes:     COMMON   BANK0   BANK1   BANK3   BANK2
   844 ;;      Params:         0       0       2       0       0
   845 ;;      Locals:         0       0       0       0       0
   846 ;;      Temps:          0       0       0       0       0
   847 ;;      Totals:         0       0       2       0       0
   848 ;;Total ram usage:        2 bytes
   849 ;; Hardware stack levels used: 1
   850 ;; Hardware stack levels required when called: 3
   851 ;; This function calls:
   852 ;;		Nothing
   853 ;; This function is called by:
   854 ;;		_lcd
   855 ;; This function uses a non-reentrant model
   856 ;;
   857                           
   858     07E9                     _delay:	
   859                           ;psect for function _delay
   860                           
   861     07E9                     l1243:	
   862                           ;incstack = 0
   863                           ; Regs used in _delay: [wreg+status,2+status,0]
   864                           
   865     07E9                     l1245:	
   866                           ;voltage_divider.c: 24: void delay(int t);voltage_divider.c: 25: {;voltage_divider.c: 26
      +                          :     while(t--);
   867                           
   868     07E9  30FF               	movlw	255
   869     07EA  1683               	bsf	3,5	;RP0=1, select bank1
   870     07EB  1303               	bcf	3,6	;RP1=0, select bank1
   871     07EC  07C0               	addwf	delay@t^(0+128),f
   872     07ED  1803               	skipnc
   873     07EE  0AC1               	incf	(delay@t+1)^(0+128),f
   874     07EF  30FF               	movlw	255
   875     07F0  07C1               	addwf	(delay@t+1)^(0+128),f
   876     07F1  0A40               	incf	delay@t^(0+128),w
   877     07F2  1D03               	skipz
   878     07F3  2FF8               	goto	u1271
   879     07F4  0A41               	incf	(delay@t+1)^(0+128),w
   880     07F5  1D03               	btfss	3,2
   881     07F6  2FF8               	goto	u1271
   882     07F7  2FF9               	goto	u1270
   883     07F8                     u1271:
   884     07F8  2FE9               	goto	l1245
   885     07F9                     u1270:
   886     07F9                     l46:
   887     07F9  0008               	return
   888     07FA                     __end_of_delay:
   889                           
   890                           	psect	text3
   891     001B                     __ptext3:	
   892 ;; *************** function _adc *****************
   893 ;; Defined at:
   894 ;;		line 39 in file "voltage_divider.c"
   895 ;; Parameters:    Size  Location     Type
   896 ;;		None
   897 ;; Auto vars:     Size  Location     Type
   898 ;;  volt            2   26[BANK1 ] int 
   899 ;;  d               2   22[BANK1 ] int 
   900 ;;  c               2   20[BANK1 ] int 
   901 ;;  b               2   18[BANK1 ] int 
   902 ;;  a               2   16[BANK1 ] int 
   903 ;;  volt_dec        2   14[BANK1 ] int 
   904 ;;  dvolt_dec       2   12[BANK1 ] int 
   905 ;;  dvolt           2   10[BANK1 ] int 
   906 ;; Return value:  Size  Location     Type
   907 ;;                  1    wreg      void 
   908 ;; Registers used:
   909 ;;		wreg, status,2, status,0, btemp+1, pclath, cstack
   910 ;; Tracked objects:
   911 ;;		On entry : 0/0
   912 ;;		On exit  : 0/0
   913 ;;		Unchanged: 0/0
   914 ;; Data sizes:     COMMON   BANK0   BANK1   BANK3   BANK2
   915 ;;      Params:         0       0       0       0       0
   916 ;;      Locals:         0       0      22       0       0
   917 ;;      Temps:          0       0       3       0       0
   918 ;;      Totals:         0       0      25       0       0
   919 ;;Total ram usage:       25 bytes
   920 ;; Hardware stack levels used: 1
   921 ;; Hardware stack levels required when called: 2
   922 ;; This function calls:
   923 ;;		___awdiv
   924 ;;		___awmod
   925 ;;		___fldiv
   926 ;;		___flmul
   927 ;;		___fltol
   928 ;;		___wmul
   929 ;;		___xxtofl
   930 ;;		i1_lcd
   931 ;; This function is called by:
   932 ;;		Interrupt level 1
   933 ;; This function uses a non-reentrant model
   934 ;;
   935                           
   936     001B                     _adc:	
   937                           ;psect for function _adc
   938                           
   939     001B                     i1l1747:
   940                           
   941                           ;voltage_divider.c: 42: if(ADIF==1)
   942     001B  1283               	bcf	3,5	;RP0=0, select bank0
   943     001C  1303               	bcf	3,6	;RP1=0, select bank0
   944     001D  1F0C               	btfss	12,6	;volatile
   945     001E  2820               	goto	u249_21
   946     001F  2821               	goto	u249_20
   947     0020                     u249_21:
   948     0020  2BB4               	goto	i1l55
   949     0021                     u249_20:
   950     0021                     i1l1749:
   951                           
   952                           ;voltage_divider.c: 43: {;voltage_divider.c: 44:         dv=ADRESL+(ADRESH*256);
   953     0021  081E               	movf	30,w	;volatile
   954     0022  1683               	bsf	3,5	;RP0=1, select bank1
   955     0023  1303               	bcf	3,6	;RP1=0, select bank1
   956     0024  00C6               	movwf	(_dv+1)^(0+128)
   957     0025  081E               	movf	30,w	;volatile
   958     0026  00C5               	movwf	_dv^(0+128)
   959     0027                     i1l1751:
   960                           
   961                           ;voltage_divider.c: 45:     ADIF=0;
   962     0027  1283               	bcf	3,5	;RP0=0, select bank0
   963     0028  1303               	bcf	3,6	;RP1=0, select bank0
   964     0029  130C               	bcf	12,6	;volatile
   965     002A                     i1l1753:
   966                           
   967                           ;voltage_divider.c: 47:  int dvolt=(5*dv)/1023;
   968     002A  30FF               	movlw	255
   969     002B  00EB               	movwf	___awdiv@divisor
   970     002C  3003               	movlw	3
   971     002D  00EC               	movwf	___awdiv@divisor+1
   972     002E  1683               	bsf	3,5	;RP0=1, select bank1
   973     002F  1303               	bcf	3,6	;RP1=0, select bank1
   974     0030  0846               	movf	(_dv+1)^(0+128),w
   975     0031  1283               	bcf	3,5	;RP0=0, select bank0
   976     0032  1303               	bcf	3,6	;RP1=0, select bank0
   977     0033  00DF               	movwf	___wmul@multiplier+1
   978     0034  1683               	bsf	3,5	;RP0=1, select bank1
   979     0035  1303               	bcf	3,6	;RP1=0, select bank1
   980     0036  0845               	movf	_dv^(0+128),w
   981     0037  1283               	bcf	3,5	;RP0=0, select bank0
   982     0038  1303               	bcf	3,6	;RP1=0, select bank0
   983     0039  00DE               	movwf	___wmul@multiplier
   984     003A  3005               	movlw	5
   985     003B  00E0               	movwf	___wmul@multiplicand
   986     003C  3000               	movlw	0
   987     003D  00E1               	movwf	___wmul@multiplicand+1
   988     003E  120A  158A  2435  120A  118A  	fcall	___wmul
   989     0043  1283               	bcf	3,5	;RP0=0, select bank0
   990     0044  1303               	bcf	3,6	;RP1=0, select bank0
   991     0045  085F               	movf	?___wmul+1,w
   992     0046  00EE               	movwf	___awdiv@dividend+1
   993     0047  085E               	movf	?___wmul,w
   994     0048  00ED               	movwf	___awdiv@dividend
   995     0049  120A  158A  25A2  120A  118A  	fcall	___awdiv
   996     004E  1283               	bcf	3,5	;RP0=0, select bank0
   997     004F  1303               	bcf	3,6	;RP1=0, select bank0
   998     0050  086C               	movf	?___awdiv+1,w
   999     0051  1683               	bsf	3,5	;RP0=1, select bank1
  1000     0052  1303               	bcf	3,6	;RP1=0, select bank1
  1001     0053  00AB               	movwf	(adc@dvolt+1)^(0+128)
  1002     0054  1283               	bcf	3,5	;RP0=0, select bank0
  1003     0055  1303               	bcf	3,6	;RP1=0, select bank0
  1004     0056  086B               	movf	?___awdiv,w
  1005     0057  1683               	bsf	3,5	;RP0=1, select bank1
  1006     0058  1303               	bcf	3,6	;RP1=0, select bank1
  1007     0059  00AA               	movwf	adc@dvolt^(0+128)
  1008     005A                     i1l1755:
  1009                           
  1010                           ;voltage_divider.c: 48:     int dvolt_dec=(((5*dv)%1023)*10)/1023;
  1011     005A  0846               	movf	(_dv+1)^(0+128),w
  1012     005B  1283               	bcf	3,5	;RP0=0, select bank0
  1013     005C  1303               	bcf	3,6	;RP1=0, select bank0
  1014     005D  00DF               	movwf	___wmul@multiplier+1
  1015     005E  1683               	bsf	3,5	;RP0=1, select bank1
  1016     005F  1303               	bcf	3,6	;RP1=0, select bank1
  1017     0060  0845               	movf	_dv^(0+128),w
  1018     0061  1283               	bcf	3,5	;RP0=0, select bank0
  1019     0062  1303               	bcf	3,6	;RP1=0, select bank0
  1020     0063  00DE               	movwf	___wmul@multiplier
  1021     0064  3005               	movlw	5
  1022     0065  00E0               	movwf	___wmul@multiplicand
  1023     0066  3000               	movlw	0
  1024     0067  00E1               	movwf	___wmul@multiplicand+1
  1025     0068  120A  158A  2435  120A  118A  	fcall	___wmul
  1026     006D  1283               	bcf	3,5	;RP0=0, select bank0
  1027     006E  1303               	bcf	3,6	;RP1=0, select bank0
  1028     006F  085F               	movf	?___wmul+1,w
  1029     0070  00E7               	movwf	___awmod@dividend+1
  1030     0071  085E               	movf	?___wmul,w
  1031     0072  00E6               	movwf	___awmod@dividend
  1032     0073  30FF               	movlw	255
  1033     0074  00E4               	movwf	___awmod@divisor
  1034     0075  3003               	movlw	3
  1035     0076  00E5               	movwf	___awmod@divisor+1
  1036     0077  120A  158A  24CF  120A  118A  	fcall	___awmod
  1037     007C  1283               	bcf	3,5	;RP0=0, select bank0
  1038     007D  1303               	bcf	3,6	;RP1=0, select bank0
  1039     007E  0865               	movf	?___awmod+1,w
  1040     007F  1683               	bsf	3,5	;RP0=1, select bank1
  1041     0080  1303               	bcf	3,6	;RP1=0, select bank1
  1042     0081  00B9               	movwf	(_adc$674+1)^(0+128)
  1043     0082  1283               	bcf	3,5	;RP0=0, select bank0
  1044     0083  1303               	bcf	3,6	;RP1=0, select bank0
  1045     0084  0864               	movf	?___awmod,w
  1046     0085  1683               	bsf	3,5	;RP0=1, select bank1
  1047     0086  1303               	bcf	3,6	;RP1=0, select bank1
  1048     0087  00B8               	movwf	_adc$674^(0+128)
  1049     0088                     i1l1757:
  1050                           
  1051                           ;voltage_divider.c: 48:     int dvolt_dec=(((5*dv)%1023)*10)/1023;
  1052     0088  30FF               	movlw	255
  1053     0089  1283               	bcf	3,5	;RP0=0, select bank0
  1054     008A  1303               	bcf	3,6	;RP1=0, select bank0
  1055     008B  00EB               	movwf	___awdiv@divisor
  1056     008C  3003               	movlw	3
  1057     008D  00EC               	movwf	___awdiv@divisor+1
  1058     008E  1683               	bsf	3,5	;RP0=1, select bank1
  1059     008F  1303               	bcf	3,6	;RP1=0, select bank1
  1060     0090  0839               	movf	(_adc$674+1)^(0+128),w
  1061     0091  1283               	bcf	3,5	;RP0=0, select bank0
  1062     0092  1303               	bcf	3,6	;RP1=0, select bank0
  1063     0093  00DF               	movwf	___wmul@multiplier+1
  1064     0094  1683               	bsf	3,5	;RP0=1, select bank1
  1065     0095  1303               	bcf	3,6	;RP1=0, select bank1
  1066     0096  0838               	movf	_adc$674^(0+128),w
  1067     0097  1283               	bcf	3,5	;RP0=0, select bank0
  1068     0098  1303               	bcf	3,6	;RP1=0, select bank0
  1069     0099  00DE               	movwf	___wmul@multiplier
  1070     009A  300A               	movlw	10
  1071     009B  00E0               	movwf	___wmul@multiplicand
  1072     009C  3000               	movlw	0
  1073     009D  00E1               	movwf	___wmul@multiplicand+1
  1074     009E  120A  158A  2435  120A  118A  	fcall	___wmul
  1075     00A3  1283               	bcf	3,5	;RP0=0, select bank0
  1076     00A4  1303               	bcf	3,6	;RP1=0, select bank0
  1077     00A5  085F               	movf	?___wmul+1,w
  1078     00A6  00EE               	movwf	___awdiv@dividend+1
  1079     00A7  085E               	movf	?___wmul,w
  1080     00A8  00ED               	movwf	___awdiv@dividend
  1081     00A9  120A  158A  25A2  120A  118A  	fcall	___awdiv
  1082     00AE  1283               	bcf	3,5	;RP0=0, select bank0
  1083     00AF  1303               	bcf	3,6	;RP1=0, select bank0
  1084     00B0  086C               	movf	?___awdiv+1,w
  1085     00B1  1683               	bsf	3,5	;RP0=1, select bank1
  1086     00B2  1303               	bcf	3,6	;RP1=0, select bank1
  1087     00B3  00AD               	movwf	(adc@dvolt_dec+1)^(0+128)
  1088     00B4  1283               	bcf	3,5	;RP0=0, select bank0
  1089     00B5  1303               	bcf	3,6	;RP1=0, select bank0
  1090     00B6  086B               	movf	?___awdiv,w
  1091     00B7  1683               	bsf	3,5	;RP0=1, select bank1
  1092     00B8  1303               	bcf	3,6	;RP1=0, select bank1
  1093     00B9  00AC               	movwf	adc@dvolt_dec^(0+128)
  1094     00BA                     i1l1759:
  1095                           
  1096                           ;voltage_divider.c: 49:     int volt=((5.0*(float)dv*4.8)/1023);
  1097     00BA  0845               	movf	_dv^(0+128),w
  1098     00BB  00F0               	movwf	___xxtofl@val
  1099     00BC  0846               	movf	(_dv+1)^(0+128),w
  1100     00BD  00F1               	movwf	___xxtofl@val+1
  1101     00BE  3000               	movlw	0
  1102     00BF  1BF1               	btfsc	___xxtofl@val+1,7
  1103     00C0  30FF               	movlw	255
  1104     00C1  00F2               	movwf	___xxtofl@val+2
  1105     00C2  00F3               	movwf	___xxtofl@val+3
  1106     00C3  3001               	movlw	1
  1107     00C4  120A  118A  2704  120A  118A  	fcall	___xxtofl
  1108     00C9  0873               	movf	?___xxtofl+3,w
  1109     00CA  1283               	bcf	3,5	;RP0=0, select bank0
  1110     00CB  1303               	bcf	3,6	;RP1=0, select bank0
  1111     00CC  00A7               	movwf	___flmul@a+3
  1112     00CD  0872               	movf	?___xxtofl+2,w
  1113     00CE  00A6               	movwf	___flmul@a+2
  1114     00CF  0871               	movf	?___xxtofl+1,w
  1115     00D0  00A5               	movwf	___flmul@a+1
  1116     00D1  0870               	movf	?___xxtofl,w
  1117     00D2  00A4               	movwf	___flmul@a
  1118     00D3  3040               	movlw	64
  1119     00D4  00A3               	movwf	___flmul@b+3
  1120     00D5  30A0               	movlw	160
  1121     00D6  00A2               	movwf	___flmul@b+2
  1122     00D7  3000               	movlw	0
  1123     00D8  00A1               	movwf	___flmul@b+1
  1124     00D9  3000               	movlw	0
  1125     00DA  00A0               	movwf	___flmul@b
  1126     00DB  120A  118A  23BF  120A  118A  	fcall	___flmul
  1127     00E0  1283               	bcf	3,5	;RP0=0, select bank0
  1128     00E1  1303               	bcf	3,6	;RP1=0, select bank0
  1129     00E2  0823               	movf	?___flmul+3,w
  1130     00E3  1683               	bsf	3,5	;RP0=1, select bank1
  1131     00E4  1303               	bcf	3,6	;RP1=0, select bank1
  1132     00E5  00BF               	movwf	(_adc$675+3)^(0+128)
  1133     00E6  1283               	bcf	3,5	;RP0=0, select bank0
  1134     00E7  1303               	bcf	3,6	;RP1=0, select bank0
  1135     00E8  0822               	movf	?___flmul+2,w
  1136     00E9  1683               	bsf	3,5	;RP0=1, select bank1
  1137     00EA  1303               	bcf	3,6	;RP1=0, select bank1
  1138     00EB  00BE               	movwf	(_adc$675+2)^(0+128)
  1139     00EC  1283               	bcf	3,5	;RP0=0, select bank0
  1140     00ED  1303               	bcf	3,6	;RP1=0, select bank0
  1141     00EE  0821               	movf	?___flmul+1,w
  1142     00EF  1683               	bsf	3,5	;RP0=1, select bank1
  1143     00F0  1303               	bcf	3,6	;RP1=0, select bank1
  1144     00F1  00BD               	movwf	(_adc$675+1)^(0+128)
  1145     00F2  1283               	bcf	3,5	;RP0=0, select bank0
  1146     00F3  1303               	bcf	3,6	;RP1=0, select bank0
  1147     00F4  0820               	movf	?___flmul,w
  1148     00F5  1683               	bsf	3,5	;RP0=1, select bank1
  1149     00F6  1303               	bcf	3,6	;RP1=0, select bank1
  1150     00F7  00BC               	movwf	_adc$675^(0+128)
  1151     00F8                     i1l1761:
  1152                           
  1153                           ;voltage_divider.c: 49:     int volt=((5.0*(float)dv*4.8)/1023);
  1154     00F8  083F               	movf	(_adc$675+3)^(0+128),w
  1155     00F9  1283               	bcf	3,5	;RP0=0, select bank0
  1156     00FA  1303               	bcf	3,6	;RP1=0, select bank0
  1157     00FB  00A7               	movwf	___flmul@a+3
  1158     00FC  1683               	bsf	3,5	;RP0=1, select bank1
  1159     00FD  1303               	bcf	3,6	;RP1=0, select bank1
  1160     00FE  083E               	movf	(_adc$675+2)^(0+128),w
  1161     00FF  1283               	bcf	3,5	;RP0=0, select bank0
  1162     0100  1303               	bcf	3,6	;RP1=0, select bank0
  1163     0101  00A6               	movwf	___flmul@a+2
  1164     0102  1683               	bsf	3,5	;RP0=1, select bank1
  1165     0103  1303               	bcf	3,6	;RP1=0, select bank1
  1166     0104  083D               	movf	(_adc$675+1)^(0+128),w
  1167     0105  1283               	bcf	3,5	;RP0=0, select bank0
  1168     0106  1303               	bcf	3,6	;RP1=0, select bank0
  1169     0107  00A5               	movwf	___flmul@a+1
  1170     0108  1683               	bsf	3,5	;RP0=1, select bank1
  1171     0109  1303               	bcf	3,6	;RP1=0, select bank1
  1172     010A  083C               	movf	_adc$675^(0+128),w
  1173     010B  1283               	bcf	3,5	;RP0=0, select bank0
  1174     010C  1303               	bcf	3,6	;RP1=0, select bank0
  1175     010D  00A4               	movwf	___flmul@a
  1176     010E  3040               	movlw	64
  1177     010F  00A3               	movwf	___flmul@b+3
  1178     0110  3099               	movlw	153
  1179     0111  00A2               	movwf	___flmul@b+2
  1180     0112  3099               	movlw	153
  1181     0113  00A1               	movwf	___flmul@b+1
  1182     0114  309A               	movlw	154
  1183     0115  00A0               	movwf	___flmul@b
  1184     0116  120A  118A  23BF  120A  118A  	fcall	___flmul
  1185     011B  1283               	bcf	3,5	;RP0=0, select bank0
  1186     011C  1303               	bcf	3,6	;RP1=0, select bank0
  1187     011D  0823               	movf	?___flmul+3,w
  1188     011E  00C1               	movwf	___fldiv@b+3
  1189     011F  0822               	movf	?___flmul+2,w
  1190     0120  00C0               	movwf	___fldiv@b+2
  1191     0121  0821               	movf	?___flmul+1,w
  1192     0122  00BF               	movwf	___fldiv@b+1
  1193     0123  0820               	movf	?___flmul,w
  1194     0124  00BE               	movwf	___fldiv@b
  1195     0125  3044               	movlw	68
  1196     0126  00BD               	movwf	___fldiv@a+3
  1197     0127  307F               	movlw	127
  1198     0128  00BC               	movwf	___fldiv@a+2
  1199     0129  30C0               	movlw	192
  1200     012A  00BB               	movwf	___fldiv@a+1
  1201     012B  3000               	movlw	0
  1202     012C  00BA               	movwf	___fldiv@a
  1203     012D  120A  158A  262D  120A  118A  	fcall	___fldiv
  1204     0132  1283               	bcf	3,5	;RP0=0, select bank0
  1205     0133  1303               	bcf	3,6	;RP1=0, select bank0
  1206     0134  083D               	movf	?___fldiv+3,w
  1207     0135  00D7               	movwf	___fltol@f1+3
  1208     0136  083C               	movf	?___fldiv+2,w
  1209     0137  00D6               	movwf	___fltol@f1+2
  1210     0138  083B               	movf	?___fldiv+1,w
  1211     0139  00D5               	movwf	___fltol@f1+1
  1212     013A  083A               	movf	?___fldiv,w
  1213     013B  00D4               	movwf	___fltol@f1
  1214     013C  120A  158A  252A  120A  118A  	fcall	___fltol
  1215     0141  1283               	bcf	3,5	;RP0=0, select bank0
  1216     0142  1303               	bcf	3,6	;RP1=0, select bank0
  1217     0143  0855               	movf	?___fltol+1,w
  1218     0144  1683               	bsf	3,5	;RP0=1, select bank1
  1219     0145  1303               	bcf	3,6	;RP1=0, select bank1
  1220     0146  00BB               	movwf	(adc@volt+1)^(0+128)
  1221     0147  1283               	bcf	3,5	;RP0=0, select bank0
  1222     0148  1303               	bcf	3,6	;RP1=0, select bank0
  1223     0149  0854               	movf	?___fltol,w
  1224     014A  1683               	bsf	3,5	;RP0=1, select bank1
  1225     014B  1303               	bcf	3,6	;RP1=0, select bank1
  1226     014C  00BA               	movwf	adc@volt^(0+128)
  1227     014D                     i1l1763:
  1228                           
  1229                           ;voltage_divider.c: 50:     int volt_dec=(((int)(5.0*(float)dv*4.8)%1023)*10)/1023;
  1230     014D  0845               	movf	_dv^(0+128),w
  1231     014E  00F0               	movwf	___xxtofl@val
  1232     014F  0846               	movf	(_dv+1)^(0+128),w
  1233     0150  00F1               	movwf	___xxtofl@val+1
  1234     0151  3000               	movlw	0
  1235     0152  1BF1               	btfsc	___xxtofl@val+1,7
  1236     0153  30FF               	movlw	255
  1237     0154  00F2               	movwf	___xxtofl@val+2
  1238     0155  00F3               	movwf	___xxtofl@val+3
  1239     0156  3001               	movlw	1
  1240     0157  120A  118A  2704  120A  118A  	fcall	___xxtofl
  1241     015C  0873               	movf	?___xxtofl+3,w
  1242     015D  1283               	bcf	3,5	;RP0=0, select bank0
  1243     015E  1303               	bcf	3,6	;RP1=0, select bank0
  1244     015F  00A7               	movwf	___flmul@a+3
  1245     0160  0872               	movf	?___xxtofl+2,w
  1246     0161  00A6               	movwf	___flmul@a+2
  1247     0162  0871               	movf	?___xxtofl+1,w
  1248     0163  00A5               	movwf	___flmul@a+1
  1249     0164  0870               	movf	?___xxtofl,w
  1250     0165  00A4               	movwf	___flmul@a
  1251     0166  3040               	movlw	64
  1252     0167  00A3               	movwf	___flmul@b+3
  1253     0168  30A0               	movlw	160
  1254     0169  00A2               	movwf	___flmul@b+2
  1255     016A  3000               	movlw	0
  1256     016B  00A1               	movwf	___flmul@b+1
  1257     016C  3000               	movlw	0
  1258     016D  00A0               	movwf	___flmul@b
  1259     016E  120A  118A  23BF  120A  118A  	fcall	___flmul
  1260     0173  1283               	bcf	3,5	;RP0=0, select bank0
  1261     0174  1303               	bcf	3,6	;RP1=0, select bank0
  1262     0175  0823               	movf	?___flmul+3,w
  1263     0176  1683               	bsf	3,5	;RP0=1, select bank1
  1264     0177  1303               	bcf	3,6	;RP1=0, select bank1
  1265     0178  00BF               	movwf	(_adc$675+3)^(0+128)
  1266     0179  1283               	bcf	3,5	;RP0=0, select bank0
  1267     017A  1303               	bcf	3,6	;RP1=0, select bank0
  1268     017B  0822               	movf	?___flmul+2,w
  1269     017C  1683               	bsf	3,5	;RP0=1, select bank1
  1270     017D  1303               	bcf	3,6	;RP1=0, select bank1
  1271     017E  00BE               	movwf	(_adc$675+2)^(0+128)
  1272     017F  1283               	bcf	3,5	;RP0=0, select bank0
  1273     0180  1303               	bcf	3,6	;RP1=0, select bank0
  1274     0181  0821               	movf	?___flmul+1,w
  1275     0182  1683               	bsf	3,5	;RP0=1, select bank1
  1276     0183  1303               	bcf	3,6	;RP1=0, select bank1
  1277     0184  00BD               	movwf	(_adc$675+1)^(0+128)
  1278     0185  1283               	bcf	3,5	;RP0=0, select bank0
  1279     0186  1303               	bcf	3,6	;RP1=0, select bank0
  1280     0187  0820               	movf	?___flmul,w
  1281     0188  1683               	bsf	3,5	;RP0=1, select bank1
  1282     0189  1303               	bcf	3,6	;RP1=0, select bank1
  1283     018A  00BC               	movwf	_adc$675^(0+128)
  1284     018B                     i1l1765:
  1285                           
  1286                           ;voltage_divider.c: 50:     int volt_dec=(((int)(5.0*(float)dv*4.8)%1023)*10)/1023;
  1287     018B  30FF               	movlw	255
  1288     018C  1283               	bcf	3,5	;RP0=0, select bank0
  1289     018D  1303               	bcf	3,6	;RP1=0, select bank0
  1290     018E  00EB               	movwf	___awdiv@divisor
  1291     018F  3003               	movlw	3
  1292     0190  00EC               	movwf	___awdiv@divisor+1
  1293     0191  1683               	bsf	3,5	;RP0=1, select bank1
  1294     0192  1303               	bcf	3,6	;RP1=0, select bank1
  1295     0193  083F               	movf	(_adc$675+3)^(0+128),w
  1296     0194  1283               	bcf	3,5	;RP0=0, select bank0
  1297     0195  1303               	bcf	3,6	;RP1=0, select bank0
  1298     0196  00A7               	movwf	___flmul@a+3
  1299     0197  1683               	bsf	3,5	;RP0=1, select bank1
  1300     0198  1303               	bcf	3,6	;RP1=0, select bank1
  1301     0199  083E               	movf	(_adc$675+2)^(0+128),w
  1302     019A  1283               	bcf	3,5	;RP0=0, select bank0
  1303     019B  1303               	bcf	3,6	;RP1=0, select bank0
  1304     019C  00A6               	movwf	___flmul@a+2
  1305     019D  1683               	bsf	3,5	;RP0=1, select bank1
  1306     019E  1303               	bcf	3,6	;RP1=0, select bank1
  1307     019F  083D               	movf	(_adc$675+1)^(0+128),w
  1308     01A0  1283               	bcf	3,5	;RP0=0, select bank0
  1309     01A1  1303               	bcf	3,6	;RP1=0, select bank0
  1310     01A2  00A5               	movwf	___flmul@a+1
  1311     01A3  1683               	bsf	3,5	;RP0=1, select bank1
  1312     01A4  1303               	bcf	3,6	;RP1=0, select bank1
  1313     01A5  083C               	movf	_adc$675^(0+128),w
  1314     01A6  1283               	bcf	3,5	;RP0=0, select bank0
  1315     01A7  1303               	bcf	3,6	;RP1=0, select bank0
  1316     01A8  00A4               	movwf	___flmul@a
  1317     01A9  3040               	movlw	64
  1318     01AA  00A3               	movwf	___flmul@b+3
  1319     01AB  3099               	movlw	153
  1320     01AC  00A2               	movwf	___flmul@b+2
  1321     01AD  3099               	movlw	153
  1322     01AE  00A1               	movwf	___flmul@b+1
  1323     01AF  309A               	movlw	154
  1324     01B0  00A0               	movwf	___flmul@b
  1325     01B1  120A  118A  23BF  120A  118A  	fcall	___flmul
  1326     01B6  1283               	bcf	3,5	;RP0=0, select bank0
  1327     01B7  1303               	bcf	3,6	;RP1=0, select bank0
  1328     01B8  0823               	movf	?___flmul+3,w
  1329     01B9  00D7               	movwf	___fltol@f1+3
  1330     01BA  0822               	movf	?___flmul+2,w
  1331     01BB  00D6               	movwf	___fltol@f1+2
  1332     01BC  0821               	movf	?___flmul+1,w
  1333     01BD  00D5               	movwf	___fltol@f1+1
  1334     01BE  0820               	movf	?___flmul,w
  1335     01BF  00D4               	movwf	___fltol@f1
  1336     01C0  120A  158A  252A  120A  118A  	fcall	___fltol
  1337     01C5  1283               	bcf	3,5	;RP0=0, select bank0
  1338     01C6  1303               	bcf	3,6	;RP1=0, select bank0
  1339     01C7  0855               	movf	?___fltol+1,w
  1340     01C8  00E7               	movwf	___awmod@dividend+1
  1341     01C9  0854               	movf	?___fltol,w
  1342     01CA  00E6               	movwf	___awmod@dividend
  1343     01CB  30FF               	movlw	255
  1344     01CC  00E4               	movwf	___awmod@divisor
  1345     01CD  3003               	movlw	3
  1346     01CE  00E5               	movwf	___awmod@divisor+1
  1347     01CF  120A  158A  24CF  120A  118A  	fcall	___awmod
  1348     01D4  1283               	bcf	3,5	;RP0=0, select bank0
  1349     01D5  1303               	bcf	3,6	;RP1=0, select bank0
  1350     01D6  0865               	movf	?___awmod+1,w
  1351     01D7  00DF               	movwf	___wmul@multiplier+1
  1352     01D8  0864               	movf	?___awmod,w
  1353     01D9  00DE               	movwf	___wmul@multiplier
  1354     01DA  300A               	movlw	10
  1355     01DB  00E0               	movwf	___wmul@multiplicand
  1356     01DC  3000               	movlw	0
  1357     01DD  00E1               	movwf	___wmul@multiplicand+1
  1358     01DE  120A  158A  2435  120A  118A  	fcall	___wmul
  1359     01E3  1283               	bcf	3,5	;RP0=0, select bank0
  1360     01E4  1303               	bcf	3,6	;RP1=0, select bank0
  1361     01E5  085F               	movf	?___wmul+1,w
  1362     01E6  00EE               	movwf	___awdiv@dividend+1
  1363     01E7  085E               	movf	?___wmul,w
  1364     01E8  00ED               	movwf	___awdiv@dividend
  1365     01E9  120A  158A  25A2  120A  118A  	fcall	___awdiv
  1366     01EE  1283               	bcf	3,5	;RP0=0, select bank0
  1367     01EF  1303               	bcf	3,6	;RP1=0, select bank0
  1368     01F0  086C               	movf	?___awdiv+1,w
  1369     01F1  1683               	bsf	3,5	;RP0=1, select bank1
  1370     01F2  1303               	bcf	3,6	;RP1=0, select bank1
  1371     01F3  00AF               	movwf	(adc@volt_dec+1)^(0+128)
  1372     01F4  1283               	bcf	3,5	;RP0=0, select bank0
  1373     01F5  1303               	bcf	3,6	;RP1=0, select bank0
  1374     01F6  086B               	movf	?___awdiv,w
  1375     01F7  1683               	bsf	3,5	;RP0=1, select bank1
  1376     01F8  1303               	bcf	3,6	;RP1=0, select bank1
  1377     01F9  00AE               	movwf	adc@volt_dec^(0+128)
  1378     01FA                     i1l1767:
  1379                           
  1380                           ;voltage_divider.c: 52:     lcd(0,0x80);
  1381     01FA  3000               	movlw	0
  1382     01FB  00A4               	movwf	i1lcd@rs^(0+128)
  1383     01FC  00A5               	movwf	(i1lcd@rs+1)^(0+128)
  1384     01FD  3080               	movlw	128
  1385     01FE  00A6               	movwf	i1lcd@data^(0+128)
  1386     01FF  120A  158A  245C  120A  118A  	fcall	i1_lcd
  1387     0204                     i1l1769:
  1388                           
  1389                           ;voltage_divider.c: 54:     int a=dv/1000;
  1390     0204  30E8               	movlw	232
  1391     0205  1283               	bcf	3,5	;RP0=0, select bank0
  1392     0206  1303               	bcf	3,6	;RP1=0, select bank0
  1393     0207  00EB               	movwf	___awdiv@divisor
  1394     0208  3003               	movlw	3
  1395     0209  00EC               	movwf	___awdiv@divisor+1
  1396     020A  1683               	bsf	3,5	;RP0=1, select bank1
  1397     020B  1303               	bcf	3,6	;RP1=0, select bank1
  1398     020C  0846               	movf	(_dv+1)^(0+128),w
  1399     020D  1283               	bcf	3,5	;RP0=0, select bank0
  1400     020E  1303               	bcf	3,6	;RP1=0, select bank0
  1401     020F  00EE               	movwf	___awdiv@dividend+1
  1402     0210  1683               	bsf	3,5	;RP0=1, select bank1
  1403     0211  1303               	bcf	3,6	;RP1=0, select bank1
  1404     0212  0845               	movf	_dv^(0+128),w
  1405     0213  1283               	bcf	3,5	;RP0=0, select bank0
  1406     0214  1303               	bcf	3,6	;RP1=0, select bank0
  1407     0215  00ED               	movwf	___awdiv@dividend
  1408     0216  120A  158A  25A2  120A  118A  	fcall	___awdiv
  1409     021B  1283               	bcf	3,5	;RP0=0, select bank0
  1410     021C  1303               	bcf	3,6	;RP1=0, select bank0
  1411     021D  086C               	movf	?___awdiv+1,w
  1412     021E  1683               	bsf	3,5	;RP0=1, select bank1
  1413     021F  1303               	bcf	3,6	;RP1=0, select bank1
  1414     0220  00B1               	movwf	(adc@a+1)^(0+128)
  1415     0221  1283               	bcf	3,5	;RP0=0, select bank0
  1416     0222  1303               	bcf	3,6	;RP1=0, select bank0
  1417     0223  086B               	movf	?___awdiv,w
  1418     0224  1683               	bsf	3,5	;RP0=1, select bank1
  1419     0225  1303               	bcf	3,6	;RP1=0, select bank1
  1420     0226  00B0               	movwf	adc@a^(0+128)
  1421     0227                     i1l1771:
  1422                           
  1423                           ;voltage_divider.c: 55:     lcd(1,48+a);
  1424     0227  3001               	movlw	1
  1425     0228  00A4               	movwf	i1lcd@rs^(0+128)
  1426     0229  3000               	movlw	0
  1427     022A  00A5               	movwf	(i1lcd@rs^(0+128)+1)
  1428     022B  0830               	movf	adc@a^(0+128),w
  1429     022C  3E30               	addlw	48
  1430     022D  00A6               	movwf	i1lcd@data^(0+128)
  1431     022E  120A  158A  245C  120A  118A  	fcall	i1_lcd
  1432     0233                     i1l1773:
  1433                           
  1434                           ;voltage_divider.c: 56:     int b=(dv/100)%10;
  1435     0233  300A               	movlw	10
  1436     0234  1283               	bcf	3,5	;RP0=0, select bank0
  1437     0235  1303               	bcf	3,6	;RP1=0, select bank0
  1438     0236  00E4               	movwf	___awmod@divisor
  1439     0237  3000               	movlw	0
  1440     0238  00E5               	movwf	___awmod@divisor+1
  1441     0239  3064               	movlw	100
  1442     023A  00EB               	movwf	___awdiv@divisor
  1443     023B  3000               	movlw	0
  1444     023C  00EC               	movwf	___awdiv@divisor+1
  1445     023D  1683               	bsf	3,5	;RP0=1, select bank1
  1446     023E  1303               	bcf	3,6	;RP1=0, select bank1
  1447     023F  0846               	movf	(_dv+1)^(0+128),w
  1448     0240  1283               	bcf	3,5	;RP0=0, select bank0
  1449     0241  1303               	bcf	3,6	;RP1=0, select bank0
  1450     0242  00EE               	movwf	___awdiv@dividend+1
  1451     0243  1683               	bsf	3,5	;RP0=1, select bank1
  1452     0244  1303               	bcf	3,6	;RP1=0, select bank1
  1453     0245  0845               	movf	_dv^(0+128),w
  1454     0246  1283               	bcf	3,5	;RP0=0, select bank0
  1455     0247  1303               	bcf	3,6	;RP1=0, select bank0
  1456     0248  00ED               	movwf	___awdiv@dividend
  1457     0249  120A  158A  25A2  120A  118A  	fcall	___awdiv
  1458     024E  1283               	bcf	3,5	;RP0=0, select bank0
  1459     024F  1303               	bcf	3,6	;RP1=0, select bank0
  1460     0250  086C               	movf	?___awdiv+1,w
  1461     0251  00E7               	movwf	___awmod@dividend+1
  1462     0252  086B               	movf	?___awdiv,w
  1463     0253  00E6               	movwf	___awmod@dividend
  1464     0254  120A  158A  24CF  120A  118A  	fcall	___awmod
  1465     0259  1283               	bcf	3,5	;RP0=0, select bank0
  1466     025A  1303               	bcf	3,6	;RP1=0, select bank0
  1467     025B  0865               	movf	?___awmod+1,w
  1468     025C  1683               	bsf	3,5	;RP0=1, select bank1
  1469     025D  1303               	bcf	3,6	;RP1=0, select bank1
  1470     025E  00B3               	movwf	(adc@b+1)^(0+128)
  1471     025F  1283               	bcf	3,5	;RP0=0, select bank0
  1472     0260  1303               	bcf	3,6	;RP1=0, select bank0
  1473     0261  0864               	movf	?___awmod,w
  1474     0262  1683               	bsf	3,5	;RP0=1, select bank1
  1475     0263  1303               	bcf	3,6	;RP1=0, select bank1
  1476     0264  00B2               	movwf	adc@b^(0+128)
  1477     0265                     i1l1775:
  1478                           
  1479                           ;voltage_divider.c: 57:     lcd(1,48+b);
  1480     0265  3001               	movlw	1
  1481     0266  00A4               	movwf	i1lcd@rs^(0+128)
  1482     0267  3000               	movlw	0
  1483     0268  00A5               	movwf	(i1lcd@rs^(0+128)+1)
  1484     0269  0832               	movf	adc@b^(0+128),w
  1485     026A  3E30               	addlw	48
  1486     026B  00A6               	movwf	i1lcd@data^(0+128)
  1487     026C  120A  158A  245C  120A  118A  	fcall	i1_lcd
  1488     0271                     i1l1777:
  1489                           
  1490                           ;voltage_divider.c: 58:     int c=(dv/10)%10;
  1491     0271  300A               	movlw	10
  1492     0272  1283               	bcf	3,5	;RP0=0, select bank0
  1493     0273  1303               	bcf	3,6	;RP1=0, select bank0
  1494     0274  00E4               	movwf	___awmod@divisor
  1495     0275  3000               	movlw	0
  1496     0276  00E5               	movwf	___awmod@divisor+1
  1497     0277  300A               	movlw	10
  1498     0278  00EB               	movwf	___awdiv@divisor
  1499     0279  3000               	movlw	0
  1500     027A  00EC               	movwf	___awdiv@divisor+1
  1501     027B  1683               	bsf	3,5	;RP0=1, select bank1
  1502     027C  1303               	bcf	3,6	;RP1=0, select bank1
  1503     027D  0846               	movf	(_dv+1)^(0+128),w
  1504     027E  1283               	bcf	3,5	;RP0=0, select bank0
  1505     027F  1303               	bcf	3,6	;RP1=0, select bank0
  1506     0280  00EE               	movwf	___awdiv@dividend+1
  1507     0281  1683               	bsf	3,5	;RP0=1, select bank1
  1508     0282  1303               	bcf	3,6	;RP1=0, select bank1
  1509     0283  0845               	movf	_dv^(0+128),w
  1510     0284  1283               	bcf	3,5	;RP0=0, select bank0
  1511     0285  1303               	bcf	3,6	;RP1=0, select bank0
  1512     0286  00ED               	movwf	___awdiv@dividend
  1513     0287  120A  158A  25A2  120A  118A  	fcall	___awdiv
  1514     028C  1283               	bcf	3,5	;RP0=0, select bank0
  1515     028D  1303               	bcf	3,6	;RP1=0, select bank0
  1516     028E  086C               	movf	?___awdiv+1,w
  1517     028F  00E7               	movwf	___awmod@dividend+1
  1518     0290  086B               	movf	?___awdiv,w
  1519     0291  00E6               	movwf	___awmod@dividend
  1520     0292  120A  158A  24CF  120A  118A  	fcall	___awmod
  1521     0297  1283               	bcf	3,5	;RP0=0, select bank0
  1522     0298  1303               	bcf	3,6	;RP1=0, select bank0
  1523     0299  0865               	movf	?___awmod+1,w
  1524     029A  1683               	bsf	3,5	;RP0=1, select bank1
  1525     029B  1303               	bcf	3,6	;RP1=0, select bank1
  1526     029C  00B5               	movwf	(adc@c+1)^(0+128)
  1527     029D  1283               	bcf	3,5	;RP0=0, select bank0
  1528     029E  1303               	bcf	3,6	;RP1=0, select bank0
  1529     029F  0864               	movf	?___awmod,w
  1530     02A0  1683               	bsf	3,5	;RP0=1, select bank1
  1531     02A1  1303               	bcf	3,6	;RP1=0, select bank1
  1532     02A2  00B4               	movwf	adc@c^(0+128)
  1533     02A3                     i1l1779:
  1534                           
  1535                           ;voltage_divider.c: 59:     lcd(1,48+c);
  1536     02A3  3001               	movlw	1
  1537     02A4  00A4               	movwf	i1lcd@rs^(0+128)
  1538     02A5  3000               	movlw	0
  1539     02A6  00A5               	movwf	(i1lcd@rs^(0+128)+1)
  1540     02A7  0834               	movf	adc@c^(0+128),w
  1541     02A8  3E30               	addlw	48
  1542     02A9  00A6               	movwf	i1lcd@data^(0+128)
  1543     02AA  120A  158A  245C  120A  118A  	fcall	i1_lcd
  1544     02AF                     i1l1781:
  1545                           
  1546                           ;voltage_divider.c: 60:     int d=dv%10;
  1547     02AF  300A               	movlw	10
  1548     02B0  1283               	bcf	3,5	;RP0=0, select bank0
  1549     02B1  1303               	bcf	3,6	;RP1=0, select bank0
  1550     02B2  00E4               	movwf	___awmod@divisor
  1551     02B3  3000               	movlw	0
  1552     02B4  00E5               	movwf	___awmod@divisor+1
  1553     02B5  1683               	bsf	3,5	;RP0=1, select bank1
  1554     02B6  1303               	bcf	3,6	;RP1=0, select bank1
  1555     02B7  0846               	movf	(_dv+1)^(0+128),w
  1556     02B8  1283               	bcf	3,5	;RP0=0, select bank0
  1557     02B9  1303               	bcf	3,6	;RP1=0, select bank0
  1558     02BA  00E7               	movwf	___awmod@dividend+1
  1559     02BB  1683               	bsf	3,5	;RP0=1, select bank1
  1560     02BC  1303               	bcf	3,6	;RP1=0, select bank1
  1561     02BD  0845               	movf	_dv^(0+128),w
  1562     02BE  1283               	bcf	3,5	;RP0=0, select bank0
  1563     02BF  1303               	bcf	3,6	;RP1=0, select bank0
  1564     02C0  00E6               	movwf	___awmod@dividend
  1565     02C1  120A  158A  24CF  120A  118A  	fcall	___awmod
  1566     02C6  1283               	bcf	3,5	;RP0=0, select bank0
  1567     02C7  1303               	bcf	3,6	;RP1=0, select bank0
  1568     02C8  0865               	movf	?___awmod+1,w
  1569     02C9  1683               	bsf	3,5	;RP0=1, select bank1
  1570     02CA  1303               	bcf	3,6	;RP1=0, select bank1
  1571     02CB  00B7               	movwf	(adc@d+1)^(0+128)
  1572     02CC  1283               	bcf	3,5	;RP0=0, select bank0
  1573     02CD  1303               	bcf	3,6	;RP1=0, select bank0
  1574     02CE  0864               	movf	?___awmod,w
  1575     02CF  1683               	bsf	3,5	;RP0=1, select bank1
  1576     02D0  1303               	bcf	3,6	;RP1=0, select bank1
  1577     02D1  00B6               	movwf	adc@d^(0+128)
  1578     02D2                     i1l1783:
  1579                           
  1580                           ;voltage_divider.c: 61:     lcd(1,48+d);
  1581     02D2  3001               	movlw	1
  1582     02D3  00A4               	movwf	i1lcd@rs^(0+128)
  1583     02D4  3000               	movlw	0
  1584     02D5  00A5               	movwf	(i1lcd@rs^(0+128)+1)
  1585     02D6  0836               	movf	adc@d^(0+128),w
  1586     02D7  3E30               	addlw	48
  1587     02D8  00A6               	movwf	i1lcd@data^(0+128)
  1588     02D9  120A  158A  245C  120A  118A  	fcall	i1_lcd
  1589     02DE                     i1l1785:
  1590                           
  1591                           ;voltage_divider.c: 63:     lcd(1,' ');
  1592     02DE  3001               	movlw	1
  1593     02DF  1683               	bsf	3,5	;RP0=1, select bank1
  1594     02E0  1303               	bcf	3,6	;RP1=0, select bank1
  1595     02E1  00A4               	movwf	i1lcd@rs^(0+128)
  1596     02E2  3000               	movlw	0
  1597     02E3  00A5               	movwf	(i1lcd@rs^(0+128)+1)
  1598     02E4  3020               	movlw	32
  1599     02E5  00A6               	movwf	i1lcd@data^(0+128)
  1600     02E6  120A  158A  245C  120A  118A  	fcall	i1_lcd
  1601     02EB                     i1l1787:
  1602                           
  1603                           ;voltage_divider.c: 65:     lcd(0,0xc0);
  1604     02EB  3000               	movlw	0
  1605     02EC  1683               	bsf	3,5	;RP0=1, select bank1
  1606     02ED  1303               	bcf	3,6	;RP1=0, select bank1
  1607     02EE  00A4               	movwf	i1lcd@rs^(0+128)
  1608     02EF  00A5               	movwf	(i1lcd@rs+1)^(0+128)
  1609     02F0  30C0               	movlw	192
  1610     02F1  00A6               	movwf	i1lcd@data^(0+128)
  1611     02F2  120A  158A  245C  120A  118A  	fcall	i1_lcd
  1612     02F7                     i1l1789:
  1613                           
  1614                           ;voltage_divider.c: 66:     lcd(1,48+dvolt);
  1615     02F7  3001               	movlw	1
  1616     02F8  1683               	bsf	3,5	;RP0=1, select bank1
  1617     02F9  1303               	bcf	3,6	;RP1=0, select bank1
  1618     02FA  00A4               	movwf	i1lcd@rs^(0+128)
  1619     02FB  3000               	movlw	0
  1620     02FC  00A5               	movwf	(i1lcd@rs^(0+128)+1)
  1621     02FD  082A               	movf	adc@dvolt^(0+128),w
  1622     02FE  3E30               	addlw	48
  1623     02FF  00A6               	movwf	i1lcd@data^(0+128)
  1624     0300  120A  158A  245C  120A  118A  	fcall	i1_lcd
  1625     0305                     i1l1791:
  1626                           
  1627                           ;voltage_divider.c: 67:     lcd(1,'.');
  1628     0305  3001               	movlw	1
  1629     0306  1683               	bsf	3,5	;RP0=1, select bank1
  1630     0307  1303               	bcf	3,6	;RP1=0, select bank1
  1631     0308  00A4               	movwf	i1lcd@rs^(0+128)
  1632     0309  3000               	movlw	0
  1633     030A  00A5               	movwf	(i1lcd@rs^(0+128)+1)
  1634     030B  302E               	movlw	46
  1635     030C  00A6               	movwf	i1lcd@data^(0+128)
  1636     030D  120A  158A  245C  120A  118A  	fcall	i1_lcd
  1637     0312                     i1l1793:
  1638                           
  1639                           ;voltage_divider.c: 68:     lcd(1,48+dvolt_dec);
  1640     0312  3001               	movlw	1
  1641     0313  1683               	bsf	3,5	;RP0=1, select bank1
  1642     0314  1303               	bcf	3,6	;RP1=0, select bank1
  1643     0315  00A4               	movwf	i1lcd@rs^(0+128)
  1644     0316  3000               	movlw	0
  1645     0317  00A5               	movwf	(i1lcd@rs^(0+128)+1)
  1646     0318  082C               	movf	adc@dvolt_dec^(0+128),w
  1647     0319  3E30               	addlw	48
  1648     031A  00A6               	movwf	i1lcd@data^(0+128)
  1649     031B  120A  158A  245C  120A  118A  	fcall	i1_lcd
  1650     0320                     i1l1795:
  1651                           
  1652                           ;voltage_divider.c: 69:     lcd(1,'V');
  1653     0320  3001               	movlw	1
  1654     0321  1683               	bsf	3,5	;RP0=1, select bank1
  1655     0322  1303               	bcf	3,6	;RP1=0, select bank1
  1656     0323  00A4               	movwf	i1lcd@rs^(0+128)
  1657     0324  3000               	movlw	0
  1658     0325  00A5               	movwf	(i1lcd@rs^(0+128)+1)
  1659     0326  3056               	movlw	86
  1660     0327  00A6               	movwf	i1lcd@data^(0+128)
  1661     0328  120A  158A  245C  120A  118A  	fcall	i1_lcd
  1662     032D                     i1l1797:
  1663                           
  1664                           ;voltage_divider.c: 71:     lcd(1,' ');
  1665     032D  3001               	movlw	1
  1666     032E  1683               	bsf	3,5	;RP0=1, select bank1
  1667     032F  1303               	bcf	3,6	;RP1=0, select bank1
  1668     0330  00A4               	movwf	i1lcd@rs^(0+128)
  1669     0331  3000               	movlw	0
  1670     0332  00A5               	movwf	(i1lcd@rs^(0+128)+1)
  1671     0333  3020               	movlw	32
  1672     0334  00A6               	movwf	i1lcd@data^(0+128)
  1673     0335  120A  158A  245C  120A  118A  	fcall	i1_lcd
  1674     033A                     i1l1799:
  1675                           
  1676                           ;voltage_divider.c: 73:     lcd(1,48+(volt/10));
  1677     033A  3001               	movlw	1
  1678     033B  1683               	bsf	3,5	;RP0=1, select bank1
  1679     033C  1303               	bcf	3,6	;RP1=0, select bank1
  1680     033D  00A4               	movwf	i1lcd@rs^(0+128)
  1681     033E  3000               	movlw	0
  1682     033F  00A5               	movwf	(i1lcd@rs^(0+128)+1)
  1683     0340  300A               	movlw	10
  1684     0341  1283               	bcf	3,5	;RP0=0, select bank0
  1685     0342  1303               	bcf	3,6	;RP1=0, select bank0
  1686     0343  00EB               	movwf	___awdiv@divisor
  1687     0344  3000               	movlw	0
  1688     0345  00EC               	movwf	___awdiv@divisor+1
  1689     0346  1683               	bsf	3,5	;RP0=1, select bank1
  1690     0347  1303               	bcf	3,6	;RP1=0, select bank1
  1691     0348  083B               	movf	(adc@volt+1)^(0+128),w
  1692     0349  1283               	bcf	3,5	;RP0=0, select bank0
  1693     034A  1303               	bcf	3,6	;RP1=0, select bank0
  1694     034B  00EE               	movwf	___awdiv@dividend+1
  1695     034C  1683               	bsf	3,5	;RP0=1, select bank1
  1696     034D  1303               	bcf	3,6	;RP1=0, select bank1
  1697     034E  083A               	movf	adc@volt^(0+128),w
  1698     034F  1283               	bcf	3,5	;RP0=0, select bank0
  1699     0350  1303               	bcf	3,6	;RP1=0, select bank0
  1700     0351  00ED               	movwf	___awdiv@dividend
  1701     0352  120A  158A  25A2  120A  118A  	fcall	___awdiv
  1702     0357  1283               	bcf	3,5	;RP0=0, select bank0
  1703     0358  1303               	bcf	3,6	;RP1=0, select bank0
  1704     0359  086B               	movf	?___awdiv,w
  1705     035A  3E30               	addlw	48
  1706     035B  1683               	bsf	3,5	;RP0=1, select bank1
  1707     035C  1303               	bcf	3,6	;RP1=0, select bank1
  1708     035D  00A6               	movwf	i1lcd@data^(0+128)
  1709     035E  120A  158A  245C  120A  118A  	fcall	i1_lcd
  1710     0363                     i1l1801:
  1711                           
  1712                           ;voltage_divider.c: 74:     lcd(1,48+(volt%10));
  1713     0363  3001               	movlw	1
  1714     0364  1683               	bsf	3,5	;RP0=1, select bank1
  1715     0365  1303               	bcf	3,6	;RP1=0, select bank1
  1716     0366  00A4               	movwf	i1lcd@rs^(0+128)
  1717     0367  3000               	movlw	0
  1718     0368  00A5               	movwf	(i1lcd@rs^(0+128)+1)
  1719     0369  300A               	movlw	10
  1720     036A  1283               	bcf	3,5	;RP0=0, select bank0
  1721     036B  1303               	bcf	3,6	;RP1=0, select bank0
  1722     036C  00E4               	movwf	___awmod@divisor
  1723     036D  3000               	movlw	0
  1724     036E  00E5               	movwf	___awmod@divisor+1
  1725     036F  1683               	bsf	3,5	;RP0=1, select bank1
  1726     0370  1303               	bcf	3,6	;RP1=0, select bank1
  1727     0371  083B               	movf	(adc@volt+1)^(0+128),w
  1728     0372  1283               	bcf	3,5	;RP0=0, select bank0
  1729     0373  1303               	bcf	3,6	;RP1=0, select bank0
  1730     0374  00E7               	movwf	___awmod@dividend+1
  1731     0375  1683               	bsf	3,5	;RP0=1, select bank1
  1732     0376  1303               	bcf	3,6	;RP1=0, select bank1
  1733     0377  083A               	movf	adc@volt^(0+128),w
  1734     0378  1283               	bcf	3,5	;RP0=0, select bank0
  1735     0379  1303               	bcf	3,6	;RP1=0, select bank0
  1736     037A  00E6               	movwf	___awmod@dividend
  1737     037B  120A  158A  24CF  120A  118A  	fcall	___awmod
  1738     0380  1283               	bcf	3,5	;RP0=0, select bank0
  1739     0381  1303               	bcf	3,6	;RP1=0, select bank0
  1740     0382  0864               	movf	?___awmod,w
  1741     0383  3E30               	addlw	48
  1742     0384  1683               	bsf	3,5	;RP0=1, select bank1
  1743     0385  1303               	bcf	3,6	;RP1=0, select bank1
  1744     0386  00A6               	movwf	i1lcd@data^(0+128)
  1745     0387  120A  158A  245C  120A  118A  	fcall	i1_lcd
  1746     038C                     i1l1803:
  1747                           
  1748                           ;voltage_divider.c: 75:     lcd(1,'.');
  1749     038C  3001               	movlw	1
  1750     038D  1683               	bsf	3,5	;RP0=1, select bank1
  1751     038E  1303               	bcf	3,6	;RP1=0, select bank1
  1752     038F  00A4               	movwf	i1lcd@rs^(0+128)
  1753     0390  3000               	movlw	0
  1754     0391  00A5               	movwf	(i1lcd@rs^(0+128)+1)
  1755     0392  302E               	movlw	46
  1756     0393  00A6               	movwf	i1lcd@data^(0+128)
  1757     0394  120A  158A  245C  120A  118A  	fcall	i1_lcd
  1758     0399                     i1l1805:
  1759                           
  1760                           ;voltage_divider.c: 76:     lcd(1,48+volt_dec);
  1761     0399  3001               	movlw	1
  1762     039A  1683               	bsf	3,5	;RP0=1, select bank1
  1763     039B  1303               	bcf	3,6	;RP1=0, select bank1
  1764     039C  00A4               	movwf	i1lcd@rs^(0+128)
  1765     039D  3000               	movlw	0
  1766     039E  00A5               	movwf	(i1lcd@rs^(0+128)+1)
  1767     039F  082E               	movf	adc@volt_dec^(0+128),w
  1768     03A0  3E30               	addlw	48
  1769     03A1  00A6               	movwf	i1lcd@data^(0+128)
  1770     03A2  120A  158A  245C  120A  118A  	fcall	i1_lcd
  1771     03A7                     i1l1807:
  1772                           
  1773                           ;voltage_divider.c: 77:     lcd(1,'V');
  1774     03A7  3001               	movlw	1
  1775     03A8  1683               	bsf	3,5	;RP0=1, select bank1
  1776     03A9  1303               	bcf	3,6	;RP1=0, select bank1
  1777     03AA  00A4               	movwf	i1lcd@rs^(0+128)
  1778     03AB  3000               	movlw	0
  1779     03AC  00A5               	movwf	(i1lcd@rs^(0+128)+1)
  1780     03AD  3056               	movlw	86
  1781     03AE  00A6               	movwf	i1lcd@data^(0+128)
  1782     03AF  120A  158A  245C  120A  118A  	fcall	i1_lcd
  1783     03B4                     i1l55:
  1784     03B4  1683               	bsf	3,5	;RP0=1, select bank1
  1785     03B5  1303               	bcf	3,6	;RP1=0, select bank1
  1786     03B6  0829               	movf	(??_adc+2)^(0+128),w
  1787     03B7  00FF               	movwf	btemp+1
  1788     03B8  0828               	movf	(??_adc+1)^(0+128),w
  1789     03B9  008A               	movwf	10
  1790     03BA  0E27               	swapf	??_adc^(0+128),w
  1791     03BB  0083               	movwf	3
  1792     03BC  0EFE               	swapf	btemp,f
  1793     03BD  0E7E               	swapf	btemp,w
  1794     03BE  0009               	retfie
  1795     03BF                     __end_of_adc:
  1796                           
  1797                           	psect	intentry
  1798     0004                     __pintentry:	
  1799                           ;incstack = 0
  1800                           ; Regs used in _adc: [wreg+status,2+status,0+btemp+1+pclath+cstack]
  1801                           
  1802     0004                     interrupt_function:
  1803     007E                     saved_w	set	btemp
  1804     0004  00FE               	movwf	btemp
  1805     0005  0E03               	swapf	3,w
  1806     0006  1683               	bsf	3,5	;RP0=1, select bank1
  1807     0007  1303               	bcf	3,6	;RP1=0, select bank1
  1808     0008  00A7               	movwf	??_adc^(0+128)
  1809     0009  080A               	movf	10,w
  1810     000A  00A8               	movwf	(??_adc+1)^(0+128)
  1811     000B  087F               	movf	btemp+1,w
  1812     000C  00A9               	movwf	(??_adc+2)^(0+128)
  1813     000D  120A  118A  281B   	ljmp	_adc
  1814                           
  1815                           	psect	text4
  1816     0C5C                     __ptext4:	
  1817 ;; *************** function i1_lcd *****************
  1818 ;; Defined at:
  1819 ;;		line 29 in file "voltage_divider.c"
  1820 ;; Parameters:    Size  Location     Type
  1821 ;;  rs              2    4[BANK1 ] int 
  1822 ;;  data            1    6[BANK1 ] unsigned char 
  1823 ;; Auto vars:     Size  Location     Type
  1824 ;;		None
  1825 ;; Return value:  Size  Location     Type
  1826 ;;                  1    wreg      void 
  1827 ;; Registers used:
  1828 ;;		wreg, status,2, status,0, pclath, cstack
  1829 ;; Tracked objects:
  1830 ;;		On entry : 0/0
  1831 ;;		On exit  : 0/0
  1832 ;;		Unchanged: 0/0
  1833 ;; Data sizes:     COMMON   BANK0   BANK1   BANK3   BANK2
  1834 ;;      Params:         0       0       3       0       0
  1835 ;;      Locals:         0       0       0       0       0
  1836 ;;      Temps:          0       0       0       0       0
  1837 ;;      Totals:         0       0       3       0       0
  1838 ;;Total ram usage:        3 bytes
  1839 ;; Hardware stack levels used: 1
  1840 ;; Hardware stack levels required when called: 1
  1841 ;; This function calls:
  1842 ;;		i1_delay
  1843 ;; This function is called by:
  1844 ;;		_adc
  1845 ;; This function uses a non-reentrant model
  1846 ;;
  1847                           
  1848     0C5C                     i1_lcd:	
  1849                           ;psect for function i1_lcd
  1850                           
  1851     0C5C                     i1l1735:	
  1852                           ;incstack = 0
  1853                           ; Regs used in i1_lcd: [wreg+status,2+status,0+pclath+cstack]
  1854                           
  1855                           
  1856                           ;voltage_divider.c: 29: void lcd(int rs,char data);voltage_divider.c: 30: {;voltage_divi
      +                          der.c: 31:     RE0=rs;
  1857     0C5C  1683               	bsf	3,5	;RP0=1, select bank1
  1858     0C5D  1303               	bcf	3,6	;RP1=0, select bank1
  1859     0C5E  1824               	btfsc	i1lcd@rs^(0+128),0
  1860     0C5F  2C61               	goto	u247_21
  1861     0C60  2C65               	goto	u247_20
  1862     0C61                     u247_21:
  1863     0C61  1283               	bcf	3,5	;RP0=0, select bank0
  1864     0C62  1303               	bcf	3,6	;RP1=0, select bank0
  1865     0C63  1409               	bsf	9,0	;volatile
  1866     0C64  2C68               	goto	u248_24
  1867     0C65                     u247_20:
  1868     0C65  1283               	bcf	3,5	;RP0=0, select bank0
  1869     0C66  1303               	bcf	3,6	;RP1=0, select bank0
  1870     0C67  1009               	bcf	9,0	;volatile
  1871     0C68                     u248_24:
  1872     0C68                     i1l1737:
  1873                           
  1874                           ;voltage_divider.c: 32:     PORTD=data;
  1875     0C68  1683               	bsf	3,5	;RP0=1, select bank1
  1876     0C69  1303               	bcf	3,6	;RP1=0, select bank1
  1877     0C6A  0826               	movf	i1lcd@data^(0+128),w
  1878     0C6B  1283               	bcf	3,5	;RP0=0, select bank0
  1879     0C6C  1303               	bcf	3,6	;RP1=0, select bank0
  1880     0C6D  0088               	movwf	8	;volatile
  1881     0C6E                     i1l1739:
  1882                           
  1883                           ;voltage_divider.c: 33:     RE1=1;
  1884     0C6E  1489               	bsf	9,1	;volatile
  1885     0C6F                     i1l1741:
  1886                           
  1887                           ;voltage_divider.c: 34:     delay(100);
  1888     0C6F  3064               	movlw	100
  1889     0C70  00F0               	movwf	i1delay@t
  1890     0C71  3000               	movlw	0
  1891     0C72  00F1               	movwf	i1delay@t+1
  1892     0C73  120A  158A  23FF  120A  158A  	fcall	i1_delay
  1893     0C78                     i1l1743:
  1894                           
  1895                           ;voltage_divider.c: 35:     RE1=0;
  1896     0C78  1283               	bcf	3,5	;RP0=0, select bank0
  1897     0C79  1303               	bcf	3,6	;RP1=0, select bank0
  1898     0C7A  1089               	bcf	9,1	;volatile
  1899     0C7B                     i1l1745:
  1900                           
  1901                           ;voltage_divider.c: 36:     delay(100);
  1902     0C7B  3064               	movlw	100
  1903     0C7C  00F0               	movwf	i1delay@t
  1904     0C7D  3000               	movlw	0
  1905     0C7E  00F1               	movwf	i1delay@t+1
  1906     0C7F  120A  158A  23FF  120A  158A  	fcall	i1_delay
  1907     0C84                     i1l49:
  1908     0C84  0008               	return
  1909     0C85                     __end_ofi1_lcd:
  1910                           
  1911                           	psect	text5
  1912     0BFF                     __ptext5:	
  1913 ;; *************** function i1_delay *****************
  1914 ;; Defined at:
  1915 ;;		line 24 in file "voltage_divider.c"
  1916 ;; Parameters:    Size  Location     Type
  1917 ;;  t               2    0[COMMON] int 
  1918 ;; Auto vars:     Size  Location     Type
  1919 ;;		None
  1920 ;; Return value:  Size  Location     Type
  1921 ;;                  1    wreg      void 
  1922 ;; Registers used:
  1923 ;;		wreg, status,2, status,0
  1924 ;; Tracked objects:
  1925 ;;		On entry : 0/0
  1926 ;;		On exit  : 0/0
  1927 ;;		Unchanged: 0/0
  1928 ;; Data sizes:     COMMON   BANK0   BANK1   BANK3   BANK2
  1929 ;;      Params:         2       0       0       0       0
  1930 ;;      Locals:         0       0       0       0       0
  1931 ;;      Temps:          0       0       0       0       0
  1932 ;;      Totals:         2       0       0       0       0
  1933 ;;Total ram usage:        2 bytes
  1934 ;; Hardware stack levels used: 1
  1935 ;; This function calls:
  1936 ;;		Nothing
  1937 ;; This function is called by:
  1938 ;;		i1_lcd
  1939 ;; This function uses a non-reentrant model
  1940 ;;
  1941                           
  1942     0BFF                     i1_delay:	
  1943                           ;psect for function i1_delay
  1944                           
  1945     0BFF                     i1l1261:	
  1946                           ;incstack = 0
  1947                           ; Regs used in i1_delay: [wreg+status,2+status,0]
  1948                           
  1949     0BFF                     i1l1263:	
  1950                           ;voltage_divider.c: 24: void delay(int t);voltage_divider.c: 25: {;voltage_divider.c: 26
      +                          :     while(t--);
  1951                           
  1952     0BFF  30FF               	movlw	255
  1953     0C00  07F0               	addwf	i1delay@t,f
  1954     0C01  1803               	skipnc
  1955     0C02  0AF1               	incf	i1delay@t+1,f
  1956     0C03  30FF               	movlw	255
  1957     0C04  07F1               	addwf	i1delay@t+1,f
  1958     0C05  0A70               	incf	i1delay@t,w
  1959     0C06  1D03               	skipz
  1960     0C07  2C0C               	goto	u131_21
  1961     0C08  0A71               	incf	i1delay@t+1,w
  1962     0C09  1D03               	btfss	3,2
  1963     0C0A  2C0C               	goto	u131_21
  1964     0C0B  2C0D               	goto	u131_20
  1965     0C0C                     u131_21:
  1966     0C0C  2BFF               	goto	i1l1263
  1967     0C0D                     u131_20:
  1968     0C0D                     i1l46:
  1969     0C0D  0008               	return
  1970     0C0E                     __end_ofi1_delay:
  1971                           
  1972                           	psect	text6
  1973     0704                     __ptext6:	
  1974 ;; *************** function ___xxtofl *****************
  1975 ;; Defined at:
  1976 ;;		line 10 in file "C:\Program Files\Microchip\xc8\v2.40\pic\sources\c90\common\xxtofl.c"
  1977 ;; Parameters:    Size  Location     Type
  1978 ;;  sign            1    wreg     unsigned char 
  1979 ;;  val             4    0[COMMON] long 
  1980 ;; Auto vars:     Size  Location     Type
  1981 ;;  sign            1    8[COMMON] unsigned char 
  1982 ;;  arg             4   10[COMMON] unsigned long 
  1983 ;;  exp             1    9[COMMON] unsigned char 
  1984 ;; Return value:  Size  Location     Type
  1985 ;;                  4    0[COMMON] unsigned char 
  1986 ;; Registers used:
  1987 ;;		wreg, status,2, status,0
  1988 ;; Tracked objects:
  1989 ;;		On entry : 0/0
  1990 ;;		On exit  : 0/0
  1991 ;;		Unchanged: 0/0
  1992 ;; Data sizes:     COMMON   BANK0   BANK1   BANK3   BANK2
  1993 ;;      Params:         4       0       0       0       0
  1994 ;;      Locals:         6       0       0       0       0
  1995 ;;      Temps:          4       0       0       0       0
  1996 ;;      Totals:        14       0       0       0       0
  1997 ;;Total ram usage:       14 bytes
  1998 ;; Hardware stack levels used: 1
  1999 ;; This function calls:
  2000 ;;		Nothing
  2001 ;; This function is called by:
  2002 ;;		_adc
  2003 ;; This function uses a non-reentrant model
  2004 ;;
  2005                           
  2006     0704                     ___xxtofl:	
  2007                           ;psect for function ___xxtofl
  2008                           
  2009                           
  2010                           ;incstack = 0
  2011                           ; Regs used in ___xxtofl: [wreg+status,2+status,0]
  2012                           ;___xxtofl@sign stored from wreg
  2013     0704  00F8               	movwf	___xxtofl@sign
  2014     0705                     i1l1691:
  2015     0705  0878               	movf	___xxtofl@sign,w
  2016     0706  1903               	btfsc	3,2
  2017     0707  2F09               	goto	u233_21
  2018     0708  2F0A               	goto	u233_20
  2019     0709                     u233_21:
  2020     0709  2F1E               	goto	i1l1697
  2021     070A                     u233_20:
  2022     070A                     i1l1693:
  2023     070A  1FF3               	btfss	___xxtofl@val+3,7
  2024     070B  2F0D               	goto	u234_21
  2025     070C  2F0E               	goto	u234_20
  2026     070D                     u234_21:
  2027     070D  2F1E               	goto	i1l1697
  2028     070E                     u234_20:
  2029     070E                     i1l1695:
  2030     070E  0970               	comf	___xxtofl@val,w
  2031     070F  00FA               	movwf	___xxtofl@arg
  2032     0710  0971               	comf	___xxtofl@val+1,w
  2033     0711  00FB               	movwf	___xxtofl@arg+1
  2034     0712  0972               	comf	___xxtofl@val+2,w
  2035     0713  00FC               	movwf	___xxtofl@arg+2
  2036     0714  0973               	comf	___xxtofl@val+3,w
  2037     0715  00FD               	movwf	___xxtofl@arg+3
  2038     0716  0AFA               	incf	___xxtofl@arg,f
  2039     0717  1903               	skipnz
  2040     0718  0AFB               	incf	___xxtofl@arg+1,f
  2041     0719  1903               	skipnz
  2042     071A  0AFC               	incf	___xxtofl@arg+2,f
  2043     071B  1903               	skipnz
  2044     071C  0AFD               	incf	___xxtofl@arg+3,f
  2045     071D  2F26               	goto	i1l582
  2046     071E                     i1l1697:
  2047     071E  0873               	movf	___xxtofl@val+3,w
  2048     071F  00FD               	movwf	___xxtofl@arg+3
  2049     0720  0872               	movf	___xxtofl@val+2,w
  2050     0721  00FC               	movwf	___xxtofl@arg+2
  2051     0722  0871               	movf	___xxtofl@val+1,w
  2052     0723  00FB               	movwf	___xxtofl@arg+1
  2053     0724  0870               	movf	___xxtofl@val,w
  2054     0725  00FA               	movwf	___xxtofl@arg
  2055     0726                     i1l582:
  2056     0726  0873               	movf	___xxtofl@val+3,w
  2057     0727  0472               	iorwf	___xxtofl@val+2,w
  2058     0728  0471               	iorwf	___xxtofl@val+1,w
  2059     0729  0470               	iorwf	___xxtofl@val,w
  2060     072A  1D03               	skipz
  2061     072B  2F2D               	goto	u235_21
  2062     072C  2F2E               	goto	u235_20
  2063     072D                     u235_21:
  2064     072D  2F37               	goto	i1l1703
  2065     072E                     u235_20:
  2066     072E                     i1l1699:
  2067     072E  3000               	movlw	0
  2068     072F  00F3               	movwf	?___xxtofl+3
  2069     0730  3000               	movlw	0
  2070     0731  00F2               	movwf	?___xxtofl+2
  2071     0732  3000               	movlw	0
  2072     0733  00F1               	movwf	?___xxtofl+1
  2073     0734  3000               	movlw	0
  2074     0735  00F0               	movwf	?___xxtofl
  2075     0736  2FBB               	goto	i1l584
  2076     0737                     i1l1703:
  2077     0737  3096               	movlw	150
  2078     0738  00F9               	movwf	___xxtofl@exp
  2079     0739  2F47               	goto	i1l1707
  2080     073A                     i1l1705:
  2081     073A  3001               	movlw	1
  2082     073B  00F4               	movwf	??___xxtofl
  2083     073C  0874               	movf	??___xxtofl,w
  2084     073D  07F9               	addwf	___xxtofl@exp,f
  2085     073E  3001               	movlw	1
  2086     073F                     u236_25:
  2087     073F  1003               	clrc
  2088     0740  0CFD               	rrf	___xxtofl@arg+3,f
  2089     0741  0CFC               	rrf	___xxtofl@arg+2,f
  2090     0742  0CFB               	rrf	___xxtofl@arg+1,f
  2091     0743  0CFA               	rrf	___xxtofl@arg,f
  2092     0744  3EFF               	addlw	-1
  2093     0745  1D03               	skipz
  2094     0746  2F3F               	goto	u236_25
  2095     0747                     i1l1707:
  2096     0747  30FE               	movlw	254
  2097     0748  057D               	andwf	___xxtofl@arg+3,w
  2098     0749  1D03               	btfss	3,2
  2099     074A  2F4C               	goto	u237_21
  2100     074B  2F4D               	goto	u237_20
  2101     074C                     u237_21:
  2102     074C  2F3A               	goto	i1l1705
  2103     074D                     u237_20:
  2104     074D  2F69               	goto	i1l588
  2105     074E                     i1l1709:
  2106     074E  3001               	movlw	1
  2107     074F  00F4               	movwf	??___xxtofl
  2108     0750  0874               	movf	??___xxtofl,w
  2109     0751  07F9               	addwf	___xxtofl@exp,f
  2110     0752                     i1l1711:
  2111     0752  3001               	movlw	1
  2112     0753  07FA               	addwf	___xxtofl@arg,f
  2113     0754  3000               	movlw	0
  2114     0755  1803               	skipnc
  2115     0756  3001               	movlw	1
  2116     0757  07FB               	addwf	___xxtofl@arg+1,f
  2117     0758  3000               	movlw	0
  2118     0759  1803               	skipnc
  2119     075A  3001               	movlw	1
  2120     075B  07FC               	addwf	___xxtofl@arg+2,f
  2121     075C  3000               	movlw	0
  2122     075D  1803               	skipnc
  2123     075E  3001               	movlw	1
  2124     075F  07FD               	addwf	___xxtofl@arg+3,f
  2125     0760                     i1l1713:
  2126     0760  3001               	movlw	1
  2127     0761                     u238_25:
  2128     0761  1003               	clrc
  2129     0762  0CFD               	rrf	___xxtofl@arg+3,f
  2130     0763  0CFC               	rrf	___xxtofl@arg+2,f
  2131     0764  0CFB               	rrf	___xxtofl@arg+1,f
  2132     0765  0CFA               	rrf	___xxtofl@arg,f
  2133     0766  3EFF               	addlw	-1
  2134     0767  1D03               	skipz
  2135     0768  2F61               	goto	u238_25
  2136     0769                     i1l588:
  2137     0769  30FF               	movlw	255
  2138     076A  057D               	andwf	___xxtofl@arg+3,w
  2139     076B  1D03               	btfss	3,2
  2140     076C  2F6E               	goto	u239_21
  2141     076D  2F6F               	goto	u239_20
  2142     076E                     u239_21:
  2143     076E  2F4E               	goto	i1l1709
  2144     076F                     u239_20:
  2145     076F  2F7B               	goto	i1l1717
  2146     0770                     i1l1715:
  2147     0770  3001               	movlw	1
  2148     0771  02F9               	subwf	___xxtofl@exp,f
  2149     0772  3001               	movlw	1
  2150     0773  00F4               	movwf	??___xxtofl
  2151     0774                     u240_25:
  2152     0774  1003               	clrc
  2153     0775  0DFA               	rlf	___xxtofl@arg,f
  2154     0776  0DFB               	rlf	___xxtofl@arg+1,f
  2155     0777  0DFC               	rlf	___xxtofl@arg+2,f
  2156     0778  0DFD               	rlf	___xxtofl@arg+3,f
  2157     0779  0BF4               	decfsz	??___xxtofl,f
  2158     077A  2F74               	goto	u240_25
  2159     077B                     i1l1717:
  2160     077B  1BFC               	btfsc	___xxtofl@arg+2,7
  2161     077C  2F7E               	goto	u241_21
  2162     077D  2F7F               	goto	u241_20
  2163     077E                     u241_21:
  2164     077E  2F85               	goto	i1l595
  2165     077F                     u241_20:
  2166     077F                     i1l1719:
  2167     077F  3002               	movlw	2
  2168     0780  0279               	subwf	___xxtofl@exp,w
  2169     0781  1803               	skipnc
  2170     0782  2F84               	goto	u242_21
  2171     0783  2F85               	goto	u242_20
  2172     0784                     u242_21:
  2173     0784  2F70               	goto	i1l1715
  2174     0785                     u242_20:
  2175     0785                     i1l595:
  2176     0785  1879               	btfsc	___xxtofl@exp,0
  2177     0786  2F88               	goto	u243_21
  2178     0787  2F89               	goto	u243_20
  2179     0788                     u243_21:
  2180     0788  2F91               	goto	i1l596
  2181     0789                     u243_20:
  2182     0789                     i1l1721:
  2183     0789  30FF               	movlw	255
  2184     078A  05FA               	andwf	___xxtofl@arg,f
  2185     078B  30FF               	movlw	255
  2186     078C  05FB               	andwf	___xxtofl@arg+1,f
  2187     078D  307F               	movlw	127
  2188     078E  05FC               	andwf	___xxtofl@arg+2,f
  2189     078F  30FF               	movlw	255
  2190     0790  05FD               	andwf	___xxtofl@arg+3,f
  2191     0791                     i1l596:
  2192     0791  1003               	clrc
  2193     0792  0CF9               	rrf	___xxtofl@exp,f
  2194     0793                     i1l1723:
  2195     0793  0879               	movf	___xxtofl@exp,w
  2196     0794  00F4               	movwf	??___xxtofl
  2197     0795  01F5               	clrf	??___xxtofl+1
  2198     0796  01F6               	clrf	??___xxtofl+2
  2199     0797  01F7               	clrf	??___xxtofl+3
  2200     0798  3018               	movlw	24
  2201     0799                     u244_25:
  2202     0799  1003               	clrc
  2203     079A  0DF4               	rlf	??___xxtofl,f
  2204     079B  0DF5               	rlf	??___xxtofl+1,f
  2205     079C  0DF6               	rlf	??___xxtofl+2,f
  2206     079D  0DF7               	rlf	??___xxtofl+3,f
  2207     079E                     u244_20:
  2208     079E  3EFF               	addlw	-1
  2209     079F  1D03               	skipz
  2210     07A0  2F99               	goto	u244_25
  2211     07A1  0874               	movf	??___xxtofl,w
  2212     07A2  04FA               	iorwf	___xxtofl@arg,f
  2213     07A3  0875               	movf	??___xxtofl+1,w
  2214     07A4  04FB               	iorwf	___xxtofl@arg+1,f
  2215     07A5  0876               	movf	??___xxtofl+2,w
  2216     07A6  04FC               	iorwf	___xxtofl@arg+2,f
  2217     07A7  0877               	movf	??___xxtofl+3,w
  2218     07A8  04FD               	iorwf	___xxtofl@arg+3,f
  2219     07A9                     i1l1725:
  2220     07A9  0878               	movf	___xxtofl@sign,w
  2221     07AA  1903               	btfsc	3,2
  2222     07AB  2FAD               	goto	u245_21
  2223     07AC  2FAE               	goto	u245_20
  2224     07AD                     u245_21:
  2225     07AD  2FB3               	goto	i1l1731
  2226     07AE                     u245_20:
  2227     07AE                     i1l1727:
  2228     07AE  1FF3               	btfss	___xxtofl@val+3,7
  2229     07AF  2FB1               	goto	u246_21
  2230     07B0  2FB2               	goto	u246_20
  2231     07B1                     u246_21:
  2232     07B1  2FB3               	goto	i1l1731
  2233     07B2                     u246_20:
  2234     07B2                     i1l1729:
  2235     07B2  17FD               	bsf	___xxtofl@arg+3,7
  2236     07B3                     i1l1731:
  2237     07B3  087D               	movf	___xxtofl@arg+3,w
  2238     07B4  00F3               	movwf	?___xxtofl+3
  2239     07B5  087C               	movf	___xxtofl@arg+2,w
  2240     07B6  00F2               	movwf	?___xxtofl+2
  2241     07B7  087B               	movf	___xxtofl@arg+1,w
  2242     07B8  00F1               	movwf	?___xxtofl+1
  2243     07B9  087A               	movf	___xxtofl@arg,w
  2244     07BA  00F0               	movwf	?___xxtofl
  2245     07BB                     i1l584:
  2246     07BB  0008               	return
  2247     07BC                     __end_of___xxtofl:
  2248                           
  2249                           	psect	text7
  2250     0C35                     __ptext7:	
  2251 ;; *************** function ___wmul *****************
  2252 ;; Defined at:
  2253 ;;		line 15 in file "C:\Program Files\Microchip\xc8\v2.40\pic\sources\c90\common\Umul16.c"
  2254 ;; Parameters:    Size  Location     Type
  2255 ;;  multiplier      2   62[BANK0 ] unsigned int 
  2256 ;;  multiplicand    2   64[BANK0 ] unsigned int 
  2257 ;; Auto vars:     Size  Location     Type
  2258 ;;  product         2   66[BANK0 ] unsigned int 
  2259 ;; Return value:  Size  Location     Type
  2260 ;;                  2   62[BANK0 ] unsigned int 
  2261 ;; Registers used:
  2262 ;;		wreg, status,2, status,0
  2263 ;; Tracked objects:
  2264 ;;		On entry : 0/0
  2265 ;;		On exit  : 0/0
  2266 ;;		Unchanged: 0/0
  2267 ;; Data sizes:     COMMON   BANK0   BANK1   BANK3   BANK2
  2268 ;;      Params:         0       4       0       0       0
  2269 ;;      Locals:         0       2       0       0       0
  2270 ;;      Temps:          0       0       0       0       0
  2271 ;;      Totals:         0       6       0       0       0
  2272 ;;Total ram usage:        6 bytes
  2273 ;; Hardware stack levels used: 1
  2274 ;; This function calls:
  2275 ;;		Nothing
  2276 ;; This function is called by:
  2277 ;;		_adc
  2278 ;; This function uses a non-reentrant model
  2279 ;;
  2280                           
  2281     0C35                     ___wmul:	
  2282                           ;psect for function ___wmul
  2283                           
  2284     0C35                     i1l1277:	
  2285                           ;incstack = 0
  2286                           ; Regs used in ___wmul: [wreg+status,2+status,0]
  2287                           
  2288     0C35  1283               	bcf	3,5	;RP0=0, select bank0
  2289     0C36  1303               	bcf	3,6	;RP1=0, select bank0
  2290     0C37  01E2               	clrf	___wmul@product
  2291     0C38  01E3               	clrf	___wmul@product+1
  2292     0C39                     i1l1279:
  2293     0C39  1C5E               	btfss	___wmul@multiplier,0
  2294     0C3A  2C3C               	goto	u134_21
  2295     0C3B  2C3D               	goto	u134_20
  2296     0C3C                     u134_21:
  2297     0C3C  2C43               	goto	i1l149
  2298     0C3D                     u134_20:
  2299     0C3D                     i1l1281:
  2300     0C3D  0860               	movf	___wmul@multiplicand,w
  2301     0C3E  07E2               	addwf	___wmul@product,f
  2302     0C3F  1803               	skipnc
  2303     0C40  0AE3               	incf	___wmul@product+1,f
  2304     0C41  0861               	movf	___wmul@multiplicand+1,w
  2305     0C42  07E3               	addwf	___wmul@product+1,f
  2306     0C43                     i1l149:
  2307     0C43  3001               	movlw	1
  2308     0C44                     u135_25:
  2309     0C44  1003               	clrc
  2310     0C45  0DE0               	rlf	___wmul@multiplicand,f
  2311     0C46  0DE1               	rlf	___wmul@multiplicand+1,f
  2312     0C47  3EFF               	addlw	-1
  2313     0C48  1D03               	skipz
  2314     0C49  2C44               	goto	u135_25
  2315     0C4A                     i1l1283:
  2316     0C4A  3001               	movlw	1
  2317     0C4B                     u136_25:
  2318     0C4B  1003               	clrc
  2319     0C4C  0CDF               	rrf	___wmul@multiplier+1,f
  2320     0C4D  0CDE               	rrf	___wmul@multiplier,f
  2321     0C4E  3EFF               	addlw	-1
  2322     0C4F  1D03               	skipz
  2323     0C50  2C4B               	goto	u136_25
  2324     0C51                     i1l1285:
  2325     0C51  085E               	movf	___wmul@multiplier,w
  2326     0C52  045F               	iorwf	___wmul@multiplier+1,w
  2327     0C53  1D03               	btfss	3,2
  2328     0C54  2C56               	goto	u137_21
  2329     0C55  2C57               	goto	u137_20
  2330     0C56                     u137_21:
  2331     0C56  2C39               	goto	i1l1279
  2332     0C57                     u137_20:
  2333     0C57                     i1l1287:
  2334     0C57  0863               	movf	___wmul@product+1,w
  2335     0C58  00DF               	movwf	?___wmul+1
  2336     0C59  0862               	movf	___wmul@product,w
  2337     0C5A  00DE               	movwf	?___wmul
  2338     0C5B                     i1l151:
  2339     0C5B  0008               	return
  2340     0C5C                     __end_of___wmul:
  2341                           
  2342                           	psect	text8
  2343     0D2A                     __ptext8:	
  2344 ;; *************** function ___fltol *****************
  2345 ;; Defined at:
  2346 ;;		line 43 in file "C:\Program Files\Microchip\xc8\v2.40\pic\sources\c90\common\fltol.c"
  2347 ;; Parameters:    Size  Location     Type
  2348 ;;  f1              4   52[BANK0 ] unsigned int 
  2349 ;; Auto vars:     Size  Location     Type
  2350 ;;  exp1            1   61[BANK0 ] unsigned char 
  2351 ;;  sign1           1   60[BANK0 ] unsigned char 
  2352 ;; Return value:  Size  Location     Type
  2353 ;;                  4   52[BANK0 ] long 
  2354 ;; Registers used:
  2355 ;;		wreg, status,2, status,0
  2356 ;; Tracked objects:
  2357 ;;		On entry : 0/0
  2358 ;;		On exit  : 0/0
  2359 ;;		Unchanged: 0/0
  2360 ;; Data sizes:     COMMON   BANK0   BANK1   BANK3   BANK2
  2361 ;;      Params:         0       4       0       0       0
  2362 ;;      Locals:         0       2       0       0       0
  2363 ;;      Temps:          0       4       0       0       0
  2364 ;;      Totals:         0      10       0       0       0
  2365 ;;Total ram usage:       10 bytes
  2366 ;; Hardware stack levels used: 1
  2367 ;; This function calls:
  2368 ;;		Nothing
  2369 ;; This function is called by:
  2370 ;;		_adc
  2371 ;; This function uses a non-reentrant model
  2372 ;;
  2373                           
  2374     0D2A                     ___fltol:	
  2375                           ;psect for function ___fltol
  2376                           
  2377     0D2A                     i1l1373:	
  2378                           ;incstack = 0
  2379                           ; Regs used in ___fltol: [wreg+status,2+status,0]
  2380                           
  2381     0D2A  1003               	clrc
  2382     0D2B  1283               	bcf	3,5	;RP0=0, select bank0
  2383     0D2C  1303               	bcf	3,6	;RP1=0, select bank0
  2384     0D2D  0D56               	rlf	___fltol@f1+2,w
  2385     0D2E  0D57               	rlf	___fltol@f1+3,w
  2386     0D2F  00DD               	movwf	___fltol@exp1
  2387     0D30  085D               	movf	___fltol@exp1,w
  2388     0D31  1D03               	btfss	3,2
  2389     0D32  2D34               	goto	u157_21
  2390     0D33  2D35               	goto	u157_20
  2391     0D34                     u157_21:
  2392     0D34  2D3E               	goto	i1l1379
  2393     0D35                     u157_20:
  2394     0D35                     i1l1375:
  2395     0D35  3000               	movlw	0
  2396     0D36  00D7               	movwf	?___fltol+3
  2397     0D37  3000               	movlw	0
  2398     0D38  00D6               	movwf	?___fltol+2
  2399     0D39  3000               	movlw	0
  2400     0D3A  00D5               	movwf	?___fltol+1
  2401     0D3B  3000               	movlw	0
  2402     0D3C  00D4               	movwf	?___fltol
  2403     0D3D  2DA1               	goto	i1l335
  2404     0D3E                     i1l1379:
  2405     0D3E  0854               	movf	___fltol@f1,w
  2406     0D3F  00D8               	movwf	??___fltol
  2407     0D40  0855               	movf	___fltol@f1+1,w
  2408     0D41  00D9               	movwf	??___fltol+1
  2409     0D42  0856               	movf	___fltol@f1+2,w
  2410     0D43  00DA               	movwf	??___fltol+2
  2411     0D44  0857               	movf	___fltol@f1+3,w
  2412     0D45  00DB               	movwf	??___fltol+3
  2413     0D46  301F               	movlw	31
  2414     0D47                     u158_25:
  2415     0D47  1003               	clrc
  2416     0D48  0CDB               	rrf	??___fltol+3,f
  2417     0D49  0CDA               	rrf	??___fltol+2,f
  2418     0D4A  0CD9               	rrf	??___fltol+1,f
  2419     0D4B  0CD8               	rrf	??___fltol,f
  2420     0D4C                     u158_20:
  2421     0D4C  3EFF               	addlw	-1
  2422     0D4D  1D03               	skipz
  2423     0D4E  2D47               	goto	u158_25
  2424     0D4F  0858               	movf	??___fltol,w
  2425     0D50  00DC               	movwf	___fltol@sign1
  2426     0D51                     i1l1381:
  2427     0D51  17D6               	bsf	___fltol@f1+2,7
  2428     0D52                     i1l1383:
  2429     0D52  30FF               	movlw	255
  2430     0D53  05D4               	andwf	___fltol@f1,f
  2431     0D54  30FF               	movlw	255
  2432     0D55  05D5               	andwf	___fltol@f1+1,f
  2433     0D56  30FF               	movlw	255
  2434     0D57  05D6               	andwf	___fltol@f1+2,f
  2435     0D58  3000               	movlw	0
  2436     0D59  05D7               	andwf	___fltol@f1+3,f
  2437     0D5A                     i1l1385:
  2438     0D5A  3096               	movlw	150
  2439     0D5B  02DD               	subwf	___fltol@exp1,f
  2440     0D5C                     i1l1387:
  2441     0D5C  1FDD               	btfss	___fltol@exp1,7
  2442     0D5D  2D5F               	goto	u159_21
  2443     0D5E  2D60               	goto	u159_20
  2444     0D5F                     u159_21:
  2445     0D5F  2D7A               	goto	i1l1397
  2446     0D60                     u159_20:
  2447     0D60                     i1l1389:
  2448     0D60  085D               	movf	___fltol@exp1,w
  2449     0D61  3A80               	xorlw	128
  2450     0D62  3E97               	addlw	151
  2451     0D63  1803               	skipnc
  2452     0D64  2D66               	goto	u160_21
  2453     0D65  2D67               	goto	u160_20
  2454     0D66                     u160_21:
  2455     0D66  2D68               	goto	i1l1395
  2456     0D67                     u160_20:
  2457     0D67  2D35               	goto	i1l1375
  2458     0D68                     i1l1395:
  2459     0D68  3001               	movlw	1
  2460     0D69                     u161_25:
  2461     0D69  1003               	clrc
  2462     0D6A  0CD7               	rrf	___fltol@f1+3,f
  2463     0D6B  0CD6               	rrf	___fltol@f1+2,f
  2464     0D6C  0CD5               	rrf	___fltol@f1+1,f
  2465     0D6D  0CD4               	rrf	___fltol@f1,f
  2466     0D6E  3EFF               	addlw	-1
  2467     0D6F  1D03               	skipz
  2468     0D70  2D69               	goto	u161_25
  2469     0D71  3001               	movlw	1
  2470     0D72  00D8               	movwf	??___fltol
  2471     0D73  0858               	movf	??___fltol,w
  2472     0D74  07DD               	addwf	___fltol@exp1,f
  2473     0D75  1D03               	btfss	3,2
  2474     0D76  2D78               	goto	u162_21
  2475     0D77  2D79               	goto	u162_20
  2476     0D78                     u162_21:
  2477     0D78  2D68               	goto	i1l1395
  2478     0D79                     u162_20:
  2479     0D79  2D91               	goto	i1l1405
  2480     0D7A                     i1l1397:
  2481     0D7A  3020               	movlw	32
  2482     0D7B  025D               	subwf	___fltol@exp1,w
  2483     0D7C  1C03               	skipc
  2484     0D7D  2D7F               	goto	u163_21
  2485     0D7E  2D80               	goto	u163_20
  2486     0D7F                     u163_21:
  2487     0D7F  2D8C               	goto	i1l342
  2488     0D80                     u163_20:
  2489     0D80  2D35               	goto	i1l1375
  2490     0D81                     i1l1403:
  2491     0D81  3001               	movlw	1
  2492     0D82  00D8               	movwf	??___fltol
  2493     0D83                     u164_25:
  2494     0D83  1003               	clrc
  2495     0D84  0DD4               	rlf	___fltol@f1,f
  2496     0D85  0DD5               	rlf	___fltol@f1+1,f
  2497     0D86  0DD6               	rlf	___fltol@f1+2,f
  2498     0D87  0DD7               	rlf	___fltol@f1+3,f
  2499     0D88  0BD8               	decfsz	??___fltol,f
  2500     0D89  2D83               	goto	u164_25
  2501     0D8A  3001               	movlw	1
  2502     0D8B  02DD               	subwf	___fltol@exp1,f
  2503     0D8C                     i1l342:
  2504     0D8C  085D               	movf	___fltol@exp1,w
  2505     0D8D  1D03               	btfss	3,2
  2506     0D8E  2D90               	goto	u165_21
  2507     0D8F  2D91               	goto	u165_20
  2508     0D90                     u165_21:
  2509     0D90  2D81               	goto	i1l1403
  2510     0D91                     u165_20:
  2511     0D91                     i1l1405:
  2512     0D91  085C               	movf	___fltol@sign1,w
  2513     0D92  1903               	btfsc	3,2
  2514     0D93  2D95               	goto	u166_21
  2515     0D94  2D96               	goto	u166_20
  2516     0D95                     u166_21:
  2517     0D95  2DA1               	goto	i1l345
  2518     0D96                     u166_20:
  2519     0D96                     i1l1407:
  2520     0D96  09D4               	comf	___fltol@f1,f
  2521     0D97  09D5               	comf	___fltol@f1+1,f
  2522     0D98  09D6               	comf	___fltol@f1+2,f
  2523     0D99  09D7               	comf	___fltol@f1+3,f
  2524     0D9A  0AD4               	incf	___fltol@f1,f
  2525     0D9B  1903               	skipnz
  2526     0D9C  0AD5               	incf	___fltol@f1+1,f
  2527     0D9D  1903               	skipnz
  2528     0D9E  0AD6               	incf	___fltol@f1+2,f
  2529     0D9F  1903               	skipnz
  2530     0DA0  0AD7               	incf	___fltol@f1+3,f
  2531     0DA1                     i1l345:
  2532     0DA1                     i1l335:
  2533     0DA1  0008               	return
  2534     0DA2                     __end_of___fltol:
  2535                           
  2536                           	psect	text9
  2537     03BF                     __ptext9:	
  2538 ;; *************** function ___flmul *****************
  2539 ;; Defined at:
  2540 ;;		line 8 in file "C:\Program Files\Microchip\xc8\v2.40\pic\sources\c90\common\sprcmul.c"
  2541 ;; Parameters:    Size  Location     Type
  2542 ;;  b               4    0[BANK0 ] long 
  2543 ;;  a               4    4[BANK0 ] long 
  2544 ;; Auto vars:     Size  Location     Type
  2545 ;;  prod            4   20[BANK0 ] struct .
  2546 ;;  grs             4   14[BANK0 ] unsigned long 
  2547 ;;  temp            2   24[BANK0 ] struct .
  2548 ;;  bexp            1   19[BANK0 ] unsigned char 
  2549 ;;  aexp            1   18[BANK0 ] unsigned char 
  2550 ;;  sign            1   13[BANK0 ] unsigned char 
  2551 ;; Return value:  Size  Location     Type
  2552 ;;                  4    0[BANK0 ] unsigned char 
  2553 ;; Registers used:
  2554 ;;		wreg, status,2, status,0, btemp+1, pclath, cstack
  2555 ;; Tracked objects:
  2556 ;;		On entry : 0/0
  2557 ;;		On exit  : 0/0
  2558 ;;		Unchanged: 0/0
  2559 ;; Data sizes:     COMMON   BANK0   BANK1   BANK3   BANK2
  2560 ;;      Params:         0       8       0       0       0
  2561 ;;      Locals:         0      13       0       0       0
  2562 ;;      Temps:          0       5       0       0       0
  2563 ;;      Totals:         0      26       0       0       0
  2564 ;;Total ram usage:       26 bytes
  2565 ;; Hardware stack levels used: 1
  2566 ;; Hardware stack levels required when called: 1
  2567 ;; This function calls:
  2568 ;;		__Umul8_16
  2569 ;; This function is called by:
  2570 ;;		_adc
  2571 ;; This function uses a non-reentrant model
  2572 ;;
  2573                           
  2574     03BF                     ___flmul:	
  2575                           ;psect for function ___flmul
  2576                           
  2577     03BF                     i1l1551:	
  2578                           ;incstack = 0
  2579                           ; Regs used in ___flmul: [wreg+status,2+status,0+btemp+1+pclath+cstack]
  2580                           
  2581     03BF  1283               	bcf	3,5	;RP0=0, select bank0
  2582     03C0  1303               	bcf	3,6	;RP1=0, select bank0
  2583     03C1  0823               	movf	___flmul@b+3,w
  2584     03C2  3980               	andlw	128
  2585     03C3  00AD               	movwf	___flmul@sign
  2586     03C4                     i1l1553:
  2587     03C4  0823               	movf	___flmul@b+3,w
  2588     03C5  00A8               	movwf	??___flmul
  2589     03C6  0728               	addwf	??___flmul,w
  2590     03C7  00B3               	movwf	___flmul@bexp
  2591     03C8                     i1l1555:
  2592     03C8  1FA2               	btfss	___flmul@b+2,7
  2593     03C9  2BCB               	goto	u196_21
  2594     03CA  2BCC               	goto	u196_20
  2595     03CB                     u196_21:
  2596     03CB  2BCD               	goto	i1l1559
  2597     03CC                     u196_20:
  2598     03CC                     i1l1557:
  2599     03CC  1433               	bsf	___flmul@bexp,0
  2600     03CD                     i1l1559:
  2601     03CD  0833               	movf	___flmul@bexp,w
  2602     03CE  1903               	btfsc	3,2
  2603     03CF  2BD1               	goto	u197_21
  2604     03D0  2BD2               	goto	u197_20
  2605     03D1                     u197_21:
  2606     03D1  2BE1               	goto	i1l1567
  2607     03D2                     u197_20:
  2608     03D2                     i1l1561:
  2609     03D2  0A33               	incf	___flmul@bexp,w
  2610     03D3  1D03               	btfss	3,2
  2611     03D4  2BD6               	goto	u198_21
  2612     03D5  2BD7               	goto	u198_20
  2613     03D6                     u198_21:
  2614     03D6  2BDF               	goto	i1l1565
  2615     03D7                     u198_20:
  2616     03D7                     i1l1563:
  2617     03D7  3000               	movlw	0
  2618     03D8  00A3               	movwf	___flmul@b+3
  2619     03D9  3000               	movlw	0
  2620     03DA  00A2               	movwf	___flmul@b+2
  2621     03DB  3000               	movlw	0
  2622     03DC  00A1               	movwf	___flmul@b+1
  2623     03DD  3000               	movlw	0
  2624     03DE  00A0               	movwf	___flmul@b
  2625     03DF                     i1l1565:
  2626     03DF  17A2               	bsf	___flmul@b+2,7
  2627     03E0  2BE9               	goto	i1l1569
  2628     03E1                     i1l1567:
  2629     03E1  3000               	movlw	0
  2630     03E2  00A3               	movwf	___flmul@b+3
  2631     03E3  3000               	movlw	0
  2632     03E4  00A2               	movwf	___flmul@b+2
  2633     03E5  3000               	movlw	0
  2634     03E6  00A1               	movwf	___flmul@b+1
  2635     03E7  3000               	movlw	0
  2636     03E8  00A0               	movwf	___flmul@b
  2637     03E9                     i1l1569:
  2638     03E9  0827               	movf	___flmul@a+3,w
  2639     03EA  3980               	andlw	128
  2640     03EB  00A8               	movwf	??___flmul
  2641     03EC  0828               	movf	??___flmul,w
  2642     03ED  06AD               	xorwf	___flmul@sign,f
  2643     03EE                     i1l1571:
  2644     03EE  0827               	movf	___flmul@a+3,w
  2645     03EF  00A8               	movwf	??___flmul
  2646     03F0  0728               	addwf	??___flmul,w
  2647     03F1  00B2               	movwf	___flmul@aexp
  2648     03F2                     i1l1573:
  2649     03F2  1FA6               	btfss	___flmul@a+2,7
  2650     03F3  2BF5               	goto	u199_21
  2651     03F4  2BF6               	goto	u199_20
  2652     03F5                     u199_21:
  2653     03F5  2BF7               	goto	i1l1577
  2654     03F6                     u199_20:
  2655     03F6                     i1l1575:
  2656     03F6  1432               	bsf	___flmul@aexp,0
  2657     03F7                     i1l1577:
  2658     03F7  0832               	movf	___flmul@aexp,w
  2659     03F8  1903               	btfsc	3,2
  2660     03F9  2BFB               	goto	u200_21
  2661     03FA  2BFC               	goto	u200_20
  2662     03FB                     u200_21:
  2663     03FB  2C0B               	goto	i1l1585
  2664     03FC                     u200_20:
  2665     03FC                     i1l1579:
  2666     03FC  0A32               	incf	___flmul@aexp,w
  2667     03FD  1D03               	btfss	3,2
  2668     03FE  2C00               	goto	u201_21
  2669     03FF  2C01               	goto	u201_20
  2670     0400                     u201_21:
  2671     0400  2C09               	goto	i1l1583
  2672     0401                     u201_20:
  2673     0401                     i1l1581:
  2674     0401  3000               	movlw	0
  2675     0402  00A7               	movwf	___flmul@a+3
  2676     0403  3000               	movlw	0
  2677     0404  00A6               	movwf	___flmul@a+2
  2678     0405  3000               	movlw	0
  2679     0406  00A5               	movwf	___flmul@a+1
  2680     0407  3000               	movlw	0
  2681     0408  00A4               	movwf	___flmul@a
  2682     0409                     i1l1583:
  2683     0409  17A6               	bsf	___flmul@a+2,7
  2684     040A  2C13               	goto	i1l1587
  2685     040B                     i1l1585:
  2686     040B  3000               	movlw	0
  2687     040C  00A7               	movwf	___flmul@a+3
  2688     040D  3000               	movlw	0
  2689     040E  00A6               	movwf	___flmul@a+2
  2690     040F  3000               	movlw	0
  2691     0410  00A5               	movwf	___flmul@a+1
  2692     0411  3000               	movlw	0
  2693     0412  00A4               	movwf	___flmul@a
  2694     0413                     i1l1587:
  2695     0413  0832               	movf	___flmul@aexp,w
  2696     0414  1903               	btfsc	3,2
  2697     0415  2C17               	goto	u202_21
  2698     0416  2C18               	goto	u202_20
  2699     0417                     u202_21:
  2700     0417  2C1D               	goto	i1l1591
  2701     0418                     u202_20:
  2702     0418                     i1l1589:
  2703     0418  0833               	movf	___flmul@bexp,w
  2704     0419  1D03               	btfss	3,2
  2705     041A  2C1C               	goto	u203_21
  2706     041B  2C1D               	goto	u203_20
  2707     041C                     u203_21:
  2708     041C  2C26               	goto	i1l1595
  2709     041D                     u203_20:
  2710     041D                     i1l1591:
  2711     041D  3000               	movlw	0
  2712     041E  00A3               	movwf	?___flmul+3
  2713     041F  3000               	movlw	0
  2714     0420  00A2               	movwf	?___flmul+2
  2715     0421  3000               	movlw	0
  2716     0422  00A1               	movwf	?___flmul+1
  2717     0423  3000               	movlw	0
  2718     0424  00A0               	movwf	?___flmul
  2719     0425  2F03               	goto	i1l538
  2720     0426                     i1l1595:
  2721     0426  0820               	movf	___flmul@b,w
  2722     0427  00F0               	movwf	__Umul8_16@multiplicand
  2723     0428  0826               	movf	___flmul@a+2,w
  2724     0429  120A  158A  240E  120A  118A  	fcall	__Umul8_16
  2725     042E  0871               	movf	?__Umul8_16+1,w
  2726     042F  1283               	bcf	3,5	;RP0=0, select bank0
  2727     0430  1303               	bcf	3,6	;RP1=0, select bank0
  2728     0431  00B9               	movwf	___flmul@temp+1
  2729     0432  0870               	movf	?__Umul8_16,w
  2730     0433  00B8               	movwf	___flmul@temp
  2731     0434                     i1l1597:
  2732     0434  0838               	movf	___flmul@temp,w
  2733     0435  00A8               	movwf	??___flmul
  2734     0436  01A9               	clrf	??___flmul+1
  2735     0437  01AA               	clrf	??___flmul+2
  2736     0438  01AB               	clrf	??___flmul+3
  2737     0439  082B               	movf	??___flmul+3,w
  2738     043A  00B1               	movwf	___flmul@grs+3
  2739     043B  082A               	movf	??___flmul+2,w
  2740     043C  00B0               	movwf	___flmul@grs+2
  2741     043D  0829               	movf	??___flmul+1,w
  2742     043E  00AF               	movwf	___flmul@grs+1
  2743     043F  0828               	movf	??___flmul,w
  2744     0440  00AE               	movwf	___flmul@grs
  2745     0441                     i1l1599:
  2746     0441  0839               	movf	___flmul@temp+1,w
  2747     0442  00A8               	movwf	??___flmul
  2748     0443  01A9               	clrf	??___flmul+1
  2749     0444  01AA               	clrf	??___flmul+2
  2750     0445  01AB               	clrf	??___flmul+3
  2751     0446  082B               	movf	??___flmul+3,w
  2752     0447  00B7               	movwf	___flmul@prod+3
  2753     0448  082A               	movf	??___flmul+2,w
  2754     0449  00B6               	movwf	___flmul@prod+2
  2755     044A  0829               	movf	??___flmul+1,w
  2756     044B  00B5               	movwf	___flmul@prod+1
  2757     044C  0828               	movf	??___flmul,w
  2758     044D  00B4               	movwf	___flmul@prod
  2759     044E  0821               	movf	___flmul@b+1,w
  2760     044F  00F0               	movwf	__Umul8_16@multiplicand
  2761     0450  0825               	movf	___flmul@a+1,w
  2762     0451  120A  158A  240E  120A  118A  	fcall	__Umul8_16
  2763     0456  0871               	movf	?__Umul8_16+1,w
  2764     0457  1283               	bcf	3,5	;RP0=0, select bank0
  2765     0458  1303               	bcf	3,6	;RP1=0, select bank0
  2766     0459  00B9               	movwf	___flmul@temp+1
  2767     045A  0870               	movf	?__Umul8_16,w
  2768     045B  00B8               	movwf	___flmul@temp
  2769     045C                     i1l1601:
  2770     045C  0838               	movf	___flmul@temp,w
  2771     045D  00A8               	movwf	??___flmul
  2772     045E  01A9               	clrf	??___flmul+1
  2773     045F  01AA               	clrf	??___flmul+2
  2774     0460  01AB               	clrf	??___flmul+3
  2775     0461  0828               	movf	??___flmul,w
  2776     0462  07AE               	addwf	___flmul@grs,f
  2777     0463  0829               	movf	??___flmul+1,w
  2778     0464  1103               	clrz
  2779     0465  1803               	skipnc
  2780     0466  3E01               	addlw	1
  2781     0467  1903               	skipnz
  2782     0468  2C6A               	goto	u204_21
  2783     0469  07AF               	addwf	___flmul@grs+1,f
  2784     046A                     u204_21:
  2785     046A  082A               	movf	??___flmul+2,w
  2786     046B  1103               	clrz
  2787     046C  1803               	skipnc
  2788     046D  3E01               	addlw	1
  2789     046E  1903               	skipnz
  2790     046F  2C71               	goto	u204_22
  2791     0470  07B0               	addwf	___flmul@grs+2,f
  2792     0471                     u204_22:
  2793     0471  082B               	movf	??___flmul+3,w
  2794     0472  1103               	clrz
  2795     0473  1803               	skipnc
  2796     0474  3E01               	addlw	1
  2797     0475  1903               	skipnz
  2798     0476  2C78               	goto	u204_23
  2799     0477  07B1               	addwf	___flmul@grs+3,f
  2800     0478                     u204_23:
  2801     0478                     i1l1603:
  2802     0478  0839               	movf	___flmul@temp+1,w
  2803     0479  00A8               	movwf	??___flmul
  2804     047A  01A9               	clrf	??___flmul+1
  2805     047B  01AA               	clrf	??___flmul+2
  2806     047C  01AB               	clrf	??___flmul+3
  2807     047D  0828               	movf	??___flmul,w
  2808     047E  07B4               	addwf	___flmul@prod,f
  2809     047F  0829               	movf	??___flmul+1,w
  2810     0480  1103               	clrz
  2811     0481  1803               	skipnc
  2812     0482  3E01               	addlw	1
  2813     0483  1903               	skipnz
  2814     0484  2C86               	goto	u205_21
  2815     0485  07B5               	addwf	___flmul@prod+1,f
  2816     0486                     u205_21:
  2817     0486  082A               	movf	??___flmul+2,w
  2818     0487  1103               	clrz
  2819     0488  1803               	skipnc
  2820     0489  3E01               	addlw	1
  2821     048A  1903               	skipnz
  2822     048B  2C8D               	goto	u205_22
  2823     048C  07B6               	addwf	___flmul@prod+2,f
  2824     048D                     u205_22:
  2825     048D  082B               	movf	??___flmul+3,w
  2826     048E  1103               	clrz
  2827     048F  1803               	skipnc
  2828     0490  3E01               	addlw	1
  2829     0491  1903               	skipnz
  2830     0492  2C94               	goto	u205_23
  2831     0493  07B7               	addwf	___flmul@prod+3,f
  2832     0494                     u205_23:
  2833     0494  0822               	movf	___flmul@b+2,w
  2834     0495  00F0               	movwf	__Umul8_16@multiplicand
  2835     0496  0824               	movf	___flmul@a,w
  2836     0497  120A  158A  240E  120A  118A  	fcall	__Umul8_16
  2837     049C  0871               	movf	?__Umul8_16+1,w
  2838     049D  1283               	bcf	3,5	;RP0=0, select bank0
  2839     049E  1303               	bcf	3,6	;RP1=0, select bank0
  2840     049F  00B9               	movwf	___flmul@temp+1
  2841     04A0  0870               	movf	?__Umul8_16,w
  2842     04A1  00B8               	movwf	___flmul@temp
  2843     04A2                     i1l1605:
  2844     04A2  0838               	movf	___flmul@temp,w
  2845     04A3  00A8               	movwf	??___flmul
  2846     04A4  01A9               	clrf	??___flmul+1
  2847     04A5  01AA               	clrf	??___flmul+2
  2848     04A6  01AB               	clrf	??___flmul+3
  2849     04A7  0828               	movf	??___flmul,w
  2850     04A8  07AE               	addwf	___flmul@grs,f
  2851     04A9  0829               	movf	??___flmul+1,w
  2852     04AA  1103               	clrz
  2853     04AB  1803               	skipnc
  2854     04AC  3E01               	addlw	1
  2855     04AD  1903               	skipnz
  2856     04AE  2CB0               	goto	u206_21
  2857     04AF  07AF               	addwf	___flmul@grs+1,f
  2858     04B0                     u206_21:
  2859     04B0  082A               	movf	??___flmul+2,w
  2860     04B1  1103               	clrz
  2861     04B2  1803               	skipnc
  2862     04B3  3E01               	addlw	1
  2863     04B4  1903               	skipnz
  2864     04B5  2CB7               	goto	u206_22
  2865     04B6  07B0               	addwf	___flmul@grs+2,f
  2866     04B7                     u206_22:
  2867     04B7  082B               	movf	??___flmul+3,w
  2868     04B8  1103               	clrz
  2869     04B9  1803               	skipnc
  2870     04BA  3E01               	addlw	1
  2871     04BB  1903               	skipnz
  2872     04BC  2CBE               	goto	u206_23
  2873     04BD  07B1               	addwf	___flmul@grs+3,f
  2874     04BE                     u206_23:
  2875     04BE                     i1l1607:
  2876     04BE  0839               	movf	___flmul@temp+1,w
  2877     04BF  00A8               	movwf	??___flmul
  2878     04C0  01A9               	clrf	??___flmul+1
  2879     04C1  01AA               	clrf	??___flmul+2
  2880     04C2  01AB               	clrf	??___flmul+3
  2881     04C3  0828               	movf	??___flmul,w
  2882     04C4  07B4               	addwf	___flmul@prod,f
  2883     04C5  0829               	movf	??___flmul+1,w
  2884     04C6  1103               	clrz
  2885     04C7  1803               	skipnc
  2886     04C8  3E01               	addlw	1
  2887     04C9  1903               	skipnz
  2888     04CA  2CCC               	goto	u207_21
  2889     04CB  07B5               	addwf	___flmul@prod+1,f
  2890     04CC                     u207_21:
  2891     04CC  082A               	movf	??___flmul+2,w
  2892     04CD  1103               	clrz
  2893     04CE  1803               	skipnc
  2894     04CF  3E01               	addlw	1
  2895     04D0  1903               	skipnz
  2896     04D1  2CD3               	goto	u207_22
  2897     04D2  07B6               	addwf	___flmul@prod+2,f
  2898     04D3                     u207_22:
  2899     04D3  082B               	movf	??___flmul+3,w
  2900     04D4  1103               	clrz
  2901     04D5  1803               	skipnc
  2902     04D6  3E01               	addlw	1
  2903     04D7  1903               	skipnz
  2904     04D8  2CDA               	goto	u207_23
  2905     04D9  07B7               	addwf	___flmul@prod+3,f
  2906     04DA                     u207_23:
  2907     04DA                     i1l1609:
  2908     04DA  3008               	movlw	8
  2909     04DB  00A8               	movwf	??___flmul
  2910     04DC                     u208_25:
  2911     04DC  1003               	clrc
  2912     04DD  0DAE               	rlf	___flmul@grs,f
  2913     04DE  0DAF               	rlf	___flmul@grs+1,f
  2914     04DF  0DB0               	rlf	___flmul@grs+2,f
  2915     04E0  0DB1               	rlf	___flmul@grs+3,f
  2916     04E1  0BA8               	decfsz	??___flmul,f
  2917     04E2  2CDC               	goto	u208_25
  2918     04E3                     i1l1611:
  2919     04E3  0821               	movf	___flmul@b+1,w
  2920     04E4  00F0               	movwf	__Umul8_16@multiplicand
  2921     04E5  0824               	movf	___flmul@a,w
  2922     04E6  120A  158A  240E  120A  118A  	fcall	__Umul8_16
  2923     04EB  0871               	movf	?__Umul8_16+1,w
  2924     04EC  1283               	bcf	3,5	;RP0=0, select bank0
  2925     04ED  1303               	bcf	3,6	;RP1=0, select bank0
  2926     04EE  00B9               	movwf	___flmul@temp+1
  2927     04EF  0870               	movf	?__Umul8_16,w
  2928     04F0  00B8               	movwf	___flmul@temp
  2929     04F1                     i1l1613:
  2930     04F1  0838               	movf	___flmul@temp,w
  2931     04F2  00A8               	movwf	??___flmul
  2932     04F3  0839               	movf	___flmul@temp+1,w
  2933     04F4  00A9               	movwf	??___flmul+1
  2934     04F5  01AA               	clrf	??___flmul+2
  2935     04F6  01AB               	clrf	??___flmul+3
  2936     04F7  0828               	movf	??___flmul,w
  2937     04F8  07AE               	addwf	___flmul@grs,f
  2938     04F9  0829               	movf	??___flmul+1,w
  2939     04FA  1103               	clrz
  2940     04FB  1803               	skipnc
  2941     04FC  3E01               	addlw	1
  2942     04FD  1903               	skipnz
  2943     04FE  2D00               	goto	u209_21
  2944     04FF  07AF               	addwf	___flmul@grs+1,f
  2945     0500                     u209_21:
  2946     0500  082A               	movf	??___flmul+2,w
  2947     0501  1103               	clrz
  2948     0502  1803               	skipnc
  2949     0503  3E01               	addlw	1
  2950     0504  1903               	skipnz
  2951     0505  2D07               	goto	u209_22
  2952     0506  07B0               	addwf	___flmul@grs+2,f
  2953     0507                     u209_22:
  2954     0507  082B               	movf	??___flmul+3,w
  2955     0508  1103               	clrz
  2956     0509  1803               	skipnc
  2957     050A  3E01               	addlw	1
  2958     050B  1903               	skipnz
  2959     050C  2D0E               	goto	u209_23
  2960     050D  07B1               	addwf	___flmul@grs+3,f
  2961     050E                     u209_23:
  2962     050E                     i1l1615:
  2963     050E  0820               	movf	___flmul@b,w
  2964     050F  00F0               	movwf	__Umul8_16@multiplicand
  2965     0510  0825               	movf	___flmul@a+1,w
  2966     0511  120A  158A  240E  120A  118A  	fcall	__Umul8_16
  2967     0516  0871               	movf	?__Umul8_16+1,w
  2968     0517  1283               	bcf	3,5	;RP0=0, select bank0
  2969     0518  1303               	bcf	3,6	;RP1=0, select bank0
  2970     0519  00B9               	movwf	___flmul@temp+1
  2971     051A  0870               	movf	?__Umul8_16,w
  2972     051B  00B8               	movwf	___flmul@temp
  2973     051C                     i1l1617:
  2974     051C  0838               	movf	___flmul@temp,w
  2975     051D  00A8               	movwf	??___flmul
  2976     051E  0839               	movf	___flmul@temp+1,w
  2977     051F  00A9               	movwf	??___flmul+1
  2978     0520  01AA               	clrf	??___flmul+2
  2979     0521  01AB               	clrf	??___flmul+3
  2980     0522  0828               	movf	??___flmul,w
  2981     0523  07AE               	addwf	___flmul@grs,f
  2982     0524  0829               	movf	??___flmul+1,w
  2983     0525  1103               	clrz
  2984     0526  1803               	skipnc
  2985     0527  3E01               	addlw	1
  2986     0528  1903               	skipnz
  2987     0529  2D2B               	goto	u210_21
  2988     052A  07AF               	addwf	___flmul@grs+1,f
  2989     052B                     u210_21:
  2990     052B  082A               	movf	??___flmul+2,w
  2991     052C  1103               	clrz
  2992     052D  1803               	skipnc
  2993     052E  3E01               	addlw	1
  2994     052F  1903               	skipnz
  2995     0530  2D32               	goto	u210_22
  2996     0531  07B0               	addwf	___flmul@grs+2,f
  2997     0532                     u210_22:
  2998     0532  082B               	movf	??___flmul+3,w
  2999     0533  1103               	clrz
  3000     0534  1803               	skipnc
  3001     0535  3E01               	addlw	1
  3002     0536  1903               	skipnz
  3003     0537  2D39               	goto	u210_23
  3004     0538  07B1               	addwf	___flmul@grs+3,f
  3005     0539                     u210_23:
  3006     0539                     i1l1619:
  3007     0539  3008               	movlw	8
  3008     053A  00A8               	movwf	??___flmul
  3009     053B                     u211_25:
  3010     053B  1003               	clrc
  3011     053C  0DAE               	rlf	___flmul@grs,f
  3012     053D  0DAF               	rlf	___flmul@grs+1,f
  3013     053E  0DB0               	rlf	___flmul@grs+2,f
  3014     053F  0DB1               	rlf	___flmul@grs+3,f
  3015     0540  0BA8               	decfsz	??___flmul,f
  3016     0541  2D3B               	goto	u211_25
  3017     0542  0820               	movf	___flmul@b,w
  3018     0543  00F0               	movwf	__Umul8_16@multiplicand
  3019     0544  0824               	movf	___flmul@a,w
  3020     0545  120A  158A  240E  120A  118A  	fcall	__Umul8_16
  3021     054A  0871               	movf	?__Umul8_16+1,w
  3022     054B  1283               	bcf	3,5	;RP0=0, select bank0
  3023     054C  1303               	bcf	3,6	;RP1=0, select bank0
  3024     054D  00B9               	movwf	___flmul@temp+1
  3025     054E  0870               	movf	?__Umul8_16,w
  3026     054F  00B8               	movwf	___flmul@temp
  3027     0550                     i1l1621:
  3028     0550  0838               	movf	___flmul@temp,w
  3029     0551  00A8               	movwf	??___flmul
  3030     0552  0839               	movf	___flmul@temp+1,w
  3031     0553  00A9               	movwf	??___flmul+1
  3032     0554  01AA               	clrf	??___flmul+2
  3033     0555  01AB               	clrf	??___flmul+3
  3034     0556  0828               	movf	??___flmul,w
  3035     0557  07AE               	addwf	___flmul@grs,f
  3036     0558  0829               	movf	??___flmul+1,w
  3037     0559  1103               	clrz
  3038     055A  1803               	skipnc
  3039     055B  3E01               	addlw	1
  3040     055C  1903               	skipnz
  3041     055D  2D5F               	goto	u212_21
  3042     055E  07AF               	addwf	___flmul@grs+1,f
  3043     055F                     u212_21:
  3044     055F  082A               	movf	??___flmul+2,w
  3045     0560  1103               	clrz
  3046     0561  1803               	skipnc
  3047     0562  3E01               	addlw	1
  3048     0563  1903               	skipnz
  3049     0564  2D66               	goto	u212_22
  3050     0565  07B0               	addwf	___flmul@grs+2,f
  3051     0566                     u212_22:
  3052     0566  082B               	movf	??___flmul+3,w
  3053     0567  1103               	clrz
  3054     0568  1803               	skipnc
  3055     0569  3E01               	addlw	1
  3056     056A  1903               	skipnz
  3057     056B  2D6D               	goto	u212_23
  3058     056C  07B1               	addwf	___flmul@grs+3,f
  3059     056D                     u212_23:
  3060     056D                     i1l1623:
  3061     056D  0821               	movf	___flmul@b+1,w
  3062     056E  00F0               	movwf	__Umul8_16@multiplicand
  3063     056F  0826               	movf	___flmul@a+2,w
  3064     0570  120A  158A  240E  120A  118A  	fcall	__Umul8_16
  3065     0575  0871               	movf	?__Umul8_16+1,w
  3066     0576  1283               	bcf	3,5	;RP0=0, select bank0
  3067     0577  1303               	bcf	3,6	;RP1=0, select bank0
  3068     0578  00B9               	movwf	___flmul@temp+1
  3069     0579  0870               	movf	?__Umul8_16,w
  3070     057A  00B8               	movwf	___flmul@temp
  3071     057B  0838               	movf	___flmul@temp,w
  3072     057C  00A8               	movwf	??___flmul
  3073     057D  0839               	movf	___flmul@temp+1,w
  3074     057E  00A9               	movwf	??___flmul+1
  3075     057F  01AA               	clrf	??___flmul+2
  3076     0580  01AB               	clrf	??___flmul+3
  3077     0581  0828               	movf	??___flmul,w
  3078     0582  07B4               	addwf	___flmul@prod,f
  3079     0583  0829               	movf	??___flmul+1,w
  3080     0584  1103               	clrz
  3081     0585  1803               	skipnc
  3082     0586  3E01               	addlw	1
  3083     0587  1903               	skipnz
  3084     0588  2D8A               	goto	u213_21
  3085     0589  07B5               	addwf	___flmul@prod+1,f
  3086     058A                     u213_21:
  3087     058A  082A               	movf	??___flmul+2,w
  3088     058B  1103               	clrz
  3089     058C  1803               	skipnc
  3090     058D  3E01               	addlw	1
  3091     058E  1903               	skipnz
  3092     058F  2D91               	goto	u213_22
  3093     0590  07B6               	addwf	___flmul@prod+2,f
  3094     0591                     u213_22:
  3095     0591  082B               	movf	??___flmul+3,w
  3096     0592  1103               	clrz
  3097     0593  1803               	skipnc
  3098     0594  3E01               	addlw	1
  3099     0595  1903               	skipnz
  3100     0596  2D98               	goto	u213_23
  3101     0597  07B7               	addwf	___flmul@prod+3,f
  3102     0598                     u213_23:
  3103     0598                     i1l1625:
  3104     0598  0822               	movf	___flmul@b+2,w
  3105     0599  00F0               	movwf	__Umul8_16@multiplicand
  3106     059A  0825               	movf	___flmul@a+1,w
  3107     059B  120A  158A  240E  120A  118A  	fcall	__Umul8_16
  3108     05A0  0871               	movf	?__Umul8_16+1,w
  3109     05A1  1283               	bcf	3,5	;RP0=0, select bank0
  3110     05A2  1303               	bcf	3,6	;RP1=0, select bank0
  3111     05A3  00B9               	movwf	___flmul@temp+1
  3112     05A4  0870               	movf	?__Umul8_16,w
  3113     05A5  00B8               	movwf	___flmul@temp
  3114     05A6                     i1l1627:
  3115     05A6  0838               	movf	___flmul@temp,w
  3116     05A7  00A8               	movwf	??___flmul
  3117     05A8  0839               	movf	___flmul@temp+1,w
  3118     05A9  00A9               	movwf	??___flmul+1
  3119     05AA  01AA               	clrf	??___flmul+2
  3120     05AB  01AB               	clrf	??___flmul+3
  3121     05AC  0828               	movf	??___flmul,w
  3122     05AD  07B4               	addwf	___flmul@prod,f
  3123     05AE  0829               	movf	??___flmul+1,w
  3124     05AF  1103               	clrz
  3125     05B0  1803               	skipnc
  3126     05B1  3E01               	addlw	1
  3127     05B2  1903               	skipnz
  3128     05B3  2DB5               	goto	u214_21
  3129     05B4  07B5               	addwf	___flmul@prod+1,f
  3130     05B5                     u214_21:
  3131     05B5  082A               	movf	??___flmul+2,w
  3132     05B6  1103               	clrz
  3133     05B7  1803               	skipnc
  3134     05B8  3E01               	addlw	1
  3135     05B9  1903               	skipnz
  3136     05BA  2DBC               	goto	u214_22
  3137     05BB  07B6               	addwf	___flmul@prod+2,f
  3138     05BC                     u214_22:
  3139     05BC  082B               	movf	??___flmul+3,w
  3140     05BD  1103               	clrz
  3141     05BE  1803               	skipnc
  3142     05BF  3E01               	addlw	1
  3143     05C0  1903               	skipnz
  3144     05C1  2DC3               	goto	u214_23
  3145     05C2  07B7               	addwf	___flmul@prod+3,f
  3146     05C3                     u214_23:
  3147     05C3  0822               	movf	___flmul@b+2,w
  3148     05C4  00F0               	movwf	__Umul8_16@multiplicand
  3149     05C5  0826               	movf	___flmul@a+2,w
  3150     05C6  120A  158A  240E  120A  118A  	fcall	__Umul8_16
  3151     05CB  0871               	movf	?__Umul8_16+1,w
  3152     05CC  1283               	bcf	3,5	;RP0=0, select bank0
  3153     05CD  1303               	bcf	3,6	;RP1=0, select bank0
  3154     05CE  00B9               	movwf	___flmul@temp+1
  3155     05CF  0870               	movf	?__Umul8_16,w
  3156     05D0  00B8               	movwf	___flmul@temp
  3157     05D1                     i1l1629:
  3158     05D1  0838               	movf	___flmul@temp,w
  3159     05D2  00A8               	movwf	??___flmul
  3160     05D3  0839               	movf	___flmul@temp+1,w
  3161     05D4  00A9               	movwf	??___flmul+1
  3162     05D5  01AA               	clrf	??___flmul+2
  3163     05D6  01AB               	clrf	??___flmul+3
  3164     05D7  3008               	movlw	8
  3165     05D8                     u215_25:
  3166     05D8  1003               	clrc
  3167     05D9  0DA8               	rlf	??___flmul,f
  3168     05DA  0DA9               	rlf	??___flmul+1,f
  3169     05DB  0DAA               	rlf	??___flmul+2,f
  3170     05DC  0DAB               	rlf	??___flmul+3,f
  3171     05DD                     u215_20:
  3172     05DD  3EFF               	addlw	-1
  3173     05DE  1D03               	skipz
  3174     05DF  2DD8               	goto	u215_25
  3175     05E0  0828               	movf	??___flmul,w
  3176     05E1  07B4               	addwf	___flmul@prod,f
  3177     05E2  0829               	movf	??___flmul+1,w
  3178     05E3  1103               	clrz
  3179     05E4  1803               	skipnc
  3180     05E5  3E01               	addlw	1
  3181     05E6  1903               	skipnz
  3182     05E7  2DE9               	goto	u216_21
  3183     05E8  07B5               	addwf	___flmul@prod+1,f
  3184     05E9                     u216_21:
  3185     05E9  082A               	movf	??___flmul+2,w
  3186     05EA  1103               	clrz
  3187     05EB  1803               	skipnc
  3188     05EC  3E01               	addlw	1
  3189     05ED  1903               	skipnz
  3190     05EE  2DF0               	goto	u216_22
  3191     05EF  07B6               	addwf	___flmul@prod+2,f
  3192     05F0                     u216_22:
  3193     05F0  082B               	movf	??___flmul+3,w
  3194     05F1  1103               	clrz
  3195     05F2  1803               	skipnc
  3196     05F3  3E01               	addlw	1
  3197     05F4  1903               	skipnz
  3198     05F5  2DF7               	goto	u216_23
  3199     05F6  07B7               	addwf	___flmul@prod+3,f
  3200     05F7                     u216_23:
  3201     05F7                     i1l1631:
  3202     05F7  082E               	movf	___flmul@grs,w
  3203     05F8  00A8               	movwf	??___flmul
  3204     05F9  082F               	movf	___flmul@grs+1,w
  3205     05FA  00A9               	movwf	??___flmul+1
  3206     05FB  0830               	movf	___flmul@grs+2,w
  3207     05FC  00AA               	movwf	??___flmul+2
  3208     05FD  0831               	movf	___flmul@grs+3,w
  3209     05FE  00AB               	movwf	??___flmul+3
  3210     05FF  3018               	movlw	24
  3211     0600                     u217_25:
  3212     0600  1003               	clrc
  3213     0601  0CAB               	rrf	??___flmul+3,f
  3214     0602  0CAA               	rrf	??___flmul+2,f
  3215     0603  0CA9               	rrf	??___flmul+1,f
  3216     0604  0CA8               	rrf	??___flmul,f
  3217     0605                     u217_20:
  3218     0605  3EFF               	addlw	-1
  3219     0606  1D03               	skipz
  3220     0607  2E00               	goto	u217_25
  3221     0608  0828               	movf	??___flmul,w
  3222     0609  07B4               	addwf	___flmul@prod,f
  3223     060A  0829               	movf	??___flmul+1,w
  3224     060B  1103               	clrz
  3225     060C  1803               	skipnc
  3226     060D  3E01               	addlw	1
  3227     060E  1903               	skipnz
  3228     060F  2E11               	goto	u218_21
  3229     0610  07B5               	addwf	___flmul@prod+1,f
  3230     0611                     u218_21:
  3231     0611  082A               	movf	??___flmul+2,w
  3232     0612  1103               	clrz
  3233     0613  1803               	skipnc
  3234     0614  3E01               	addlw	1
  3235     0615  1903               	skipnz
  3236     0616  2E18               	goto	u218_22
  3237     0617  07B6               	addwf	___flmul@prod+2,f
  3238     0618                     u218_22:
  3239     0618  082B               	movf	??___flmul+3,w
  3240     0619  1103               	clrz
  3241     061A  1803               	skipnc
  3242     061B  3E01               	addlw	1
  3243     061C  1903               	skipnz
  3244     061D  2E1F               	goto	u218_23
  3245     061E  07B7               	addwf	___flmul@prod+3,f
  3246     061F                     u218_23:
  3247     061F                     i1l1633:
  3248     061F  3008               	movlw	8
  3249     0620  00A8               	movwf	??___flmul
  3250     0621                     u219_25:
  3251     0621  1003               	clrc
  3252     0622  0DAE               	rlf	___flmul@grs,f
  3253     0623  0DAF               	rlf	___flmul@grs+1,f
  3254     0624  0DB0               	rlf	___flmul@grs+2,f
  3255     0625  0DB1               	rlf	___flmul@grs+3,f
  3256     0626  0BA8               	decfsz	??___flmul,f
  3257     0627  2E21               	goto	u219_25
  3258     0628                     i1l1635:
  3259     0628  0833               	movf	___flmul@bexp,w
  3260     0629  0732               	addwf	___flmul@aexp,w
  3261     062A  00A8               	movwf	??___flmul
  3262     062B  01A9               	clrf	??___flmul+1
  3263     062C  0DA9               	rlf	??___flmul+1,f
  3264     062D  0828               	movf	??___flmul,w
  3265     062E  3E82               	addlw	130
  3266     062F  00B8               	movwf	___flmul@temp
  3267     0630  0829               	movf	??___flmul+1,w
  3268     0631  1803               	skipnc
  3269     0632  3E01               	addlw	1
  3270     0633  3EFF               	addlw	255
  3271     0634  00B9               	movwf	___flmul@temp+1
  3272     0635  2E53               	goto	i1l1647
  3273     0636                     i1l1637:
  3274     0636  3001               	movlw	1
  3275     0637  00A8               	movwf	??___flmul
  3276     0638                     u220_25:
  3277     0638  1003               	clrc
  3278     0639  0DB4               	rlf	___flmul@prod,f
  3279     063A  0DB5               	rlf	___flmul@prod+1,f
  3280     063B  0DB6               	rlf	___flmul@prod+2,f
  3281     063C  0DB7               	rlf	___flmul@prod+3,f
  3282     063D  0BA8               	decfsz	??___flmul,f
  3283     063E  2E38               	goto	u220_25
  3284     063F                     i1l1639:
  3285     063F  1FB1               	btfss	___flmul@grs+3,7
  3286     0640  2E42               	goto	u221_21
  3287     0641  2E43               	goto	u221_20
  3288     0642                     u221_21:
  3289     0642  2E44               	goto	i1l1643
  3290     0643                     u221_20:
  3291     0643                     i1l1641:
  3292     0643  1434               	bsf	___flmul@prod,0
  3293     0644                     i1l1643:
  3294     0644  3001               	movlw	1
  3295     0645  00A8               	movwf	??___flmul
  3296     0646                     u222_25:
  3297     0646  1003               	clrc
  3298     0647  0DAE               	rlf	___flmul@grs,f
  3299     0648  0DAF               	rlf	___flmul@grs+1,f
  3300     0649  0DB0               	rlf	___flmul@grs+2,f
  3301     064A  0DB1               	rlf	___flmul@grs+3,f
  3302     064B  0BA8               	decfsz	??___flmul,f
  3303     064C  2E46               	goto	u222_25
  3304     064D                     i1l1645:
  3305     064D  30FF               	movlw	255
  3306     064E  07B8               	addwf	___flmul@temp,f
  3307     064F  1803               	skipnc
  3308     0650  0AB9               	incf	___flmul@temp+1,f
  3309     0651  30FF               	movlw	255
  3310     0652  07B9               	addwf	___flmul@temp+1,f
  3311     0653                     i1l1647:
  3312     0653  1FB6               	btfss	___flmul@prod+2,7
  3313     0654  2E56               	goto	u223_21
  3314     0655  2E57               	goto	u223_20
  3315     0656                     u223_21:
  3316     0656  2E36               	goto	i1l1637
  3317     0657                     u223_20:
  3318     0657                     i1l1649:
  3319     0657  01B2               	clrf	___flmul@aexp
  3320     0658                     i1l1651:
  3321     0658  1FB1               	btfss	___flmul@grs+3,7
  3322     0659  2E5B               	goto	u224_21
  3323     065A  2E5C               	goto	u224_20
  3324     065B                     u224_21:
  3325     065B  2E78               	goto	i1l1659
  3326     065C                     u224_20:
  3327     065C                     i1l1653:
  3328     065C  30FF               	movlw	255
  3329     065D  052E               	andwf	___flmul@grs,w
  3330     065E  00A8               	movwf	??___flmul
  3331     065F  30FF               	movlw	255
  3332     0660  052F               	andwf	___flmul@grs+1,w
  3333     0661  00A9               	movwf	??___flmul+1
  3334     0662  30FF               	movlw	255
  3335     0663  0530               	andwf	___flmul@grs+2,w
  3336     0664  00AA               	movwf	??___flmul+2
  3337     0665  307F               	movlw	127
  3338     0666  0531               	andwf	___flmul@grs+3,w
  3339     0667  00AB               	movwf	??___flmul+3
  3340     0668  082B               	movf	??___flmul+3,w
  3341     0669  042A               	iorwf	??___flmul+2,w
  3342     066A  0429               	iorwf	??___flmul+1,w
  3343     066B  0428               	iorwf	??___flmul,w
  3344     066C  1903               	skipnz
  3345     066D  2E6F               	goto	u225_21
  3346     066E  2E70               	goto	u225_20
  3347     066F                     u225_21:
  3348     066F  2E73               	goto	i1l544
  3349     0670                     u225_20:
  3350     0670                     i1l1655:
  3351     0670  01B2               	clrf	___flmul@aexp
  3352     0671  0AB2               	incf	___flmul@aexp,f
  3353     0672  2E78               	goto	i1l1659
  3354     0673                     i1l544:
  3355     0673  1C34               	btfss	___flmul@prod,0
  3356     0674  2E76               	goto	u226_21
  3357     0675  2E77               	goto	u226_20
  3358     0676                     u226_21:
  3359     0676  2E78               	goto	i1l1659
  3360     0677                     u226_20:
  3361     0677  2E70               	goto	i1l1655
  3362     0678                     i1l1659:
  3363     0678  0832               	movf	___flmul@aexp,w
  3364     0679  1903               	btfsc	3,2
  3365     067A  2E7C               	goto	u227_21
  3366     067B  2E7D               	goto	u227_20
  3367     067C                     u227_21:
  3368     067C  2EAE               	goto	i1l1669
  3369     067D                     u227_20:
  3370     067D                     i1l1661:
  3371     067D  3001               	movlw	1
  3372     067E  07B4               	addwf	___flmul@prod,f
  3373     067F  3000               	movlw	0
  3374     0680  1803               	skipnc
  3375     0681  3001               	movlw	1
  3376     0682  07B5               	addwf	___flmul@prod+1,f
  3377     0683  3000               	movlw	0
  3378     0684  1803               	skipnc
  3379     0685  3001               	movlw	1
  3380     0686  07B6               	addwf	___flmul@prod+2,f
  3381     0687  3000               	movlw	0
  3382     0688  1803               	skipnc
  3383     0689  3001               	movlw	1
  3384     068A  07B7               	addwf	___flmul@prod+3,f
  3385     068B                     i1l1663:
  3386     068B  1C37               	btfss	___flmul@prod+3,0
  3387     068C  2E8E               	goto	u228_21
  3388     068D  2E8F               	goto	u228_20
  3389     068E                     u228_21:
  3390     068E  2EAE               	goto	i1l1669
  3391     068F                     u228_20:
  3392     068F                     i1l1665:
  3393     068F  0834               	movf	___flmul@prod,w
  3394     0690  00A8               	movwf	??___flmul
  3395     0691  0835               	movf	___flmul@prod+1,w
  3396     0692  00A9               	movwf	??___flmul+1
  3397     0693  0836               	movf	___flmul@prod+2,w
  3398     0694  00AA               	movwf	??___flmul+2
  3399     0695  0837               	movf	___flmul@prod+3,w
  3400     0696  00AB               	movwf	??___flmul+3
  3401     0697  3001               	movlw	1
  3402     0698  00AC               	movwf	??___flmul+4
  3403     0699                     u229_25:
  3404     0699  0D2B               	rlf	??___flmul+3,w
  3405     069A  0CAB               	rrf	??___flmul+3,f
  3406     069B  0CAA               	rrf	??___flmul+2,f
  3407     069C  0CA9               	rrf	??___flmul+1,f
  3408     069D  0CA8               	rrf	??___flmul,f
  3409     069E                     u229_20:
  3410     069E  0BAC               	decfsz	??___flmul+4,f
  3411     069F  2E99               	goto	u229_25
  3412     06A0  082B               	movf	??___flmul+3,w
  3413     06A1  00B7               	movwf	___flmul@prod+3
  3414     06A2  082A               	movf	??___flmul+2,w
  3415     06A3  00B6               	movwf	___flmul@prod+2
  3416     06A4  0829               	movf	??___flmul+1,w
  3417     06A5  00B5               	movwf	___flmul@prod+1
  3418     06A6  0828               	movf	??___flmul,w
  3419     06A7  00B4               	movwf	___flmul@prod
  3420     06A8                     i1l1667:
  3421     06A8  3001               	movlw	1
  3422     06A9  07B8               	addwf	___flmul@temp,f
  3423     06AA  1803               	skipnc
  3424     06AB  0AB9               	incf	___flmul@temp+1,f
  3425     06AC  3000               	movlw	0
  3426     06AD  07B9               	addwf	___flmul@temp+1,f
  3427     06AE                     i1l1669:
  3428     06AE  0839               	movf	___flmul@temp+1,w
  3429     06AF  3A80               	xorlw	128
  3430     06B0  00FF               	movwf	btemp+1
  3431     06B1  3080               	movlw	128
  3432     06B2  027F               	subwf	btemp+1,w
  3433     06B3  1D03               	skipz
  3434     06B4  2EB7               	goto	u230_25
  3435     06B5  30FF               	movlw	255
  3436     06B6  0238               	subwf	___flmul@temp,w
  3437     06B7                     u230_25:
  3438     06B7  1C03               	skipc
  3439     06B8  2EBA               	goto	u230_21
  3440     06B9  2EBB               	goto	u230_20
  3441     06BA                     u230_21:
  3442     06BA  2EC6               	goto	i1l1673
  3443     06BB                     u230_20:
  3444     06BB                     i1l1671:
  3445     06BB  307F               	movlw	127
  3446     06BC  1283               	bcf	3,5	;RP0=0, select bank0
  3447     06BD  1303               	bcf	3,6	;RP1=0, select bank0
  3448     06BE  00B7               	movwf	___flmul@prod+3
  3449     06BF  3080               	movlw	128
  3450     06C0  00B6               	movwf	___flmul@prod+2
  3451     06C1  3000               	movlw	0
  3452     06C2  00B5               	movwf	___flmul@prod+1
  3453     06C3  3000               	movlw	0
  3454     06C4  00B4               	movwf	___flmul@prod
  3455     06C5  2EF7               	goto	i1l550
  3456     06C6                     i1l1673:
  3457     06C6  1283               	bcf	3,5	;RP0=0, select bank0
  3458     06C7  1303               	bcf	3,6	;RP1=0, select bank0
  3459     06C8  0839               	movf	___flmul@temp+1,w
  3460     06C9  3A80               	xorlw	128
  3461     06CA  00FF               	movwf	btemp+1
  3462     06CB  3080               	movlw	128
  3463     06CC  027F               	subwf	btemp+1,w
  3464     06CD  1D03               	skipz
  3465     06CE  2ED1               	goto	u231_25
  3466     06CF  3001               	movlw	1
  3467     06D0  0238               	subwf	___flmul@temp,w
  3468     06D1                     u231_25:
  3469     06D1  1803               	skipnc
  3470     06D2  2ED4               	goto	u231_21
  3471     06D3  2ED5               	goto	u231_20
  3472     06D4                     u231_21:
  3473     06D4  2EE1               	goto	i1l1679
  3474     06D5                     u231_20:
  3475     06D5                     i1l1675:
  3476     06D5  3000               	movlw	0
  3477     06D6  1283               	bcf	3,5	;RP0=0, select bank0
  3478     06D7  1303               	bcf	3,6	;RP1=0, select bank0
  3479     06D8  00B7               	movwf	___flmul@prod+3
  3480     06D9  3000               	movlw	0
  3481     06DA  00B6               	movwf	___flmul@prod+2
  3482     06DB  3000               	movlw	0
  3483     06DC  00B5               	movwf	___flmul@prod+1
  3484     06DD  3000               	movlw	0
  3485     06DE  00B4               	movwf	___flmul@prod
  3486     06DF                     i1l1677:
  3487     06DF  01AD               	clrf	___flmul@sign
  3488     06E0  2EF7               	goto	i1l550
  3489     06E1                     i1l1679:
  3490     06E1  1283               	bcf	3,5	;RP0=0, select bank0
  3491     06E2  1303               	bcf	3,6	;RP1=0, select bank0
  3492     06E3  0838               	movf	___flmul@temp,w
  3493     06E4  00B3               	movwf	___flmul@bexp
  3494     06E5  30FF               	movlw	255
  3495     06E6  05B4               	andwf	___flmul@prod,f
  3496     06E7  30FF               	movlw	255
  3497     06E8  05B5               	andwf	___flmul@prod+1,f
  3498     06E9  307F               	movlw	127
  3499     06EA  05B6               	andwf	___flmul@prod+2,f
  3500     06EB  3000               	movlw	0
  3501     06EC  05B7               	andwf	___flmul@prod+3,f
  3502     06ED                     i1l1681:
  3503     06ED  1C33               	btfss	___flmul@bexp,0
  3504     06EE  2EF0               	goto	u232_21
  3505     06EF  2EF1               	goto	u232_20
  3506     06F0                     u232_21:
  3507     06F0  2EF2               	goto	i1l1685
  3508     06F1                     u232_20:
  3509     06F1                     i1l1683:
  3510     06F1  17B6               	bsf	___flmul@prod+2,7
  3511     06F2                     i1l1685:
  3512     06F2  0833               	movf	___flmul@bexp,w
  3513     06F3  00A8               	movwf	??___flmul
  3514     06F4  1003               	clrc
  3515     06F5  0C28               	rrf	??___flmul,w
  3516     06F6  00B7               	movwf	___flmul@prod+3
  3517     06F7                     i1l550:
  3518     06F7  082D               	movf	___flmul@sign,w
  3519     06F8  00A8               	movwf	??___flmul
  3520     06F9  0828               	movf	??___flmul,w
  3521     06FA  04B7               	iorwf	___flmul@prod+3,f
  3522     06FB                     i1l1687:
  3523     06FB  0837               	movf	___flmul@prod+3,w
  3524     06FC  00A3               	movwf	?___flmul+3
  3525     06FD  0836               	movf	___flmul@prod+2,w
  3526     06FE  00A2               	movwf	?___flmul+2
  3527     06FF  0835               	movf	___flmul@prod+1,w
  3528     0700  00A1               	movwf	?___flmul+1
  3529     0701  0834               	movf	___flmul@prod,w
  3530     0702  00A0               	movwf	?___flmul
  3531     0703                     i1l538:
  3532     0703  0008               	return
  3533     0704                     __end_of___flmul:
  3534                           
  3535                           	psect	text10
  3536     0C0E                     __ptext10:	
  3537 ;; *************** function __Umul8_16 *****************
  3538 ;; Defined at:
  3539 ;;		line 4 in file "C:\Program Files\Microchip\xc8\v2.40\pic\sources\c90\common\Umul8_16.c"
  3540 ;; Parameters:    Size  Location     Type
  3541 ;;  multiplier      1    wreg     unsigned char 
  3542 ;;  multiplicand    1    0[COMMON] unsigned char 
  3543 ;; Auto vars:     Size  Location     Type
  3544 ;;  multiplier      1    8[COMMON] unsigned char 
  3545 ;;  word_mpld       2    6[COMMON] unsigned int 
  3546 ;;  product         2    4[COMMON] unsigned int 
  3547 ;; Return value:  Size  Location     Type
  3548 ;;                  2    0[COMMON] unsigned int 
  3549 ;; Registers used:
  3550 ;;		wreg, status,2, status,0
  3551 ;; Tracked objects:
  3552 ;;		On entry : 0/0
  3553 ;;		On exit  : 0/0
  3554 ;;		Unchanged: 0/0
  3555 ;; Data sizes:     COMMON   BANK0   BANK1   BANK3   BANK2
  3556 ;;      Params:         2       0       0       0       0
  3557 ;;      Locals:         5       0       0       0       0
  3558 ;;      Temps:          2       0       0       0       0
  3559 ;;      Totals:         9       0       0       0       0
  3560 ;;Total ram usage:        9 bytes
  3561 ;; Hardware stack levels used: 1
  3562 ;; This function calls:
  3563 ;;		Nothing
  3564 ;; This function is called by:
  3565 ;;		___flmul
  3566 ;; This function uses a non-reentrant model
  3567 ;;
  3568                           
  3569     0C0E                     __Umul8_16:	
  3570                           ;psect for function __Umul8_16
  3571                           
  3572                           
  3573                           ;incstack = 0
  3574                           ; Regs used in __Umul8_16: [wreg+status,2+status,0]
  3575                           ;__Umul8_16@multiplier stored from wreg
  3576     0C0E  00F8               	movwf	__Umul8_16@multiplier
  3577     0C0F                     i1l1247:
  3578     0C0F  01F4               	clrf	__Umul8_16@product
  3579     0C10  01F5               	clrf	__Umul8_16@product+1
  3580     0C11                     i1l1249:
  3581     0C11  0870               	movf	__Umul8_16@multiplicand,w
  3582     0C12  00F2               	movwf	??__Umul8_16
  3583     0C13  01F3               	clrf	??__Umul8_16+1
  3584     0C14  0872               	movf	??__Umul8_16,w
  3585     0C15  00F6               	movwf	__Umul8_16@word_mpld
  3586     0C16  0873               	movf	??__Umul8_16+1,w
  3587     0C17  00F7               	movwf	__Umul8_16@word_mpld+1
  3588     0C18                     i1l1251:
  3589     0C18  1C78               	btfss	__Umul8_16@multiplier,0
  3590     0C19  2C1B               	goto	u128_21
  3591     0C1A  2C1C               	goto	u128_20
  3592     0C1B                     u128_21:
  3593     0C1B  2C22               	goto	i1l557
  3594     0C1C                     u128_20:
  3595     0C1C                     i1l1253:
  3596     0C1C  0876               	movf	__Umul8_16@word_mpld,w
  3597     0C1D  07F4               	addwf	__Umul8_16@product,f
  3598     0C1E  1803               	skipnc
  3599     0C1F  0AF5               	incf	__Umul8_16@product+1,f
  3600     0C20  0877               	movf	__Umul8_16@word_mpld+1,w
  3601     0C21  07F5               	addwf	__Umul8_16@product+1,f
  3602     0C22                     i1l557:
  3603     0C22  3001               	movlw	1
  3604     0C23                     u129_25:
  3605     0C23  1003               	clrc
  3606     0C24  0DF6               	rlf	__Umul8_16@word_mpld,f
  3607     0C25  0DF7               	rlf	__Umul8_16@word_mpld+1,f
  3608     0C26  3EFF               	addlw	-1
  3609     0C27  1D03               	skipz
  3610     0C28  2C23               	goto	u129_25
  3611     0C29  1003               	clrc
  3612     0C2A  0CF8               	rrf	__Umul8_16@multiplier,f
  3613     0C2B                     i1l1255:
  3614     0C2B  0878               	movf	__Umul8_16@multiplier,w
  3615     0C2C  1D03               	btfss	3,2
  3616     0C2D  2C2F               	goto	u130_21
  3617     0C2E  2C30               	goto	u130_20
  3618     0C2F                     u130_21:
  3619     0C2F  2C18               	goto	i1l1251
  3620     0C30                     u130_20:
  3621     0C30                     i1l1257:
  3622     0C30  0875               	movf	__Umul8_16@product+1,w
  3623     0C31  00F1               	movwf	?__Umul8_16+1
  3624     0C32  0874               	movf	__Umul8_16@product,w
  3625     0C33  00F0               	movwf	?__Umul8_16
  3626     0C34                     i1l559:
  3627     0C34  0008               	return
  3628     0C35                     __end_of__Umul8_16:
  3629                           
  3630                           	psect	text11
  3631     0E2D                     __ptext11:	
  3632 ;; *************** function ___fldiv *****************
  3633 ;; Defined at:
  3634 ;;		line 8 in file "C:\Program Files\Microchip\xc8\v2.40\pic\sources\c90\common\sprcdiv.c"
  3635 ;; Parameters:    Size  Location     Type
  3636 ;;  a               4   26[BANK0 ] unsigned int 
  3637 ;;  b               4   30[BANK0 ] unsigned int 
  3638 ;; Auto vars:     Size  Location     Type
  3639 ;;  grs             4   46[BANK0 ] unsigned long 
  3640 ;;  rem             4   39[BANK0 ] unsigned long 
  3641 ;;  new_exp         2   44[BANK0 ] int 
  3642 ;;  aexp            1   51[BANK0 ] unsigned char 
  3643 ;;  bexp            1   50[BANK0 ] unsigned char 
  3644 ;;  sign            1   43[BANK0 ] unsigned char 
  3645 ;; Return value:  Size  Location     Type
  3646 ;;                  4   26[BANK0 ] unsigned char 
  3647 ;; Registers used:
  3648 ;;		wreg, status,2, status,0, btemp+1
  3649 ;; Tracked objects:
  3650 ;;		On entry : 0/0
  3651 ;;		On exit  : 0/0
  3652 ;;		Unchanged: 0/0
  3653 ;; Data sizes:     COMMON   BANK0   BANK1   BANK3   BANK2
  3654 ;;      Params:         0       8       0       0       0
  3655 ;;      Locals:         0      13       0       0       0
  3656 ;;      Temps:          0       5       0       0       0
  3657 ;;      Totals:         0      26       0       0       0
  3658 ;;Total ram usage:       26 bytes
  3659 ;; Hardware stack levels used: 1
  3660 ;; This function calls:
  3661 ;;		Nothing
  3662 ;; This function is called by:
  3663 ;;		_adc
  3664 ;; This function uses a non-reentrant model
  3665 ;;
  3666                           
  3667     0E2D                     ___fldiv:	
  3668                           ;psect for function ___fldiv
  3669                           
  3670     0E2D                     i1l1409:	
  3671                           ;incstack = 0
  3672                           ; Regs used in ___fldiv: [wreg+status,2+status,0+btemp+1]
  3673                           
  3674     0E2D  1283               	bcf	3,5	;RP0=0, select bank0
  3675     0E2E  1303               	bcf	3,6	;RP1=0, select bank0
  3676     0E2F  0841               	movf	___fldiv@b+3,w
  3677     0E30  3980               	andlw	128
  3678     0E31  00CB               	movwf	___fldiv@sign
  3679     0E32                     i1l1411:
  3680     0E32  0841               	movf	___fldiv@b+3,w
  3681     0E33  00C2               	movwf	??___fldiv
  3682     0E34  0742               	addwf	??___fldiv,w
  3683     0E35  00D2               	movwf	___fldiv@bexp
  3684     0E36                     i1l1413:
  3685     0E36  1FC0               	btfss	___fldiv@b+2,7
  3686     0E37  2E39               	goto	u167_21
  3687     0E38  2E3A               	goto	u167_20
  3688     0E39                     u167_21:
  3689     0E39  2E3B               	goto	i1l1417
  3690     0E3A                     u167_20:
  3691     0E3A                     i1l1415:
  3692     0E3A  1452               	bsf	___fldiv@bexp,0
  3693     0E3B                     i1l1417:
  3694     0E3B  0852               	movf	___fldiv@bexp,w
  3695     0E3C  1903               	btfsc	3,2
  3696     0E3D  2E3F               	goto	u168_21
  3697     0E3E  2E40               	goto	u168_20
  3698     0E3F                     u168_21:
  3699     0E3F  2E50               	goto	i1l1427
  3700     0E40                     u168_20:
  3701     0E40                     i1l1419:
  3702     0E40  0A52               	incf	___fldiv@bexp,w
  3703     0E41  1D03               	btfss	3,2
  3704     0E42  2E44               	goto	u169_21
  3705     0E43  2E45               	goto	u169_20
  3706     0E44                     u169_21:
  3707     0E44  2E4D               	goto	i1l1423
  3708     0E45                     u169_20:
  3709     0E45                     i1l1421:
  3710     0E45  3000               	movlw	0
  3711     0E46  00C1               	movwf	___fldiv@b+3
  3712     0E47  3000               	movlw	0
  3713     0E48  00C0               	movwf	___fldiv@b+2
  3714     0E49  3000               	movlw	0
  3715     0E4A  00BF               	movwf	___fldiv@b+1
  3716     0E4B  3000               	movlw	0
  3717     0E4C  00BE               	movwf	___fldiv@b
  3718     0E4D                     i1l1423:
  3719     0E4D  17C0               	bsf	___fldiv@b+2,7
  3720     0E4E                     i1l1425:
  3721     0E4E  01C1               	clrf	___fldiv@b+3
  3722     0E4F  2E58               	goto	i1l1429
  3723     0E50                     i1l1427:
  3724     0E50  3000               	movlw	0
  3725     0E51  00C1               	movwf	___fldiv@b+3
  3726     0E52  3000               	movlw	0
  3727     0E53  00C0               	movwf	___fldiv@b+2
  3728     0E54  3000               	movlw	0
  3729     0E55  00BF               	movwf	___fldiv@b+1
  3730     0E56  3000               	movlw	0
  3731     0E57  00BE               	movwf	___fldiv@b
  3732     0E58                     i1l1429:
  3733     0E58  083D               	movf	___fldiv@a+3,w
  3734     0E59  3980               	andlw	128
  3735     0E5A  00C2               	movwf	??___fldiv
  3736     0E5B  0842               	movf	??___fldiv,w
  3737     0E5C  06CB               	xorwf	___fldiv@sign,f
  3738     0E5D                     i1l1431:
  3739     0E5D  083D               	movf	___fldiv@a+3,w
  3740     0E5E  00C2               	movwf	??___fldiv
  3741     0E5F  0742               	addwf	??___fldiv,w
  3742     0E60  00D3               	movwf	___fldiv@aexp
  3743     0E61                     i1l1433:
  3744     0E61  1FBC               	btfss	___fldiv@a+2,7
  3745     0E62  2E64               	goto	u170_21
  3746     0E63  2E65               	goto	u170_20
  3747     0E64                     u170_21:
  3748     0E64  2E66               	goto	i1l1437
  3749     0E65                     u170_20:
  3750     0E65                     i1l1435:
  3751     0E65  1453               	bsf	___fldiv@aexp,0
  3752     0E66                     i1l1437:
  3753     0E66  0853               	movf	___fldiv@aexp,w
  3754     0E67  1903               	btfsc	3,2
  3755     0E68  2E6A               	goto	u171_21
  3756     0E69  2E6B               	goto	u171_20
  3757     0E6A                     u171_21:
  3758     0E6A  2E7B               	goto	i1l1447
  3759     0E6B                     u171_20:
  3760     0E6B                     i1l1439:
  3761     0E6B  0A53               	incf	___fldiv@aexp,w
  3762     0E6C  1D03               	btfss	3,2
  3763     0E6D  2E6F               	goto	u172_21
  3764     0E6E  2E70               	goto	u172_20
  3765     0E6F                     u172_21:
  3766     0E6F  2E78               	goto	i1l1443
  3767     0E70                     u172_20:
  3768     0E70                     i1l1441:
  3769     0E70  3000               	movlw	0
  3770     0E71  00BD               	movwf	___fldiv@a+3
  3771     0E72  3000               	movlw	0
  3772     0E73  00BC               	movwf	___fldiv@a+2
  3773     0E74  3000               	movlw	0
  3774     0E75  00BB               	movwf	___fldiv@a+1
  3775     0E76  3000               	movlw	0
  3776     0E77  00BA               	movwf	___fldiv@a
  3777     0E78                     i1l1443:
  3778     0E78  17BC               	bsf	___fldiv@a+2,7
  3779     0E79                     i1l1445:
  3780     0E79  01BD               	clrf	___fldiv@a+3
  3781     0E7A  2E83               	goto	i1l498
  3782     0E7B                     i1l1447:
  3783     0E7B  3000               	movlw	0
  3784     0E7C  00BD               	movwf	___fldiv@a+3
  3785     0E7D  3000               	movlw	0
  3786     0E7E  00BC               	movwf	___fldiv@a+2
  3787     0E7F  3000               	movlw	0
  3788     0E80  00BB               	movwf	___fldiv@a+1
  3789     0E81  3000               	movlw	0
  3790     0E82  00BA               	movwf	___fldiv@a
  3791     0E83                     i1l498:
  3792     0E83  083D               	movf	___fldiv@a+3,w
  3793     0E84  043C               	iorwf	___fldiv@a+2,w
  3794     0E85  043B               	iorwf	___fldiv@a+1,w
  3795     0E86  043A               	iorwf	___fldiv@a,w
  3796     0E87  1D03               	skipz
  3797     0E88  2E8A               	goto	u173_21
  3798     0E89  2E8B               	goto	u173_20
  3799     0E8A                     u173_21:
  3800     0E8A  2EA4               	goto	i1l1457
  3801     0E8B                     u173_20:
  3802     0E8B                     i1l1449:
  3803     0E8B  3000               	movlw	0
  3804     0E8C  00C1               	movwf	___fldiv@b+3
  3805     0E8D  3000               	movlw	0
  3806     0E8E  00C0               	movwf	___fldiv@b+2
  3807     0E8F  3000               	movlw	0
  3808     0E90  00BF               	movwf	___fldiv@b+1
  3809     0E91  3000               	movlw	0
  3810     0E92  00BE               	movwf	___fldiv@b
  3811     0E93  3080               	movlw	128
  3812     0E94  04C0               	iorwf	___fldiv@b+2,f
  3813     0E95  307F               	movlw	127
  3814     0E96  04C1               	iorwf	___fldiv@b+3,f
  3815     0E97                     i1l1451:
  3816     0E97  084B               	movf	___fldiv@sign,w
  3817     0E98  00C2               	movwf	??___fldiv
  3818     0E99  0842               	movf	??___fldiv,w
  3819     0E9A  04C1               	iorwf	___fldiv@b+3,f
  3820     0E9B                     i1l1453:
  3821     0E9B  0841               	movf	___fldiv@b+3,w
  3822     0E9C  00BD               	movwf	?___fldiv+3
  3823     0E9D  0840               	movf	___fldiv@b+2,w
  3824     0E9E  00BC               	movwf	?___fldiv+2
  3825     0E9F  083F               	movf	___fldiv@b+1,w
  3826     0EA0  00BB               	movwf	?___fldiv+1
  3827     0EA1  083E               	movf	___fldiv@b,w
  3828     0EA2  00BA               	movwf	?___fldiv
  3829     0EA3  2FFF               	goto	i1l500
  3830     0EA4                     i1l1457:
  3831     0EA4  0852               	movf	___fldiv@bexp,w
  3832     0EA5  1D03               	btfss	3,2
  3833     0EA6  2EA8               	goto	u174_21
  3834     0EA7  2EA9               	goto	u174_20
  3835     0EA8                     u174_21:
  3836     0EA8  2EB2               	goto	i1l1463
  3837     0EA9                     u174_20:
  3838     0EA9                     i1l1459:
  3839     0EA9  3000               	movlw	0
  3840     0EAA  00BD               	movwf	?___fldiv+3
  3841     0EAB  3000               	movlw	0
  3842     0EAC  00BC               	movwf	?___fldiv+2
  3843     0EAD  3000               	movlw	0
  3844     0EAE  00BB               	movwf	?___fldiv+1
  3845     0EAF  3000               	movlw	0
  3846     0EB0  00BA               	movwf	?___fldiv
  3847     0EB1  2FFF               	goto	i1l500
  3848     0EB2                     i1l1463:
  3849     0EB2  0852               	movf	___fldiv@bexp,w
  3850     0EB3  00C2               	movwf	??___fldiv
  3851     0EB4  01C3               	clrf	??___fldiv+1
  3852     0EB5  0843               	movf	??___fldiv+1,w
  3853     0EB6  00C5               	movwf	??___fldiv+3
  3854     0EB7  0853               	movf	___fldiv@aexp,w
  3855     0EB8  0242               	subwf	??___fldiv,w
  3856     0EB9  00C4               	movwf	??___fldiv+2
  3857     0EBA  1C03               	skipc
  3858     0EBB  03C5               	decf	??___fldiv+3,f
  3859     0EBC  0844               	movf	??___fldiv+2,w
  3860     0EBD  3E7F               	addlw	127
  3861     0EBE  00CC               	movwf	___fldiv@new_exp
  3862     0EBF  0845               	movf	??___fldiv+3,w
  3863     0EC0  1803               	skipnc
  3864     0EC1  3E01               	addlw	1
  3865     0EC2  3E00               	addlw	0
  3866     0EC3  00CD               	movwf	___fldiv@new_exp+1
  3867     0EC4                     i1l1465:
  3868     0EC4  0841               	movf	___fldiv@b+3,w
  3869     0EC5  00CA               	movwf	___fldiv@rem+3
  3870     0EC6  0840               	movf	___fldiv@b+2,w
  3871     0EC7  00C9               	movwf	___fldiv@rem+2
  3872     0EC8  083F               	movf	___fldiv@b+1,w
  3873     0EC9  00C8               	movwf	___fldiv@rem+1
  3874     0ECA  083E               	movf	___fldiv@b,w
  3875     0ECB  00C7               	movwf	___fldiv@rem
  3876     0ECC                     i1l1467:
  3877     0ECC  3000               	movlw	0
  3878     0ECD  00C1               	movwf	___fldiv@b+3
  3879     0ECE  3000               	movlw	0
  3880     0ECF  00C0               	movwf	___fldiv@b+2
  3881     0ED0  3000               	movlw	0
  3882     0ED1  00BF               	movwf	___fldiv@b+1
  3883     0ED2  3000               	movlw	0
  3884     0ED3  00BE               	movwf	___fldiv@b
  3885     0ED4                     i1l1469:
  3886     0ED4  3000               	movlw	0
  3887     0ED5  00D1               	movwf	___fldiv@grs+3
  3888     0ED6  3000               	movlw	0
  3889     0ED7  00D0               	movwf	___fldiv@grs+2
  3890     0ED8  3000               	movlw	0
  3891     0ED9  00CF               	movwf	___fldiv@grs+1
  3892     0EDA  3000               	movlw	0
  3893     0EDB  00CE               	movwf	___fldiv@grs
  3894     0EDC                     i1l1471:
  3895     0EDC  01D3               	clrf	___fldiv@aexp
  3896     0EDD  2F28               	goto	i1l1491
  3897     0EDE                     i1l1473:
  3898     0EDE  0853               	movf	___fldiv@aexp,w
  3899     0EDF  1903               	btfsc	3,2
  3900     0EE0  2EE2               	goto	u175_21
  3901     0EE1  2EE3               	goto	u175_20
  3902     0EE2                     u175_21:
  3903     0EE2  2F03               	goto	i1l1483
  3904     0EE3                     u175_20:
  3905     0EE3                     i1l1475:
  3906     0EE3  3001               	movlw	1
  3907     0EE4  00C2               	movwf	??___fldiv
  3908     0EE5                     u176_25:
  3909     0EE5  1003               	clrc
  3910     0EE6  0DC7               	rlf	___fldiv@rem,f
  3911     0EE7  0DC8               	rlf	___fldiv@rem+1,f
  3912     0EE8  0DC9               	rlf	___fldiv@rem+2,f
  3913     0EE9  0DCA               	rlf	___fldiv@rem+3,f
  3914     0EEA  0BC2               	decfsz	??___fldiv,f
  3915     0EEB  2EE5               	goto	u176_25
  3916     0EEC  3001               	movlw	1
  3917     0EED  00C2               	movwf	??___fldiv
  3918     0EEE                     u177_25:
  3919     0EEE  1003               	clrc
  3920     0EEF  0DBE               	rlf	___fldiv@b,f
  3921     0EF0  0DBF               	rlf	___fldiv@b+1,f
  3922     0EF1  0DC0               	rlf	___fldiv@b+2,f
  3923     0EF2  0DC1               	rlf	___fldiv@b+3,f
  3924     0EF3  0BC2               	decfsz	??___fldiv,f
  3925     0EF4  2EEE               	goto	u177_25
  3926     0EF5                     i1l1477:
  3927     0EF5  1FD1               	btfss	___fldiv@grs+3,7
  3928     0EF6  2EF8               	goto	u178_21
  3929     0EF7  2EF9               	goto	u178_20
  3930     0EF8                     u178_21:
  3931     0EF8  2EFA               	goto	i1l1481
  3932     0EF9                     u178_20:
  3933     0EF9                     i1l1479:
  3934     0EF9  143E               	bsf	___fldiv@b,0
  3935     0EFA                     i1l1481:
  3936     0EFA  3001               	movlw	1
  3937     0EFB  00C2               	movwf	??___fldiv
  3938     0EFC                     u179_25:
  3939     0EFC  1003               	clrc
  3940     0EFD  0DCE               	rlf	___fldiv@grs,f
  3941     0EFE  0DCF               	rlf	___fldiv@grs+1,f
  3942     0EFF  0DD0               	rlf	___fldiv@grs+2,f
  3943     0F00  0DD1               	rlf	___fldiv@grs+3,f
  3944     0F01  0BC2               	decfsz	??___fldiv,f
  3945     0F02  2EFC               	goto	u179_25
  3946     0F03                     i1l1483:
  3947     0F03  083D               	movf	___fldiv@a+3,w
  3948     0F04  024A               	subwf	___fldiv@rem+3,w
  3949     0F05  1D03               	skipz
  3950     0F06  2F11               	goto	u180_25
  3951     0F07  083C               	movf	___fldiv@a+2,w
  3952     0F08  0249               	subwf	___fldiv@rem+2,w
  3953     0F09  1D03               	skipz
  3954     0F0A  2F11               	goto	u180_25
  3955     0F0B  083B               	movf	___fldiv@a+1,w
  3956     0F0C  0248               	subwf	___fldiv@rem+1,w
  3957     0F0D  1D03               	skipz
  3958     0F0E  2F11               	goto	u180_25
  3959     0F0F  083A               	movf	___fldiv@a,w
  3960     0F10  0247               	subwf	___fldiv@rem,w
  3961     0F11                     u180_25:
  3962     0F11  1C03               	skipc
  3963     0F12  2F14               	goto	u180_21
  3964     0F13  2F15               	goto	u180_20
  3965     0F14                     u180_21:
  3966     0F14  2F24               	goto	i1l1489
  3967     0F15                     u180_20:
  3968     0F15                     i1l1485:
  3969     0F15  1751               	bsf	___fldiv@grs+3,6
  3970     0F16                     i1l1487:
  3971     0F16  083A               	movf	___fldiv@a,w
  3972     0F17  02C7               	subwf	___fldiv@rem,f
  3973     0F18  083B               	movf	___fldiv@a+1,w
  3974     0F19  1C03               	skipc
  3975     0F1A  0F3B               	incfsz	___fldiv@a+1,w
  3976     0F1B  02C8               	subwf	___fldiv@rem+1,f
  3977     0F1C  083C               	movf	___fldiv@a+2,w
  3978     0F1D  1C03               	skipc
  3979     0F1E  0F3C               	incfsz	___fldiv@a+2,w
  3980     0F1F  02C9               	subwf	___fldiv@rem+2,f
  3981     0F20  083D               	movf	___fldiv@a+3,w
  3982     0F21  1C03               	skipc
  3983     0F22  0F3D               	incfsz	___fldiv@a+3,w
  3984     0F23  02CA               	subwf	___fldiv@rem+3,f
  3985     0F24                     i1l1489:
  3986     0F24  3001               	movlw	1
  3987     0F25  00C2               	movwf	??___fldiv
  3988     0F26  0842               	movf	??___fldiv,w
  3989     0F27  07D3               	addwf	___fldiv@aexp,f
  3990     0F28                     i1l1491:
  3991     0F28  301A               	movlw	26
  3992     0F29  0253               	subwf	___fldiv@aexp,w
  3993     0F2A  1C03               	skipc
  3994     0F2B  2F2D               	goto	u181_21
  3995     0F2C  2F2E               	goto	u181_20
  3996     0F2D                     u181_21:
  3997     0F2D  2EDE               	goto	i1l1473
  3998     0F2E                     u181_20:
  3999     0F2E                     i1l1493:
  4000     0F2E  084A               	movf	___fldiv@rem+3,w
  4001     0F2F  0449               	iorwf	___fldiv@rem+2,w
  4002     0F30  0448               	iorwf	___fldiv@rem+1,w
  4003     0F31  0447               	iorwf	___fldiv@rem,w
  4004     0F32  1903               	skipnz
  4005     0F33  2F35               	goto	u182_21
  4006     0F34  2F36               	goto	u182_20
  4007     0F35                     u182_21:
  4008     0F35  2F55               	goto	i1l1507
  4009     0F36                     u182_20:
  4010     0F36                     i1l1495:
  4011     0F36  144E               	bsf	___fldiv@grs,0
  4012     0F37  2F55               	goto	i1l1507
  4013     0F38                     i1l1497:
  4014     0F38  3001               	movlw	1
  4015     0F39  00C2               	movwf	??___fldiv
  4016     0F3A                     u183_25:
  4017     0F3A  1003               	clrc
  4018     0F3B  0DBE               	rlf	___fldiv@b,f
  4019     0F3C  0DBF               	rlf	___fldiv@b+1,f
  4020     0F3D  0DC0               	rlf	___fldiv@b+2,f
  4021     0F3E  0DC1               	rlf	___fldiv@b+3,f
  4022     0F3F  0BC2               	decfsz	??___fldiv,f
  4023     0F40  2F3A               	goto	u183_25
  4024     0F41                     i1l1499:
  4025     0F41  1FD1               	btfss	___fldiv@grs+3,7
  4026     0F42  2F44               	goto	u184_21
  4027     0F43  2F45               	goto	u184_20
  4028     0F44                     u184_21:
  4029     0F44  2F46               	goto	i1l1503
  4030     0F45                     u184_20:
  4031     0F45                     i1l1501:
  4032     0F45  143E               	bsf	___fldiv@b,0
  4033     0F46                     i1l1503:
  4034     0F46  3001               	movlw	1
  4035     0F47  00C2               	movwf	??___fldiv
  4036     0F48                     u185_25:
  4037     0F48  1003               	clrc
  4038     0F49  0DCE               	rlf	___fldiv@grs,f
  4039     0F4A  0DCF               	rlf	___fldiv@grs+1,f
  4040     0F4B  0DD0               	rlf	___fldiv@grs+2,f
  4041     0F4C  0DD1               	rlf	___fldiv@grs+3,f
  4042     0F4D  0BC2               	decfsz	??___fldiv,f
  4043     0F4E  2F48               	goto	u185_25
  4044     0F4F                     i1l1505:
  4045     0F4F  30FF               	movlw	255
  4046     0F50  07CC               	addwf	___fldiv@new_exp,f
  4047     0F51  1803               	skipnc
  4048     0F52  0ACD               	incf	___fldiv@new_exp+1,f
  4049     0F53  30FF               	movlw	255
  4050     0F54  07CD               	addwf	___fldiv@new_exp+1,f
  4051     0F55                     i1l1507:
  4052     0F55  1FC0               	btfss	___fldiv@b+2,7
  4053     0F56  2F58               	goto	u186_21
  4054     0F57  2F59               	goto	u186_20
  4055     0F58                     u186_21:
  4056     0F58  2F38               	goto	i1l1497
  4057     0F59                     u186_20:
  4058     0F59                     i1l1509:
  4059     0F59  01D3               	clrf	___fldiv@aexp
  4060     0F5A                     i1l1511:
  4061     0F5A  1FD1               	btfss	___fldiv@grs+3,7
  4062     0F5B  2F5D               	goto	u187_21
  4063     0F5C  2F5E               	goto	u187_20
  4064     0F5D                     u187_21:
  4065     0F5D  2F7A               	goto	i1l1519
  4066     0F5E                     u187_20:
  4067     0F5E                     i1l1513:
  4068     0F5E  30FF               	movlw	255
  4069     0F5F  054E               	andwf	___fldiv@grs,w
  4070     0F60  00C2               	movwf	??___fldiv
  4071     0F61  30FF               	movlw	255
  4072     0F62  054F               	andwf	___fldiv@grs+1,w
  4073     0F63  00C3               	movwf	??___fldiv+1
  4074     0F64  30FF               	movlw	255
  4075     0F65  0550               	andwf	___fldiv@grs+2,w
  4076     0F66  00C4               	movwf	??___fldiv+2
  4077     0F67  307F               	movlw	127
  4078     0F68  0551               	andwf	___fldiv@grs+3,w
  4079     0F69  00C5               	movwf	??___fldiv+3
  4080     0F6A  0845               	movf	??___fldiv+3,w
  4081     0F6B  0444               	iorwf	??___fldiv+2,w
  4082     0F6C  0443               	iorwf	??___fldiv+1,w
  4083     0F6D  0442               	iorwf	??___fldiv,w
  4084     0F6E  1903               	skipnz
  4085     0F6F  2F71               	goto	u188_21
  4086     0F70  2F72               	goto	u188_20
  4087     0F71                     u188_21:
  4088     0F71  2F75               	goto	i1l514
  4089     0F72                     u188_20:
  4090     0F72                     i1l1515:
  4091     0F72  01D3               	clrf	___fldiv@aexp
  4092     0F73  0AD3               	incf	___fldiv@aexp,f
  4093     0F74  2F7A               	goto	i1l1519
  4094     0F75                     i1l514:
  4095     0F75  1C3E               	btfss	___fldiv@b,0
  4096     0F76  2F78               	goto	u189_21
  4097     0F77  2F79               	goto	u189_20
  4098     0F78                     u189_21:
  4099     0F78  2F7A               	goto	i1l1519
  4100     0F79                     u189_20:
  4101     0F79  2F72               	goto	i1l1515
  4102     0F7A                     i1l1519:
  4103     0F7A  0853               	movf	___fldiv@aexp,w
  4104     0F7B  1903               	btfsc	3,2
  4105     0F7C  2F7E               	goto	u190_21
  4106     0F7D  2F7F               	goto	u190_20
  4107     0F7E                     u190_21:
  4108     0F7E  2FB0               	goto	i1l1529
  4109     0F7F                     u190_20:
  4110     0F7F                     i1l1521:
  4111     0F7F  3001               	movlw	1
  4112     0F80  07BE               	addwf	___fldiv@b,f
  4113     0F81  3000               	movlw	0
  4114     0F82  1803               	skipnc
  4115     0F83  3001               	movlw	1
  4116     0F84  07BF               	addwf	___fldiv@b+1,f
  4117     0F85  3000               	movlw	0
  4118     0F86  1803               	skipnc
  4119     0F87  3001               	movlw	1
  4120     0F88  07C0               	addwf	___fldiv@b+2,f
  4121     0F89  3000               	movlw	0
  4122     0F8A  1803               	skipnc
  4123     0F8B  3001               	movlw	1
  4124     0F8C  07C1               	addwf	___fldiv@b+3,f
  4125     0F8D                     i1l1523:
  4126     0F8D  1C41               	btfss	___fldiv@b+3,0
  4127     0F8E  2F90               	goto	u191_21
  4128     0F8F  2F91               	goto	u191_20
  4129     0F90                     u191_21:
  4130     0F90  2FB0               	goto	i1l1529
  4131     0F91                     u191_20:
  4132     0F91                     i1l1525:
  4133     0F91  083E               	movf	___fldiv@b,w
  4134     0F92  00C2               	movwf	??___fldiv
  4135     0F93  083F               	movf	___fldiv@b+1,w
  4136     0F94  00C3               	movwf	??___fldiv+1
  4137     0F95  0840               	movf	___fldiv@b+2,w
  4138     0F96  00C4               	movwf	??___fldiv+2
  4139     0F97  0841               	movf	___fldiv@b+3,w
  4140     0F98  00C5               	movwf	??___fldiv+3
  4141     0F99  3001               	movlw	1
  4142     0F9A  00C6               	movwf	??___fldiv+4
  4143     0F9B                     u192_25:
  4144     0F9B  0D45               	rlf	??___fldiv+3,w
  4145     0F9C  0CC5               	rrf	??___fldiv+3,f
  4146     0F9D  0CC4               	rrf	??___fldiv+2,f
  4147     0F9E  0CC3               	rrf	??___fldiv+1,f
  4148     0F9F  0CC2               	rrf	??___fldiv,f
  4149     0FA0                     u192_20:
  4150     0FA0  0BC6               	decfsz	??___fldiv+4,f
  4151     0FA1  2F9B               	goto	u192_25
  4152     0FA2  0845               	movf	??___fldiv+3,w
  4153     0FA3  00C1               	movwf	___fldiv@b+3
  4154     0FA4  0844               	movf	??___fldiv+2,w
  4155     0FA5  00C0               	movwf	___fldiv@b+2
  4156     0FA6  0843               	movf	??___fldiv+1,w
  4157     0FA7  00BF               	movwf	___fldiv@b+1
  4158     0FA8  0842               	movf	??___fldiv,w
  4159     0FA9  00BE               	movwf	___fldiv@b
  4160     0FAA                     i1l1527:
  4161     0FAA  3001               	movlw	1
  4162     0FAB  07CC               	addwf	___fldiv@new_exp,f
  4163     0FAC  1803               	skipnc
  4164     0FAD  0ACD               	incf	___fldiv@new_exp+1,f
  4165     0FAE  3000               	movlw	0
  4166     0FAF  07CD               	addwf	___fldiv@new_exp+1,f
  4167     0FB0                     i1l1529:
  4168     0FB0  084D               	movf	___fldiv@new_exp+1,w
  4169     0FB1  3A80               	xorlw	128
  4170     0FB2  00FF               	movwf	btemp+1
  4171     0FB3  3080               	movlw	128
  4172     0FB4  027F               	subwf	btemp+1,w
  4173     0FB5  1D03               	skipz
  4174     0FB6  2FB9               	goto	u193_25
  4175     0FB7  30FF               	movlw	255
  4176     0FB8  024C               	subwf	___fldiv@new_exp,w
  4177     0FB9                     u193_25:
  4178     0FB9  1C03               	skipc
  4179     0FBA  2FBC               	goto	u193_21
  4180     0FBB  2FBD               	goto	u193_20
  4181     0FBC                     u193_21:
  4182     0FBC  2FCB               	goto	i1l1533
  4183     0FBD                     u193_20:
  4184     0FBD                     i1l1531:
  4185     0FBD  30FF               	movlw	255
  4186     0FBE  1283               	bcf	3,5	;RP0=0, select bank0
  4187     0FBF  1303               	bcf	3,6	;RP1=0, select bank0
  4188     0FC0  00CC               	movwf	___fldiv@new_exp
  4189     0FC1  3000               	movlw	0
  4190     0FC2  00CD               	movwf	___fldiv@new_exp+1
  4191     0FC3  3000               	movlw	0
  4192     0FC4  00C1               	movwf	___fldiv@b+3
  4193     0FC5  3000               	movlw	0
  4194     0FC6  00C0               	movwf	___fldiv@b+2
  4195     0FC7  3000               	movlw	0
  4196     0FC8  00BF               	movwf	___fldiv@b+1
  4197     0FC9  3000               	movlw	0
  4198     0FCA  00BE               	movwf	___fldiv@b
  4199     0FCB                     i1l1533:
  4200     0FCB  1283               	bcf	3,5	;RP0=0, select bank0
  4201     0FCC  1303               	bcf	3,6	;RP1=0, select bank0
  4202     0FCD  084D               	movf	___fldiv@new_exp+1,w
  4203     0FCE  3A80               	xorlw	128
  4204     0FCF  00FF               	movwf	btemp+1
  4205     0FD0  3080               	movlw	128
  4206     0FD1  027F               	subwf	btemp+1,w
  4207     0FD2  1D03               	skipz
  4208     0FD3  2FD6               	goto	u194_25
  4209     0FD4  3001               	movlw	1
  4210     0FD5  024C               	subwf	___fldiv@new_exp,w
  4211     0FD6                     u194_25:
  4212     0FD6  1803               	skipnc
  4213     0FD7  2FD9               	goto	u194_21
  4214     0FD8  2FDA               	goto	u194_20
  4215     0FD9                     u194_21:
  4216     0FD9  2FE7               	goto	i1l520
  4217     0FDA                     u194_20:
  4218     0FDA                     i1l1535:
  4219     0FDA  1283               	bcf	3,5	;RP0=0, select bank0
  4220     0FDB  1303               	bcf	3,6	;RP1=0, select bank0
  4221     0FDC  01CC               	clrf	___fldiv@new_exp
  4222     0FDD  01CD               	clrf	___fldiv@new_exp+1
  4223     0FDE                     i1l1537:
  4224     0FDE  3000               	movlw	0
  4225     0FDF  00C1               	movwf	___fldiv@b+3
  4226     0FE0  3000               	movlw	0
  4227     0FE1  00C0               	movwf	___fldiv@b+2
  4228     0FE2  3000               	movlw	0
  4229     0FE3  00BF               	movwf	___fldiv@b+1
  4230     0FE4  3000               	movlw	0
  4231     0FE5  00BE               	movwf	___fldiv@b
  4232     0FE6                     i1l1539:
  4233     0FE6  01CB               	clrf	___fldiv@sign
  4234     0FE7                     i1l520:
  4235     0FE7  1283               	bcf	3,5	;RP0=0, select bank0
  4236     0FE8  1303               	bcf	3,6	;RP1=0, select bank0
  4237     0FE9  084C               	movf	___fldiv@new_exp,w
  4238     0FEA  00D2               	movwf	___fldiv@bexp
  4239     0FEB                     i1l1541:
  4240     0FEB  1C52               	btfss	___fldiv@bexp,0
  4241     0FEC  2FEE               	goto	u195_21
  4242     0FED  2FEF               	goto	u195_20
  4243     0FEE                     u195_21:
  4244     0FEE  2FF1               	goto	i1l1545
  4245     0FEF                     u195_20:
  4246     0FEF                     i1l1543:
  4247     0FEF  17C0               	bsf	___fldiv@b+2,7
  4248     0FF0  2FF5               	goto	i1l522
  4249     0FF1                     i1l1545:
  4250     0FF1  307F               	movlw	127
  4251     0FF2  00C2               	movwf	??___fldiv
  4252     0FF3  0842               	movf	??___fldiv,w
  4253     0FF4  05C0               	andwf	___fldiv@b+2,f
  4254     0FF5                     i1l522:
  4255     0FF5  0852               	movf	___fldiv@bexp,w
  4256     0FF6  00C2               	movwf	??___fldiv
  4257     0FF7  1003               	clrc
  4258     0FF8  0C42               	rrf	??___fldiv,w
  4259     0FF9  00C1               	movwf	___fldiv@b+3
  4260     0FFA  084B               	movf	___fldiv@sign,w
  4261     0FFB  00C2               	movwf	??___fldiv
  4262     0FFC  0842               	movf	??___fldiv,w
  4263     0FFD  04C1               	iorwf	___fldiv@b+3,f
  4264     0FFE  2E9B               	goto	i1l1453
  4265     0FFF                     i1l500:
  4266     0FFF  0008               	return
  4267     1000                     __end_of___fldiv:
  4268                           
  4269                           	psect	text12
  4270     0CCF                     __ptext12:	
  4271 ;; *************** function ___awmod *****************
  4272 ;; Defined at:
  4273 ;;		line 5 in file "C:\Program Files\Microchip\xc8\v2.40\pic\sources\c90\common\awmod.c"
  4274 ;; Parameters:    Size  Location     Type
  4275 ;;  divisor         2   68[BANK0 ] int 
  4276 ;;  dividend        2   70[BANK0 ] int 
  4277 ;; Auto vars:     Size  Location     Type
  4278 ;;  sign            1   74[BANK0 ] unsigned char 
  4279 ;;  counter         1   73[BANK0 ] unsigned char 
  4280 ;; Return value:  Size  Location     Type
  4281 ;;                  2   68[BANK0 ] int 
  4282 ;; Registers used:
  4283 ;;		wreg, status,2, status,0
  4284 ;; Tracked objects:
  4285 ;;		On entry : 0/0
  4286 ;;		On exit  : 0/0
  4287 ;;		Unchanged: 0/0
  4288 ;; Data sizes:     COMMON   BANK0   BANK1   BANK3   BANK2
  4289 ;;      Params:         0       4       0       0       0
  4290 ;;      Locals:         0       2       0       0       0
  4291 ;;      Temps:          0       1       0       0       0
  4292 ;;      Totals:         0       7       0       0       0
  4293 ;;Total ram usage:        7 bytes
  4294 ;; Hardware stack levels used: 1
  4295 ;; This function calls:
  4296 ;;		Nothing
  4297 ;; This function is called by:
  4298 ;;		_adc
  4299 ;; This function uses a non-reentrant model
  4300 ;;
  4301                           
  4302     0CCF                     ___awmod:	
  4303                           ;psect for function ___awmod
  4304                           
  4305     0CCF                     i1l1335:	
  4306                           ;incstack = 0
  4307                           ; Regs used in ___awmod: [wreg+status,2+status,0]
  4308                           
  4309     0CCF  1283               	bcf	3,5	;RP0=0, select bank0
  4310     0CD0  1303               	bcf	3,6	;RP1=0, select bank0
  4311     0CD1  01EA               	clrf	___awmod@sign
  4312     0CD2                     i1l1337:
  4313     0CD2  1FE7               	btfss	___awmod@dividend+1,7
  4314     0CD3  2CD5               	goto	u148_21
  4315     0CD4  2CD6               	goto	u148_20
  4316     0CD5                     u148_21:
  4317     0CD5  2CDD               	goto	i1l1343
  4318     0CD6                     u148_20:
  4319     0CD6                     i1l1339:
  4320     0CD6  09E6               	comf	___awmod@dividend,f
  4321     0CD7  09E7               	comf	___awmod@dividend+1,f
  4322     0CD8  0AE6               	incf	___awmod@dividend,f
  4323     0CD9  1903               	skipnz
  4324     0CDA  0AE7               	incf	___awmod@dividend+1,f
  4325     0CDB                     i1l1341:
  4326     0CDB  01EA               	clrf	___awmod@sign
  4327     0CDC  0AEA               	incf	___awmod@sign,f
  4328     0CDD                     i1l1343:
  4329     0CDD  1FE5               	btfss	___awmod@divisor+1,7
  4330     0CDE  2CE0               	goto	u149_21
  4331     0CDF  2CE1               	goto	u149_20
  4332     0CE0                     u149_21:
  4333     0CE0  2CE6               	goto	i1l1347
  4334     0CE1                     u149_20:
  4335     0CE1                     i1l1345:
  4336     0CE1  09E4               	comf	___awmod@divisor,f
  4337     0CE2  09E5               	comf	___awmod@divisor+1,f
  4338     0CE3  0AE4               	incf	___awmod@divisor,f
  4339     0CE4  1903               	skipnz
  4340     0CE5  0AE5               	incf	___awmod@divisor+1,f
  4341     0CE6                     i1l1347:
  4342     0CE6  0864               	movf	___awmod@divisor,w
  4343     0CE7  0465               	iorwf	___awmod@divisor+1,w
  4344     0CE8  1903               	btfsc	3,2
  4345     0CE9  2CEB               	goto	u150_21
  4346     0CEA  2CEC               	goto	u150_20
  4347     0CEB                     u150_21:
  4348     0CEB  2D1B               	goto	i1l1365
  4349     0CEC                     u150_20:
  4350     0CEC                     i1l1349:
  4351     0CEC  01E9               	clrf	___awmod@counter
  4352     0CED  0AE9               	incf	___awmod@counter,f
  4353     0CEE  2CFA               	goto	i1l1355
  4354     0CEF                     i1l1351:
  4355     0CEF  3001               	movlw	1
  4356     0CF0                     u151_25:
  4357     0CF0  1003               	clrc
  4358     0CF1  0DE4               	rlf	___awmod@divisor,f
  4359     0CF2  0DE5               	rlf	___awmod@divisor+1,f
  4360     0CF3  3EFF               	addlw	-1
  4361     0CF4  1D03               	skipz
  4362     0CF5  2CF0               	goto	u151_25
  4363     0CF6                     i1l1353:
  4364     0CF6  3001               	movlw	1
  4365     0CF7  00E8               	movwf	??___awmod
  4366     0CF8  0868               	movf	??___awmod,w
  4367     0CF9  07E9               	addwf	___awmod@counter,f
  4368     0CFA                     i1l1355:
  4369     0CFA  1FE5               	btfss	___awmod@divisor+1,7
  4370     0CFB  2CFD               	goto	u152_21
  4371     0CFC  2CFE               	goto	u152_20
  4372     0CFD                     u152_21:
  4373     0CFD  2CEF               	goto	i1l1351
  4374     0CFE                     u152_20:
  4375     0CFE                     i1l1357:
  4376     0CFE  0865               	movf	___awmod@divisor+1,w
  4377     0CFF  0267               	subwf	___awmod@dividend+1,w
  4378     0D00  1D03               	skipz
  4379     0D01  2D04               	goto	u153_25
  4380     0D02  0864               	movf	___awmod@divisor,w
  4381     0D03  0266               	subwf	___awmod@dividend,w
  4382     0D04                     u153_25:
  4383     0D04  1C03               	skipc
  4384     0D05  2D07               	goto	u153_21
  4385     0D06  2D08               	goto	u153_20
  4386     0D07                     u153_21:
  4387     0D07  2D0E               	goto	i1l1361
  4388     0D08                     u153_20:
  4389     0D08                     i1l1359:
  4390     0D08  0864               	movf	___awmod@divisor,w
  4391     0D09  02E6               	subwf	___awmod@dividend,f
  4392     0D0A  0865               	movf	___awmod@divisor+1,w
  4393     0D0B  1C03               	skipc
  4394     0D0C  03E7               	decf	___awmod@dividend+1,f
  4395     0D0D  02E7               	subwf	___awmod@dividend+1,f
  4396     0D0E                     i1l1361:
  4397     0D0E  3001               	movlw	1
  4398     0D0F                     u154_25:
  4399     0D0F  1003               	clrc
  4400     0D10  0CE5               	rrf	___awmod@divisor+1,f
  4401     0D11  0CE4               	rrf	___awmod@divisor,f
  4402     0D12  3EFF               	addlw	-1
  4403     0D13  1D03               	skipz
  4404     0D14  2D0F               	goto	u154_25
  4405     0D15                     i1l1363:
  4406     0D15  3001               	movlw	1
  4407     0D16  02E9               	subwf	___awmod@counter,f
  4408     0D17  1D03               	btfss	3,2
  4409     0D18  2D1A               	goto	u155_21
  4410     0D19  2D1B               	goto	u155_20
  4411     0D1A                     u155_21:
  4412     0D1A  2CFE               	goto	i1l1357
  4413     0D1B                     u155_20:
  4414     0D1B                     i1l1365:
  4415     0D1B  086A               	movf	___awmod@sign,w
  4416     0D1C  1903               	btfsc	3,2
  4417     0D1D  2D1F               	goto	u156_21
  4418     0D1E  2D20               	goto	u156_20
  4419     0D1F                     u156_21:
  4420     0D1F  2D25               	goto	i1l1369
  4421     0D20                     u156_20:
  4422     0D20                     i1l1367:
  4423     0D20  09E6               	comf	___awmod@dividend,f
  4424     0D21  09E7               	comf	___awmod@dividend+1,f
  4425     0D22  0AE6               	incf	___awmod@dividend,f
  4426     0D23  1903               	skipnz
  4427     0D24  0AE7               	incf	___awmod@dividend+1,f
  4428     0D25                     i1l1369:
  4429     0D25  0867               	movf	___awmod@dividend+1,w
  4430     0D26  00E5               	movwf	?___awmod+1
  4431     0D27  0866               	movf	___awmod@dividend,w
  4432     0D28  00E4               	movwf	?___awmod
  4433     0D29                     i1l315:
  4434     0D29  0008               	return
  4435     0D2A                     __end_of___awmod:
  4436                           
  4437                           	psect	text13
  4438     0DA2                     __ptext13:	
  4439 ;; *************** function ___awdiv *****************
  4440 ;; Defined at:
  4441 ;;		line 5 in file "C:\Program Files\Microchip\xc8\v2.40\pic\sources\c90\common\awdiv.c"
  4442 ;; Parameters:    Size  Location     Type
  4443 ;;  divisor         2   75[BANK0 ] int 
  4444 ;;  dividend        2   77[BANK0 ] int 
  4445 ;; Auto vars:     Size  Location     Type
  4446 ;;  quotient        2    2[BANK1 ] int 
  4447 ;;  sign            1    1[BANK1 ] unsigned char 
  4448 ;;  counter         1    0[BANK1 ] unsigned char 
  4449 ;; Return value:  Size  Location     Type
  4450 ;;                  2   75[BANK0 ] int 
  4451 ;; Registers used:
  4452 ;;		wreg, status,2, status,0
  4453 ;; Tracked objects:
  4454 ;;		On entry : 0/0
  4455 ;;		On exit  : 0/0
  4456 ;;		Unchanged: 0/0
  4457 ;; Data sizes:     COMMON   BANK0   BANK1   BANK3   BANK2
  4458 ;;      Params:         0       4       0       0       0
  4459 ;;      Locals:         0       0       4       0       0
  4460 ;;      Temps:          0       1       0       0       0
  4461 ;;      Totals:         0       5       4       0       0
  4462 ;;Total ram usage:        9 bytes
  4463 ;; Hardware stack levels used: 1
  4464 ;; This function calls:
  4465 ;;		Nothing
  4466 ;; This function is called by:
  4467 ;;		_adc
  4468 ;; This function uses a non-reentrant model
  4469 ;;
  4470                           
  4471     0DA2                     ___awdiv:	
  4472                           ;psect for function ___awdiv
  4473                           
  4474     0DA2                     i1l1291:	
  4475                           ;incstack = 0
  4476                           ; Regs used in ___awdiv: [wreg+status,2+status,0]
  4477                           
  4478     0DA2  1683               	bsf	3,5	;RP0=1, select bank1
  4479     0DA3  1303               	bcf	3,6	;RP1=0, select bank1
  4480     0DA4  01A1               	clrf	___awdiv@sign^(0+128)
  4481     0DA5                     i1l1293:
  4482     0DA5  1283               	bcf	3,5	;RP0=0, select bank0
  4483     0DA6  1303               	bcf	3,6	;RP1=0, select bank0
  4484     0DA7  1FEC               	btfss	___awdiv@divisor+1,7
  4485     0DA8  2DAA               	goto	u138_21
  4486     0DA9  2DAB               	goto	u138_20
  4487     0DAA                     u138_21:
  4488     0DAA  2DB4               	goto	i1l1299
  4489     0DAB                     u138_20:
  4490     0DAB                     i1l1295:
  4491     0DAB  09EB               	comf	___awdiv@divisor,f
  4492     0DAC  09EC               	comf	___awdiv@divisor+1,f
  4493     0DAD  0AEB               	incf	___awdiv@divisor,f
  4494     0DAE  1903               	skipnz
  4495     0DAF  0AEC               	incf	___awdiv@divisor+1,f
  4496     0DB0                     i1l1297:
  4497     0DB0  1683               	bsf	3,5	;RP0=1, select bank1
  4498     0DB1  1303               	bcf	3,6	;RP1=0, select bank1
  4499     0DB2  01A1               	clrf	___awdiv@sign^(0+128)
  4500     0DB3  0AA1               	incf	___awdiv@sign^(0+128),f
  4501     0DB4                     i1l1299:
  4502     0DB4  1283               	bcf	3,5	;RP0=0, select bank0
  4503     0DB5  1FEE               	btfss	___awdiv@dividend+1,7
  4504     0DB6  2DB8               	goto	u139_21
  4505     0DB7  2DB9               	goto	u139_20
  4506     0DB8                     u139_21:
  4507     0DB8  2DC4               	goto	i1l1305
  4508     0DB9                     u139_20:
  4509     0DB9                     i1l1301:
  4510     0DB9  09ED               	comf	___awdiv@dividend,f
  4511     0DBA  09EE               	comf	___awdiv@dividend+1,f
  4512     0DBB  0AED               	incf	___awdiv@dividend,f
  4513     0DBC  1903               	skipnz
  4514     0DBD  0AEE               	incf	___awdiv@dividend+1,f
  4515     0DBE                     i1l1303:
  4516     0DBE  3001               	movlw	1
  4517     0DBF  00EF               	movwf	??___awdiv
  4518     0DC0  086F               	movf	??___awdiv,w
  4519     0DC1  1683               	bsf	3,5	;RP0=1, select bank1
  4520     0DC2  1303               	bcf	3,6	;RP1=0, select bank1
  4521     0DC3  06A1               	xorwf	___awdiv@sign^(0+128),f
  4522     0DC4                     i1l1305:
  4523     0DC4  1683               	bsf	3,5	;RP0=1, select bank1
  4524     0DC5  1303               	bcf	3,6	;RP1=0, select bank1
  4525     0DC6  01A2               	clrf	___awdiv@quotient^(0+128)
  4526     0DC7  01A3               	clrf	(___awdiv@quotient+1)^(0+128)
  4527     0DC8                     i1l1307:
  4528     0DC8  1283               	bcf	3,5	;RP0=0, select bank0
  4529     0DC9  1303               	bcf	3,6	;RP1=0, select bank0
  4530     0DCA  086B               	movf	___awdiv@divisor,w
  4531     0DCB  046C               	iorwf	___awdiv@divisor+1,w
  4532     0DCC  1903               	btfsc	3,2
  4533     0DCD  2DCF               	goto	u140_21
  4534     0DCE  2DD0               	goto	u140_20
  4535     0DCF                     u140_21:
  4536     0DCF  2E16               	goto	i1l1327
  4537     0DD0                     u140_20:
  4538     0DD0                     i1l1309:
  4539     0DD0  1683               	bsf	3,5	;RP0=1, select bank1
  4540     0DD1  1303               	bcf	3,6	;RP1=0, select bank1
  4541     0DD2  01A0               	clrf	___awdiv@counter^(0+128)
  4542     0DD3  0AA0               	incf	___awdiv@counter^(0+128),f
  4543     0DD4  2DE2               	goto	i1l1315
  4544     0DD5                     i1l1311:
  4545     0DD5  3001               	movlw	1
  4546     0DD6                     u141_25:
  4547     0DD6  1003               	clrc
  4548     0DD7  0DEB               	rlf	___awdiv@divisor,f
  4549     0DD8  0DEC               	rlf	___awdiv@divisor+1,f
  4550     0DD9  3EFF               	addlw	-1
  4551     0DDA  1D03               	skipz
  4552     0DDB  2DD6               	goto	u141_25
  4553     0DDC                     i1l1313:
  4554     0DDC  3001               	movlw	1
  4555     0DDD  00EF               	movwf	??___awdiv
  4556     0DDE  086F               	movf	??___awdiv,w
  4557     0DDF  1683               	bsf	3,5	;RP0=1, select bank1
  4558     0DE0  1303               	bcf	3,6	;RP1=0, select bank1
  4559     0DE1  07A0               	addwf	___awdiv@counter^(0+128),f
  4560     0DE2                     i1l1315:
  4561     0DE2  1283               	bcf	3,5	;RP0=0, select bank0
  4562     0DE3  1303               	bcf	3,6	;RP1=0, select bank0
  4563     0DE4  1FEC               	btfss	___awdiv@divisor+1,7
  4564     0DE5  2DE7               	goto	u142_21
  4565     0DE6  2DE8               	goto	u142_20
  4566     0DE7                     u142_21:
  4567     0DE7  2DD5               	goto	i1l1311
  4568     0DE8                     u142_20:
  4569     0DE8                     i1l1317:
  4570     0DE8  3001               	movlw	1
  4571     0DE9  1683               	bsf	3,5	;RP0=1, select bank1
  4572     0DEA  1303               	bcf	3,6	;RP1=0, select bank1
  4573     0DEB                     u143_25:
  4574     0DEB  1003               	clrc
  4575     0DEC  0DA2               	rlf	___awdiv@quotient^(0+128),f
  4576     0DED  0DA3               	rlf	(___awdiv@quotient+1)^(0+128),f
  4577     0DEE  3EFF               	addlw	-1
  4578     0DEF  1D03               	skipz
  4579     0DF0  2DEB               	goto	u143_25
  4580     0DF1  1283               	bcf	3,5	;RP0=0, select bank0
  4581     0DF2  1303               	bcf	3,6	;RP1=0, select bank0
  4582     0DF3  086C               	movf	___awdiv@divisor+1,w
  4583     0DF4  026E               	subwf	___awdiv@dividend+1,w
  4584     0DF5  1D03               	skipz
  4585     0DF6  2DF9               	goto	u144_25
  4586     0DF7  086B               	movf	___awdiv@divisor,w
  4587     0DF8  026D               	subwf	___awdiv@dividend,w
  4588     0DF9                     u144_25:
  4589     0DF9  1C03               	skipc
  4590     0DFA  2DFC               	goto	u144_21
  4591     0DFB  2DFD               	goto	u144_20
  4592     0DFC                     u144_21:
  4593     0DFC  2E06               	goto	i1l1323
  4594     0DFD                     u144_20:
  4595     0DFD                     i1l1319:
  4596     0DFD  086B               	movf	___awdiv@divisor,w
  4597     0DFE  02ED               	subwf	___awdiv@dividend,f
  4598     0DFF  086C               	movf	___awdiv@divisor+1,w
  4599     0E00  1C03               	skipc
  4600     0E01  03EE               	decf	___awdiv@dividend+1,f
  4601     0E02  02EE               	subwf	___awdiv@dividend+1,f
  4602     0E03                     i1l1321:
  4603     0E03  1683               	bsf	3,5	;RP0=1, select bank1
  4604     0E04  1303               	bcf	3,6	;RP1=0, select bank1
  4605     0E05  1422               	bsf	___awdiv@quotient^(0+128),0
  4606     0E06                     i1l1323:
  4607     0E06  3001               	movlw	1
  4608     0E07  1283               	bcf	3,5	;RP0=0, select bank0
  4609     0E08                     u145_25:
  4610     0E08  1003               	clrc
  4611     0E09  0CEC               	rrf	___awdiv@divisor+1,f
  4612     0E0A  0CEB               	rrf	___awdiv@divisor,f
  4613     0E0B  3EFF               	addlw	-1
  4614     0E0C  1D03               	skipz
  4615     0E0D  2E08               	goto	u145_25
  4616     0E0E                     i1l1325:
  4617     0E0E  3001               	movlw	1
  4618     0E0F  1683               	bsf	3,5	;RP0=1, select bank1
  4619     0E10  1303               	bcf	3,6	;RP1=0, select bank1
  4620     0E11  02A0               	subwf	___awdiv@counter^(0+128),f
  4621     0E12  1D03               	btfss	3,2
  4622     0E13  2E15               	goto	u146_21
  4623     0E14  2E16               	goto	u146_20
  4624     0E15                     u146_21:
  4625     0E15  2DE8               	goto	i1l1317
  4626     0E16                     u146_20:
  4627     0E16                     i1l1327:
  4628     0E16  1683               	bsf	3,5	;RP0=1, select bank1
  4629     0E17  1303               	bcf	3,6	;RP1=0, select bank1
  4630     0E18  0821               	movf	___awdiv@sign^(0+128),w
  4631     0E19  1903               	btfsc	3,2
  4632     0E1A  2E1C               	goto	u147_21
  4633     0E1B  2E1D               	goto	u147_20
  4634     0E1C                     u147_21:
  4635     0E1C  2E22               	goto	i1l1331
  4636     0E1D                     u147_20:
  4637     0E1D                     i1l1329:
  4638     0E1D  09A2               	comf	___awdiv@quotient^(0+128),f
  4639     0E1E  09A3               	comf	(___awdiv@quotient+1)^(0+128),f
  4640     0E1F  0AA2               	incf	___awdiv@quotient^(0+128),f
  4641     0E20  1903               	skipnz
  4642     0E21  0AA3               	incf	(___awdiv@quotient+1)^(0+128),f
  4643     0E22                     i1l1331:
  4644     0E22  0823               	movf	(___awdiv@quotient+1)^(0+128),w
  4645     0E23  1283               	bcf	3,5	;RP0=0, select bank0
  4646     0E24  1303               	bcf	3,6	;RP1=0, select bank0
  4647     0E25  00EC               	movwf	?___awdiv+1
  4648     0E26  1683               	bsf	3,5	;RP0=1, select bank1
  4649     0E27  1303               	bcf	3,6	;RP1=0, select bank1
  4650     0E28  0822               	movf	___awdiv@quotient^(0+128),w
  4651     0E29  1283               	bcf	3,5	;RP0=0, select bank0
  4652     0E2A  1303               	bcf	3,6	;RP1=0, select bank0
  4653     0E2B  00EB               	movwf	?___awdiv
  4654     0E2C                     i1l302:
  4655     0E2C  0008               	return
  4656     0E2D                     __end_of___awdiv:
  4657     007E                     btemp	set	126	;btemp
  4658     007E                     wtemp0	set	126
  4659                           
  4660                           	psect	idloc
  4661                           
  4662                           ;Config register IDLOC0 @ 0x2000
  4663                           ;	unspecified, using default values
  4664     2000                     	org	8192
  4665     2000  3FFF               	dw	16383
  4666                           
  4667                           ;Config register IDLOC1 @ 0x2001
  4668                           ;	unspecified, using default values
  4669     2001                     	org	8193
  4670     2001  3FFF               	dw	16383
  4671                           
  4672                           ;Config register IDLOC2 @ 0x2002
  4673                           ;	unspecified, using default values
  4674     2002                     	org	8194
  4675     2002  3FFF               	dw	16383
  4676                           
  4677                           ;Config register IDLOC3 @ 0x2003
  4678                           ;	unspecified, using default values
  4679     2003                     	org	8195
  4680     2003  3FFF               	dw	16383
  4681                           
  4682                           	psect	config
  4683                           
  4684                           ;Config register CONFIG1 @ 0x2007
  4685                           ;	Oscillator Selection bits
  4686                           ;	FOSC = INTRC_NOCLKOUT, INTOSCIO oscillator: I/O function on RA6/OSC2/CLKOUT pin, I/O f
      +                          unction on RA7/OSC1/CLKIN
  4687                           ;	Watchdog Timer Enable bit
  4688                           ;	WDTE = OFF, WDT disabled and can be enabled by SWDTEN bit of the WDTCON register
  4689                           ;	Power-up Timer Enable bit
  4690                           ;	PWRTE = ON, PWRT enabled
  4691                           ;	RE3/MCLR pin function select bit
  4692                           ;	MCLRE = ON, RE3/MCLR pin function is MCLR
  4693                           ;	Code Protection bit
  4694                           ;	CP = OFF, Program memory code protection is disabled
  4695                           ;	Data Code Protection bit
  4696                           ;	CPD = OFF, Data memory code protection is disabled
  4697                           ;	Brown Out Reset Selection bits
  4698                           ;	BOREN = OFF, BOR disabled
  4699                           ;	Internal External Switchover bit
  4700                           ;	IESO = ON, Internal/External Switchover mode is enabled
  4701                           ;	Fail-Safe Clock Monitor Enabled bit
  4702                           ;	FCMEN = ON, Fail-Safe Clock Monitor is enabled
  4703                           ;	Low Voltage Programming Enable bit
  4704                           ;	LVP = OFF, RB3 pin has digital I/O, HV on MCLR must be used for programming
  4705                           ;	In-Circuit Debugger Mode bit
  4706                           ;	DEBUG = 0x1, unprogrammed default
  4707     2007                     	org	8199
  4708     2007  2CE4               	dw	11492
  4709                           
  4710                           ;Config register CONFIG2 @ 0x2008
  4711                           ;	Brown-out Reset Selection bit
  4712                           ;	BOR4V = BOR40V, Brown-out Reset set to 4.0V
  4713                           ;	Flash Program Memory Self Write Enable bits
  4714                           ;	WRT = OFF, Write protection off
  4715     2008                     	org	8200
  4716     2008  3FFF               	dw	16383

Data Sizes:
    Strings     0
    Constant    0
    Data        0
    BSS         2
    Persistent  0
    Stack       0

Auto Spaces:
    Space          Size  Autos    Used
    COMMON           14     14      14
    BANK0            80     80      80
    BANK1            80     37      39
    BANK3            96      0       0
    BANK2            96      0       0

Pointer List with Targets:

    None.

Critical Paths under _main in COMMON

    None.

Critical Paths under _adc in COMMON

    _adc->___xxtofl
    ___wmul->___xxtofl
    ___fltol->___xxtofl
    ___flmul->___xxtofl
    ___fldiv->___xxtofl
    ___awmod->___xxtofl
    ___awdiv->___xxtofl

Critical Paths under _main in BANK0

    None.

Critical Paths under _adc in BANK0

    _adc->___awdiv
    i1_lcd->___awdiv
    ___wmul->___fltol
    ___fltol->___fldiv
    ___fldiv->___flmul
    ___awmod->___wmul
    ___awdiv->___awmod

Critical Paths under _main in BANK1

    _main->_lcd
    _lcd->_delay

Critical Paths under _adc in BANK1

    _adc->i1_lcd
    i1_lcd->___awdiv

Critical Paths under _main in BANK3

    None.

Critical Paths under _adc in BANK3

    None.

Critical Paths under _main in BANK2

    None.

Critical Paths under _adc in BANK2

    None.

Call Graph Tables:

 ---------------------------------------------------------------------------------
 (Depth) Function   	        Calls       Base Space   Used Autos Params    Refs
 ---------------------------------------------------------------------------------
 (0) _main                                                 0     0      0    2222
                                _lcd
 ---------------------------------------------------------------------------------
 (1) _lcd                                                  3     0      3    2222
                                             34 BANK1      3     0      3
                              _delay
 ---------------------------------------------------------------------------------
 (2) _delay                                                2     0      2     174
                                             32 BANK1      2     0      2
 ---------------------------------------------------------------------------------
 Estimated maximum stack depth 2
 ---------------------------------------------------------------------------------
 (Depth) Function   	        Calls       Base Space   Used Autos Params    Refs
 ---------------------------------------------------------------------------------
 (3) _adc                                                 25    25      0    9550
                                              7 BANK1     25    25      0
                            ___awdiv
                            ___awmod
                            ___fldiv
                            ___flmul
                            ___fltol
                             ___wmul
                           ___xxtofl
                              i1_lcd
 ---------------------------------------------------------------------------------
 (4) i1_lcd                                                3     0      3    1002
                                              4 BANK1      3     0      3
                            ___awdiv (ARG)
                            ___awmod (ARG)
                            i1_delay
 ---------------------------------------------------------------------------------
 (5) i1_delay                                              2     0      2      74
                                              0 COMMON     2     0      2
 ---------------------------------------------------------------------------------
 (4) ___xxtofl                                            14    10      4     474
                                              0 COMMON    14    10      4
 ---------------------------------------------------------------------------------
 (4) ___wmul                                               6     2      4     700
                                             62 BANK0      6     2      4
                            ___flmul (ARG)
                            ___fltol (ARG)
                           ___xxtofl (ARG)
 ---------------------------------------------------------------------------------
 (4) ___fltol                                             10     6      4     381
                                             52 BANK0     10     6      4
                            ___fldiv (ARG)
                            ___flmul (ARG)
                           ___xxtofl (ARG)
 ---------------------------------------------------------------------------------
 (4) ___flmul                                             26    18      8    2873
                                              0 BANK0     26    18      8
                          __Umul8_16
                           ___xxtofl (ARG)
 ---------------------------------------------------------------------------------
 (5) __Umul8_16                                            9     7      2     799
                                              0 COMMON     9     7      2
 ---------------------------------------------------------------------------------
 (4) ___fldiv                                             26    18      8    1273
                                             26 BANK0     26    18      8
                            ___flmul (ARG)
                           ___xxtofl (ARG)
 ---------------------------------------------------------------------------------
 (4) ___awmod                                              7     3      4    1208
                                             68 BANK0      7     3      4
                            ___flmul (ARG)
                            ___fltol (ARG)
                             ___wmul (ARG)
                           ___xxtofl (ARG)
 ---------------------------------------------------------------------------------
 (4) ___awdiv                                              9     5      4    1364
                                             75 BANK0      5     1      4
                                              0 BANK1      4     4      0
                            ___awmod (ARG)
                            ___flmul (ARG)
                            ___fltol (ARG)
                             ___wmul (ARG)
                           ___xxtofl (ARG)
 ---------------------------------------------------------------------------------
 Estimated maximum stack depth 5
 ---------------------------------------------------------------------------------

 Call Graph Graphs:

 _main (ROOT)
   _lcd
     _delay

 _adc (ROOT)
   ___awdiv
     ___awmod (ARG)
       ___flmul (ARG)
         __Umul8_16
         ___xxtofl (ARG)
       ___fltol (ARG)
         ___fldiv (ARG)
           ___flmul (ARG)
           ___xxtofl (ARG)
         ___flmul (ARG)
         ___xxtofl (ARG)
       ___wmul (ARG)
         ___flmul (ARG)
         ___fltol (ARG)
         ___xxtofl (ARG)
       ___xxtofl (ARG)
     ___flmul (ARG)
     ___fltol (ARG)
     ___wmul (ARG)
     ___xxtofl (ARG)
   ___awmod
   ___fldiv
   ___flmul
   ___fltol
   ___wmul
   ___xxtofl
   i1_lcd
     ___awdiv (ARG)
     ___awmod (ARG)
     i1_delay (ARG)

 Address spaces:
Name               Size   Autos  Total    Cost      Usage
BITCOMMON            E      0       0       0        0.0%
EEDATA             100      0       0       0        0.0%
NULL                 0      0       0       0        0.0%
CODE                 0      0       0       0        0.0%
COMMON               E      E       E       1      100.0%
BITSFR0              0      0       0       1        0.0%
SFR0                 0      0       0       1        0.0%
BITSFR1              0      0       0       2        0.0%
SFR1                 0      0       0       2        0.0%
STACK                0      0       0       2        0.0%
ABS                  0      0      85       3        0.0%
BITBANK0            50      0       0       4        0.0%
BITSFR3              0      0       0       4        0.0%
SFR3                 0      0       0       4        0.0%
BANK0               50     50      50       5      100.0%
BITSFR2              0      0       0       5        0.0%
SFR2                 0      0       0       5        0.0%
BITBANK1            50      0       0       6        0.0%
BANK1               50     25      27       7       48.8%
BITBANK3            60      0       0       8        0.0%
BANK3               60      0       0       9        0.0%
BITBANK2            60      0       0      10        0.0%
BANK2               60      0       0      11        0.0%
DATA                 0      0      85      12        0.0%


Microchip Technology PIC Macro Assembler V2.40 build 20220703182018 
Symbol Table                                                                                   Thu May 29 14:25:28 2025

           ___fldiv@aexp 0053             ___fldiv@bexp 0052             ___fldiv@sign 004B  
                     l46 07F9                       l49 07E8                       _GO 00F9  
           ___awdiv@sign 00A1                       _dv 00C5      ___wmul@multiplicand 0060  
    __Umul8_16@word_mpld 0076                      _GIE 005F                      _RE0 0048  
                    _RE1 0049                      _adc 001B                      _lcd 07BC  
           ___awmod@sign 006A             ___flmul@aexp 0032             ___flmul@bexp 0033  
           ___flmul@sign 002D             ___flmul@temp 0038             ___flmul@prod 0034  
           ___fltol@exp1 005D                     ?_adc 0070                     l1243 07E9  
                   l1245 07E9                     l1271 07CF                     l1273 07DA  
                   l1265 07BC                     l1275 07DD                     l1267 07C8  
                   l1269 07CE                     l1811 0C88                     l1821 0C9C  
                   l1813 0C8C                     l1823 0CA1                     l1815 0C90  
                   l1825 0CB0                     l1817 0C96                     l1809 0C85  
                   ?_lcd 00C2                     l1827 0CBC                     l1819 0C98  
                   l1829 0CC8                     _ADIE 0466                     _ADIF 0066  
                   u1320 07C5                     u1321 07C1                     u1270 07F9  
                   u1334 07C8                     u1271 07F8                     u2500 0CA9  
                   u2501 0CA7                     u2510 0CAF                     u2511 0CAD  
                   u2514 0CAA                     u2524 0CB0                     _PEIE 005E  
                   i1l46 0C0D                     i1l55 03B4                     i1l49 0C84  
                   adc@a 00B0                     adc@b 00B2                     adc@c 00B4  
                   adc@d 00B6                     _main 0C85                     btemp 007E  
        __end_ofi1_delay 0C0E                     start 0010          ___fldiv@new_exp 004C  
           adc@dvolt_dec 00AC                    ??_adc 00A7                    ??_lcd 00C5  
          ___fltol@sign1 005C                    ?_main 0070          __end_of___fldiv 1000  
        __end_of___awdiv 0E2D          __end_of___awmod 0D2A          __end_of___flmul 0704  
        __end_of___fltol 0DA2                    _ANSEL 0188          ___awdiv@divisor 006B  
                  i1l302 0E2C                    i1l151 0C5B                    i1l315 0D29  
                  i1l500 0FFF                    i1l149 0C43                    i1l342 0D8C  
                  i1l335 0DA1                    i1l520 0FE7                    i1l345 0DA1  
                  i1l522 0FF5                    i1l514 0F75                    i1l550 06F7  
                  i1l544 0673                    i1l538 0703                    i1l557 0C22  
                  i1l582 0726                    i1l559 0C34                    i1l584 07BB  
                  i1l498 0E83                    i1l595 0785                    i1l596 0791  
                  i1l588 0769          ___awdiv@counter 00A0                    _PORTA 0005  
                  _PORTD 0008                    _PORTE 0009                    _TRISA 0085  
                  _TRISD 0088                    _TRISE 0089                    i1_lcd 0C5C  
                  _delay 07E9                    lcd@rs 00C2                    pclath 000A  
                  status 0003                    wtemp0 007E          __initialization 0013  
           __end_of_main 0CCF                   ??_main 00C5                   ?i1_lcd 00A4  
                 ?_delay 00C0                   _ADCON0 001F                   _ADCON1 009F  
                 _ADRESH 001E                   _ADRESL 009E         ___awdiv@dividend 006D  
                 _ANSELH 0189                ??i1_delay 0072                   i1l1301 0DB9  
                 i1l1311 0DD5                   i1l1303 0DBE                   i1l1321 0E03  
                 i1l1313 0DDC                   i1l1305 0DC4                   i1l1331 0E22  
                 i1l1323 0E06                   i1l1315 0DE2                   i1l1307 0DC8  
                 i1l1411 0E32                   i1l1251 0C18                   i1l1403 0D81  
                 i1l1325 0E0E                   i1l1317 0DE8                   i1l1309 0DD0  
                 i1l1341 0CDB                   i1l1501 0F45                   i1l1421 0E45  
                 i1l1413 0E36                   i1l1253 0C1C                   i1l1405 0D91  
                 i1l1261 0BFF                   i1l1319 0DFD                   i1l1327 0E16  
                 i1l1351 0CEF                   i1l1343 0CDD                   i1l1335 0CCF  
                 i1l1511 0F5A                   i1l1503 0F46                   i1l1431 0E5D  
                 i1l1423 0E4D                   i1l1415 0E3A                   i1l1255 0C2B  
                 i1l1247 0C0F                   i1l1407 0D96                   i1l1263 0BFF  
                 u200_20 03FC                   i1l1329 0E1D                   i1l1361 0D0E  
                 i1l1353 0CF6                   i1l1345 0CE1                   i1l1337 0CD2  
                 i1l1521 0F7F                   i1l1513 0F5E                   i1l1505 0F4F  
                 i1l1441 0E70                   i1l1433 0E61                   i1l1425 0E4E  
                 i1l1417 0E3B                   i1l1409 0E2D                   i1l1257 0C30  
                 i1l1249 0C11                   i1l1601 045C                   u200_21 03FB  
                 i1l1281 0C3D                   i1l1291 0DA2                   i1l1363 0D15  
                 i1l1355 0CFA                   i1l1347 0CE6                   i1l1339 0CD6  
                 i1l1531 0FBD                   i1l1523 0F8D                   i1l1515 0F72  
                 i1l1507 0F55                   i1l1451 0E97                   i1l1443 0E78  
                 i1l1435 0E65                   i1l1419 0E40                   i1l1427 0E50  
                 i1l1611 04E3                   i1l1603 0478                   i1l1283 0C4A  
                 i1l1293 0DA5                   i1l1357 0CFE                   i1l1349 0CEC  
                 i1l1365 0D1B                   i1l1541 0FEB                   i1l1533 0FCB  
                 i1l1525 0F91                   i1l1509 0F59                   i1l1453 0E9B  
                 i1l1445 0E79                   i1l1437 0E66                   i1l1429 0E58  
                 i1l1621 0550                   i1l1613 04F1                   i1l1605 04A2  
                 i1l1381 0D51                   i1l1373 0D2A                   i1l1285 0C51  
                 i1l1277 0C35                   i1l1295 0DAB                   i1l1367 0D20  
                 i1l1359 0D08                   i1l1543 0FEF                   i1l1535 0FDA  
                 i1l1527 0FAA                   i1l1519 0F7A                   i1l1471 0EDC  
                 i1l1463 0EB2                   i1l1439 0E6B                   i1l1447 0E7B  
                 i1l1631 05F7                   i1l1623 056D                   i1l1615 050E  
                 i1l1607 04BE                   i1l1551 03BF                   i1l1383 0D52  
                 i1l1375 0D35                   i1l1287 0C57                   i1l1279 0C39  
                 i1l1711 0752                   i1l1703 0737                   u201_20 0401  
                 i1l1297 0DB0                   i1l1369 0D25                   i1l1545 0FF1  
                 i1l1537 0FDE                   i1l1529 0FB0                   i1l1481 0EFA  
                 i1l1473 0EDE                   i1l1465 0EC4                   i1l1449 0E8B  
                 i1l1457 0EA4                   i1l1641 0643                   i1l1633 061F  
                 i1l1625 0598                   i1l1617 051C                   i1l1609 04DA  
                 u201_21 0400                   i1l1561 03D2                   i1l1553 03C4  
                 i1l1385 0D5A                   i1l1721 0789                   i1l1713 0760  
                 i1l1705 073A                   i1l1801 0363                   i1l1299 0DB4  
                 i1l1539 0FE6                   i1l1475 0EE3                   i1l1483 0F03  
                 i1l1491 0F28                   i1l1467 0ECC                   i1l1459 0EA9  
                 i1l1651 0658                   i1l1643 0644                   i1l1635 0628  
                 i1l1627 05A6                   i1l1619 0539                   i1l1571 03EE  
                 i1l1563 03D7                   i1l1555 03C8                   i1l1395 0D68  
                 i1l1387 0D5C                   i1l1379 0D3E                   i1l1731 07B3  
                 i1l1723 0793                   i1l1715 0770                   i1l1707 0747  
                 i1l1803 038C                   i1l1493 0F2E                   i1l1485 0F15  
                 i1l1477 0EF5                   i1l1469 0ED4                   i1l1661 067D  
                 i1l1653 065C                   i1l1645 064D                   i1l1637 0636  
                 i1l1629 05D1                   i1l1581 0401                   i1l1573 03F2  
                 i1l1565 03DF                   i1l1557 03CC                   i1l1389 0D60  
                 i1l1397 0D7A                   i1l1725 07A9                   i1l1717 077B  
                 i1l1709 074E                   i1l1741 0C6F                   i1l1805 0399  
                 i1l1495 0F36                   i1l1487 0F16                   i1l1479 0EF9  
                 i1l1671 06BB                   i1l1663 068B                   i1l1655 0670  
                 i1l1639 063F                   i1l1647 0653                   i1l1591 041D  
                 i1l1583 0409                   i1l1575 03F6                   i1l1567 03E1  
                 i1l1559 03CD                   i1l1727 07AE                   i1l1719 077F  
                 i1l1743 0C78                   i1l1735 0C5C                   i1l1807 03A7  
                 i1l1751 0027                   u130_20 0C30                   u202_20 0418  
                 i1l1497 0F38                   i1l1489 0F24                   u130_21 0C2F  
                 i1l1681 06ED                   i1l1673 06C6                   i1l1665 068F  
                 i1l1649 0657                   u210_21 052B                   u202_21 0417  
                 i1l1585 040B                   i1l1577 03F7                   i1l1569 03E9  
                 i1l1729 07B2                   i1l1745 0C7B                   i1l1737 0C68  
                 i1l1761 00F8                   i1l1753 002A                   u210_22 0532  
                 i1l1499 0F41                   i1l1683 06F1                   i1l1675 06D5  
                 i1l1667 06A8                   i1l1659 0678                   u210_23 0539  
                 i1l1595 0426                   i1l1587 0413                   i1l1579 03FC  
                 i1l1691 0705                   i1l1739 0C6E                   i1l1771 0227  
                 i1l1763 014D                   i1l1755 005A                   i1l1747 001B  
                 i1l1685 06F2                   i1l1677 06DF                   i1l1669 06AE  
                 i1l1597 0434                   i1l1589 0418                   i1l1693 070A  
                 i1l1781 02AF                   i1l1773 0233                   i1l1765 018B  
                 i1l1757 0088                   i1l1749 0021                   i1l1687 06FB  
                 i1l1679 06E1                   i1l1599 0441                   i1l1695 070E  
                 i1l1791 0305                   i1l1783 02D2                   i1l1775 0265  
                 i1l1767 01FA                   i1l1759 00BA                   u203_20 041D  
                 u131_20 0C0D                   u203_21 041C                   i1l1697 071E  
                 u131_21 0C0C                   i1l1793 0312                   i1l1785 02DE  
                 i1l1777 0271                   i1l1769 0204                   i1l1699 072E  
                 i1l1795 0320                   i1l1787 02EB                   i1l1779 02A3  
                 u211_25 053B                   i1l1797 032D                   i1l1789 02F7  
                 i1l1799 033A                   u140_20 0DD0                   u140_21 0DCF  
                 u212_21 055F                   u204_21 046A                   u212_22 0566  
                 u204_22 0471                   u212_23 056D                   u204_23 0478  
                 u220_25 0638                   u221_20 0643                   u221_21 0642  
                 u213_21 058A                   u205_21 0486                   u213_22 0591  
                 u205_22 048D                   u213_23 0598                   u205_23 0494  
                 u141_25 0DD6                   u142_20 0DE8                   u150_20 0CEC  
                 u230_20 06BB                   u134_20 0C3D                   u142_21 0DE7  
                 u150_21 0CEB                   u230_21 06BA                   u214_21 05B5  
                 u206_21 04B0                   u134_21 0C3C                   u214_22 05BC  
                 u206_22 04B7                   u214_23 05C3                   u206_23 04BE  
                 u230_25 06B7                   u222_25 0646                   u231_20 06D5  
                 u223_20 0657                   u215_20 05DD                   u231_21 06D4  
                 u223_21 0656                   u207_21 04CC                   u207_22 04D3  
                 u207_23 04DA                   u143_25 0DEB                   u151_25 0CF0  
                 u231_25 06D1                   u215_25 05D8                   u135_25 0C44  
                 u144_20 0DFD                   u152_20 0CFE                   u128_20 0C1C  
                 u232_20 06F1                   u224_20 065C                   u160_20 0D67  
                 u144_21 0DFC                   u152_21 0CFD                   u128_21 0C1B  
                 u232_21 06F0                   u224_21 065B                   u216_21 05E9  
                 u160_21 0D66                   u216_22 05F0                   u216_23 05F7  
                 u144_25 0DF9                   u208_25 04DC                   u136_25 0C4B  
                 u240_25 0774                   u153_20 0D08                   u225_20 0670  
                 u217_20 0605                   u137_20 0C57                   u241_20 077F  
                 u233_20 070A                   u153_21 0D07                   u225_21 066F  
                 u209_21 0500                   u137_21 0C56                   u241_21 077E  
                 u233_21 0709                   u209_22 0507                   u209_23 050E  
                 u145_25 0E08                   u153_25 0D04                   u129_25 0C23  
                 u217_25 0600                   u161_25 0D69                   u146_20 0E16  
                 u138_20 0DAB                   u170_20 0E65                   u226_20 0677  
                 u162_20 0D79                   u242_20 0785                   u234_20 070E  
                 u146_21 0E15                   u138_21 0DAA                   u170_21 0E64  
                 u226_21 0676                   u218_21 0611                   u162_21 0D78  
                 u242_21 0784                   u234_21 070D                   u218_22 0618  
                 u218_23 061F                   u154_25 0D0F                   u147_20 0E1D  
                 u139_20 0DB9                   u155_20 0D1B                   u171_20 0E6B  
                 u227_20 067D                   u163_20 0D80                   u243_20 0789  
                 u235_20 072E                   u147_21 0E1C                   u139_21 0DB8  
                 u155_21 0D1A                   u171_21 0E6A                   u227_21 067C  
                 u163_21 0D7F                   u243_21 0788                   u235_21 072D  
                 u219_25 0621                   u156_20 0D20                   u148_20 0CD6  
                 u180_20 0F15                   u172_20 0E70                   u228_20 068F  
                 u244_20 079E                   u156_21 0D1F                   u148_21 0CD5  
                 u180_21 0F14                   u172_21 0E6F                   u228_21 068E  
                 u180_25 0F11                   u164_25 0D83                   u244_25 0799  
                 u236_25 073F                   u149_20 0CE1                   u181_20 0F2E  
                 u173_20 0E8B                   u229_20 069E                   u165_20 0D91  
                 u157_20 0D35                   u245_20 07AE                   u237_20 074D  
                 u149_21 0CE0                   u181_21 0F2D                   u173_21 0E8A  
                 u165_21 0D90                   u157_21 0D34                   u245_21 07AD  
                 u237_21 074C                   u229_25 0699                   u190_20 0F7F  
                 u182_20 0F36                   u174_20 0EA9                   u166_20 0D96  
                 u158_20 0D4C                   u246_20 07B2                   u190_21 0F7E  
                 u182_21 0F35                   u174_21 0EA8                   u166_21 0D95  
                 u246_21 07B1                   u158_25 0D47                   u238_25 0761  
                 u191_20 0F91                   u175_20 0EE3                   u167_20 0E3A  
                 u159_20 0D60                   u239_20 076F                   u247_20 0C65  
                 u191_21 0F90                   u175_21 0EE2                   u167_21 0E39  
                 u159_21 0D5F                   u239_21 076E                   u247_21 0C61  
                 u183_25 0F3A                   u192_20 0FA0                   u184_20 0F45  
                 u168_20 0E40                   u184_21 0F44                   u168_21 0E3F  
                 u248_24 0C68                   u192_25 0F9B                   u176_25 0EE5  
                 u193_20 0FBD                   u169_20 0E45                   u249_20 0021  
                 u193_21 0FBC                   u169_21 0E44                   u249_21 0020  
                 u193_25 0FB9                   u185_25 0F48                   u177_25 0EEE  
                 u194_20 0FDA                   u186_20 0F59                   u178_20 0EF9  
                 u194_21 0FD9                   u186_21 0F58                   u178_21 0EF8  
                 u194_25 0FD6                   u195_20 0FEF                   u187_20 0F5E  
                 u195_21 0FEE                   u187_21 0F5D                   u179_25 0EFC  
                 u188_20 0F72                   u196_20 03CC                   u188_21 0F71  
                 u196_21 03CB                   u189_20 0F79                   u197_20 03D2  
                 u189_21 0F78                   u197_21 03D1                   u198_20 03D7  
                 u198_21 03D6                   u199_20 03F6                   u199_21 03F5  
       __end_of___xxtofl 07BC                   ___wmul 0C35                ??___fldiv 0042  
              ??___awdiv 006F                ??___awmod 0068                ??___flmul 0028  
              ??___fltol 0058                   delay@t 00C0         ___awdiv@quotient 00A2  
        ___awmod@divisor 0064          ___awmod@counter 0069                   saved_w 007E  
           ___xxtofl@arg 007A             ___xxtofl@exp 0079             ___xxtofl@val 0070  
__end_of__initialization 0017               ___fltol@f1 0054            __end_ofi1_lcd 0C85  
         __pcstackCOMMON 0070            __end_of_delay 07FA                  ??i1_lcd 007E  
                ??_delay 00C2               __pbssBANK1 00C5        __end_of__Umul8_16 0C35  
             __pmaintext 0C85                  ?___wmul 005E               __pintentry 0004  
              ?___xxtofl 0070                  i1_delay 0BFF                  i1lcd@rs 00A4  
                _adc$674 00B8                  _adc$675 00BC                  ___fldiv 0E2D  
                ___awdiv 0DA2                  ___awmod 0CCF                  ___flmul 03BF  
                ___fltol 0D2A                  adc@volt 00BA                  __ptext1 07BC  
                __ptext2 07E9                  __ptext3 001B                  __ptext4 0C5C  
                __ptext5 0BFF                  __ptext6 0704                  __ptext7 0C35  
                __ptext8 0D2A                  __ptext9 03BF               ??___xxtofl 0074  
       ___awmod@dividend 0066                  lcd@data 00C4     end_of_initialization 0017  
          ___xxtofl@sign 0078              ___fldiv@grs 004E              ___fldiv@rem 0047  
            ___flmul@grs 002E                i1lcd@data 00A6           __end_of___wmul 0C5C  
    start_initialization 0013              adc@volt_dec 00AE              __end_of_adc 03BF  
            __end_of_lcd 07E9                 ??___wmul 007E                __Umul8_16 0C0E  
              ___fldiv@a 003A                ___fldiv@b 003E                ___flmul@a 0024  
              ___flmul@b 0020                ___latbits 0002            __pcstackBANK0 0020  
          __pcstackBANK1 00A0                 ?i1_delay 0070                 ?___fldiv 003A  
               ?___awdiv 006B                 ?___awmod 0064                 ?___flmul 0020  
               ?___fltol 0054               ?__Umul8_16 0070        interrupt_function 0004  
         ___wmul@product 0062        ___wmul@multiplier 005E                 i1delay@t 0070  
            ??__Umul8_16 0072                 adc@dvolt 00AA                 ___xxtofl 0704  
               __ptext10 0C0E                 __ptext11 0E2D                 __ptext12 0CCF  
               __ptext13 0DA2                 intlevel1 0000   __Umul8_16@multiplicand 0070  
   __Umul8_16@multiplier 0078        __Umul8_16@product 0074  
