

Microchip MPLAB XC8 Assembler V2.40 build 20220703182018 
                                                                                               Thu May 22 14:25:25 2025

Microchip MPLAB XC8 C Compiler v2.40 (Free license) build 20220703182018 Og1 
     1                           	processor	16F887
     2                           	pagewidth 120
     3                           	opt	flic
     4                           	psect	strings,global,class=STRING,delta=2,noexec
     5                           	psect	cinit,global,class=CODE,merge=1,delta=2
     6                           	psect	bssBANK1,global,class=BANK1,space=1,delta=1,noexec
     7                           	psect	cstackBANK3,global,class=BANK3,space=1,delta=1,noexec
     8                           	psect	cstackBANK1,global,class=BANK1,space=1,delta=1,noexec
     9                           	psect	cstackCOMMON,global,class=COMMON,space=1,delta=1,noexec
    10                           	psect	cstackBANK0,global,class=BANK0,space=1,delta=1,noexec
    11                           	psect	maintext,global,class=CODE,split=1,delta=2
    12                           	psect	text1,local,class=CODE,merge=1,delta=2,group=2
    13                           	psect	text2,local,class=CODE,merge=1,delta=2,group=2
    14                           	psect	text3,local,class=CODE,merge=1,delta=2,group=2
    15                           	psect	text4,local,class=CODE,merge=1,delta=2,group=2
    16                           	psect	text5,local,class=CODE,merge=1,delta=2,group=2
    17                           	psect	text6,local,class=CODE,merge=1,delta=2,group=2
    18                           	psect	text7,local,class=CODE,merge=1,delta=2,group=1
    19                           	psect	text8,local,class=CODE,merge=1,delta=2,group=1
    20                           	psect	text9,local,class=CODE,merge=1,delta=2,group=1
    21                           	psect	text10,local,class=CODE,merge=1,delta=2,group=1
    22                           	psect	text11,local,class=CODE,merge=1,delta=2,group=2
    23                           	psect	text12,local,class=CODE,merge=1,delta=2,group=1
    24                           	psect	text13,local,class=CODE,merge=1,delta=2,group=1
    25                           	psect	text14,local,class=CODE,merge=1,delta=2,group=1
    26                           	psect	text15,local,class=CODE,merge=1,delta=2,group=1
    27                           	psect	text16,local,class=CODE,merge=1,delta=2,group=1
    28                           	psect	text17,local,class=CODE,merge=1,delta=2,group=1
    29                           	psect	text18,local,class=CODE,merge=1,delta=2
    30                           	psect	idloc,global,abs,ovrld,class=IDLOC,space=5,delta=2,noexec
    31                           	psect	config,global,abs,ovrld,class=CONFIG,space=4,delta=2,noexec
    32                           	dabs	1,0x7E,2
    33     0000                     
    34                           ; Version 2.40
    35                           ; Generated 17/11/2021 GMT
    36                           ; 
    37                           ; Copyright © 2021, Microchip Technology Inc. and its subsidiaries ("Microchip")
    38                           ; All rights reserved.
    39                           ; 
    40                           ; This software is developed by Microchip Technology Inc. and its subsidiaries ("Microch
      +                          ip").
    41                           ; 
    42                           ; Redistribution and use in source and binary forms, with or without modification, are
    43                           ; permitted provided that the following conditions are met:
    44                           ; 
    45                           ;     1. Redistributions of source code must retain the above copyright notice, this lis
      +                          t of
    46                           ;        conditions and the following disclaimer.
    47                           ; 
    48                           ;     2. Redistributions in binary form must reproduce the above copyright notice, this 
      +                          list
    49                           ;        of conditions and the following disclaimer in the documentation and/or other
    50                           ;        materials provided with the distribution. Publication is not required when
    51                           ;        this file is used in an embedded application.
    52                           ; 
    53                           ;     3. Microchip's name may not be used to endorse or promote products derived from th
      +                          is
    54                           ;        software without specific prior written permission.
    55                           ; 
    56                           ; THIS SOFTWARE IS PROVIDED BY MICROCHIP "AS IS" AND ANY EXPRESS OR IMPLIED WARRANTIES,
    57                           ; INCLUDING, BUT NOT LIMITED TO, THE IMPLIED WARRANTIES OF MERCHANTABILITY AND FITNESS F
      +                          OR
    58                           ; PURPOSE ARE DISCLAIMED.  IN NO EVENT SHALL MICROCHIP BE LIABLE FOR ANY DIRECT, INDIREC
      +                          T,
    59                           ; INCIDENTAL, SPECIAL, EXEMPLARY, OR CONSEQUENTIAL DAMAGES (INCLUDING BUT NOT LIMITED TO
    60                           ; PROCUREMENT OF SUBSTITUTE GOODS OR SERVICES; LOSS OF USE, DATA OR PROFITS; OR BUSINESS
    61                           ; INTERRUPTION) HOWSOEVER CAUSED AND ON ANY THEORY OF LIABILITY, WHETHER IN CONTRACT, ST
      +                          RICT
    62                           ; LIABILITY, OR TORT (INCLUDING NEGLIGENCE OR OTHERWISE) ARISING IN ANY WAY OUT OF THE U
      +                          SE OF
    63                           ; THIS SOFTWARE, EVEN IF ADVISED OF THE POSSIBILITY OF SUCH DAMAGE.
    64                           ; 
    65                           ; 
    66                           ; Code-generator required, PIC16F887 Definitions
    67                           ; 
    68                           ; SFR Addresses
    69     0000                     	;# 
    70     0001                     	;# 
    71     0002                     	;# 
    72     0003                     	;# 
    73     0004                     	;# 
    74     0005                     	;# 
    75     0006                     	;# 
    76     0007                     	;# 
    77     0008                     	;# 
    78     0009                     	;# 
    79     000A                     	;# 
    80     000B                     	;# 
    81     000C                     	;# 
    82     000D                     	;# 
    83     000E                     	;# 
    84     000E                     	;# 
    85     000F                     	;# 
    86     0010                     	;# 
    87     0011                     	;# 
    88     0012                     	;# 
    89     0013                     	;# 
    90     0014                     	;# 
    91     0015                     	;# 
    92     0015                     	;# 
    93     0016                     	;# 
    94     0017                     	;# 
    95     0018                     	;# 
    96     0019                     	;# 
    97     001A                     	;# 
    98     001B                     	;# 
    99     001B                     	;# 
   100     001C                     	;# 
   101     001D                     	;# 
   102     001E                     	;# 
   103     001F                     	;# 
   104     0081                     	;# 
   105     0085                     	;# 
   106     0086                     	;# 
   107     0087                     	;# 
   108     0088                     	;# 
   109     0089                     	;# 
   110     008C                     	;# 
   111     008D                     	;# 
   112     008E                     	;# 
   113     008F                     	;# 
   114     0090                     	;# 
   115     0091                     	;# 
   116     0092                     	;# 
   117     0093                     	;# 
   118     0093                     	;# 
   119     0093                     	;# 
   120     0094                     	;# 
   121     0095                     	;# 
   122     0096                     	;# 
   123     0097                     	;# 
   124     0098                     	;# 
   125     0099                     	;# 
   126     009A                     	;# 
   127     009B                     	;# 
   128     009C                     	;# 
   129     009D                     	;# 
   130     009E                     	;# 
   131     009F                     	;# 
   132     0105                     	;# 
   133     0107                     	;# 
   134     0108                     	;# 
   135     0109                     	;# 
   136     010C                     	;# 
   137     010C                     	;# 
   138     010D                     	;# 
   139     010E                     	;# 
   140     010F                     	;# 
   141     0185                     	;# 
   142     0187                     	;# 
   143     0188                     	;# 
   144     0189                     	;# 
   145     018C                     	;# 
   146     018D                     	;# 
   147     0000                     	;# 
   148     0001                     	;# 
   149     0002                     	;# 
   150     0003                     	;# 
   151     0004                     	;# 
   152     0005                     	;# 
   153     0006                     	;# 
   154     0007                     	;# 
   155     0008                     	;# 
   156     0009                     	;# 
   157     000A                     	;# 
   158     000B                     	;# 
   159     000C                     	;# 
   160     000D                     	;# 
   161     000E                     	;# 
   162     000E                     	;# 
   163     000F                     	;# 
   164     0010                     	;# 
   165     0011                     	;# 
   166     0012                     	;# 
   167     0013                     	;# 
   168     0014                     	;# 
   169     0015                     	;# 
   170     0015                     	;# 
   171     0016                     	;# 
   172     0017                     	;# 
   173     0018                     	;# 
   174     0019                     	;# 
   175     001A                     	;# 
   176     001B                     	;# 
   177     001B                     	;# 
   178     001C                     	;# 
   179     001D                     	;# 
   180     001E                     	;# 
   181     001F                     	;# 
   182     0081                     	;# 
   183     0085                     	;# 
   184     0086                     	;# 
   185     0087                     	;# 
   186     0088                     	;# 
   187     0089                     	;# 
   188     008C                     	;# 
   189     008D                     	;# 
   190     008E                     	;# 
   191     008F                     	;# 
   192     0090                     	;# 
   193     0091                     	;# 
   194     0092                     	;# 
   195     0093                     	;# 
   196     0093                     	;# 
   197     0093                     	;# 
   198     0094                     	;# 
   199     0095                     	;# 
   200     0096                     	;# 
   201     0097                     	;# 
   202     0098                     	;# 
   203     0099                     	;# 
   204     009A                     	;# 
   205     009B                     	;# 
   206     009C                     	;# 
   207     009D                     	;# 
   208     009E                     	;# 
   209     009F                     	;# 
   210     0105                     	;# 
   211     0107                     	;# 
   212     0108                     	;# 
   213     0109                     	;# 
   214     010C                     	;# 
   215     010C                     	;# 
   216     010D                     	;# 
   217     010E                     	;# 
   218     010F                     	;# 
   219     0185                     	;# 
   220     0187                     	;# 
   221     0188                     	;# 
   222     0189                     	;# 
   223     018C                     	;# 
   224     018D                     	;# 
   225                           
   226                           	psect	strings
   227     1000                     __pstrings:
   228     1000                     stringtab:
   229     1000                     __stringtab:
   230     1000                     stringcode:	
   231                           ;	String table - string pointers are 1 byte each
   232                           
   233     1000                     stringdir:
   234     1000  3010               	movlw	high stringdir
   235     1001  008A               	movwf	10
   236     1002  0804               	movf	4,w
   237     1003  0A84               	incf	4,f
   238     1004  0782               	addwf	2,f
   239     1005                     __stringbase:
   240     1005  3400               	retlw	0
   241     1006                     __end_of__stringtab:
   242     1006                     exp@coeff:
   243     1006  3400               	retlw	0
   244     1007  3400               	retlw	0
   245     1008  3480               	retlw	128
   246     1009  343F               	retlw	63
   247     100A  3418               	retlw	24
   248     100B  3472               	retlw	114
   249     100C  3431               	retlw	49
   250     100D  343F               	retlw	63
   251     100E  34F0               	retlw	240
   252     100F  34FD               	retlw	253
   253     1010  3475               	retlw	117
   254     1011  343E               	retlw	62
   255     1012  3447               	retlw	71
   256     1013  3458               	retlw	88
   257     1014  3463               	retlw	99
   258     1015  343D               	retlw	61
   259     1016  3458               	retlw	88
   260     1017  3495               	retlw	149
   261     1018  341D               	retlw	29
   262     1019  343C               	retlw	60
   263     101A  3482               	retlw	130
   264     101B  34C4               	retlw	196
   265     101C  34AE               	retlw	174
   266     101D  343A               	retlw	58
   267     101E  34A8               	retlw	168
   268     101F  3478               	retlw	120
   269     1020  3421               	retlw	33
   270     1021  3439               	retlw	57
   271     1022  34EF               	retlw	239
   272     1023  3493               	retlw	147
   273     1024  3480               	retlw	128
   274     1025  3437               	retlw	55
   275     1026  34A0               	retlw	160
   276     1027  3492               	retlw	146
   277     1028  34A7               	retlw	167
   278     1029  3435               	retlw	53
   279     102A  3446               	retlw	70
   280     102B  3456               	retlw	86
   281     102C  3415               	retlw	21
   282     102D  3434               	retlw	52
   283     102E                     __end_ofexp@coeff:
   284     102E                     log@coeff:
   285     102E  3400               	retlw	0
   286     102F  3400               	retlw	0
   287     1030  3400               	retlw	0
   288     1031  3400               	retlw	0
   289     1032  34C4               	retlw	196
   290     1033  34FF               	retlw	255
   291     1034  347F               	retlw	127
   292     1035  343F               	retlw	63
   293     1036  3480               	retlw	128
   294     1037  34EF               	retlw	239
   295     1038  34FF               	retlw	255
   296     1039  34BE               	retlw	190
   297     103A  3490               	retlw	144
   298     103B  34E1               	retlw	225
   299     103C  34A9               	retlw	169
   300     103D  343E               	retlw	62
   301     103E  34EC               	retlw	236
   302     103F  3482               	retlw	130
   303     1040  3476               	retlw	118
   304     1041  34BE               	retlw	190
   305     1042  3482               	retlw	130
   306     1043  34AD               	retlw	173
   307     1044  342B               	retlw	43
   308     1045  343E               	retlw	62
   309     1046  340E               	retlw	14
   310     1047  343C               	retlw	60
   311     1048  34C3               	retlw	195
   312     1049  34BD               	retlw	189
   313     104A  3487               	retlw	135
   314     104B  34D1               	retlw	209
   315     104C  3413               	retlw	19
   316     104D  343D               	retlw	61
   317     104E  3441               	retlw	65
   318     104F  3478               	retlw	120
   319     1050  34D3               	retlw	211
   320     1051  34BB               	retlw	187
   321     1052                     __end_oflog@coeff:
   322     0008                     _PORTD	set	8
   323     0006                     _PORTB	set	6
   324     0088                     _TRISD	set	136
   325     0086                     _TRISB	set	134
   326     0189                     _ANSELH	set	393
   327     0188                     _ANSEL	set	392
   328                           
   329                           	psect	cinit
   330     07F8                     start_initialization:	
   331                           ; #config settings
   332                           
   333     07F8                     __initialization:
   334                           
   335                           ; Clear objects allocated to BANK1
   336     07F8  1683               	bsf	3,5	;RP0=1, select bank1
   337     07F9  1303               	bcf	3,6	;RP1=0, select bank1
   338     07FA  01D2               	clrf	__pbssBANK1& (0+127)
   339     07FB  01D3               	clrf	(__pbssBANK1+1)& (0+127)
   340     07FC                     end_of_initialization:	
   341                           ;End of C runtime variable initialization code
   342                           
   343     07FC                     __end_of__initialization:
   344     07FC  0183               	clrf	3
   345     07FD  120A  118A  2A75   	ljmp	_main	;jump to C main() function
   346                           
   347                           	psect	bssBANK1
   348     00D2                     __pbssBANK1:
   349     00D2                     _errno:
   350     00D2                     	ds	2
   351                           
   352                           	psect	cstackBANK3
   353     0190                     __pcstackBANK3:
   354     0190                     _main$741:
   355                           
   356                           ; 4 bytes @ 0x0
   357     0190                     	ds	4
   358     0194                     _main$743:
   359                           
   360                           ; 4 bytes @ 0x4
   361     0194                     	ds	4
   362     0198                     _main$744:
   363                           
   364                           ; 4 bytes @ 0x8
   365     0198                     	ds	4
   366     019C                     _main$745:
   367                           
   368                           ; 4 bytes @ 0xC
   369     019C                     	ds	4
   370     01A0                     _main$746:
   371                           
   372                           ; 4 bytes @ 0x10
   373     01A0                     	ds	4
   374     01A4                     _main$747:
   375                           
   376                           ; 4 bytes @ 0x14
   377     01A4                     	ds	4
   378     01A8                     _main$740:
   379                           
   380                           ; 4 bytes @ 0x18
   381     01A8                     	ds	4
   382     01AC                     _main$742:
   383                           
   384                           ; 4 bytes @ 0x1C
   385     01AC                     	ds	4
   386     01B0                     main@i:
   387                           
   388                           ; 2 bytes @ 0x20
   389     01B0                     	ds	2
   390     01B2                     main@j:
   391                           
   392                           ; 2 bytes @ 0x22
   393     01B2                     	ds	2
   394                           
   395                           	psect	cstackBANK1
   396     00A0                     __pcstackBANK1:
   397     00A0                     ??___fltol:
   398     00A0                     eval_poly@res:	
   399                           ; 1 bytes @ 0x0
   400                           
   401                           
   402                           ; 4 bytes @ 0x0
   403     00A0                     	ds	4
   404     00A4                     ?_log:
   405     00A4                     ?_floor:	
   406                           ; 4 bytes @ 0x4
   407                           
   408     00A4                     ?_ldexp:	
   409                           ; 4 bytes @ 0x4
   410                           
   411     00A4                     floor@x:	
   412                           ; 4 bytes @ 0x4
   413                           
   414     00A4                     ldexp@value:	
   415                           ; 4 bytes @ 0x4
   416                           
   417     00A4                     log@x:	
   418                           ; 4 bytes @ 0x4
   419                           
   420                           
   421                           ; 4 bytes @ 0x4
   422     00A4                     	ds	4
   423     00A8                     ldexp@newexp:
   424     00A8                     floor@i:	
   425                           ; 2 bytes @ 0x8
   426                           
   427                           
   428                           ; 4 bytes @ 0x8
   429     00A8                     	ds	4
   430     00AC                     floor@expon:
   431                           
   432                           ; 2 bytes @ 0xC
   433     00AC                     	ds	2
   434     00AE                     ?_exp:
   435     00AE                     exp@x:	
   436                           ; 4 bytes @ 0xE
   437                           
   438                           
   439                           ; 4 bytes @ 0xE
   440     00AE                     	ds	4
   441     00B2                     _exp$750:
   442                           
   443                           ; 4 bytes @ 0x12
   444     00B2                     	ds	4
   445     00B6                     exp@exponent:
   446                           
   447                           ; 2 bytes @ 0x16
   448     00B6                     	ds	2
   449     00B8                     exp@sign:
   450                           
   451                           ; 1 bytes @ 0x18
   452     00B8                     	ds	1
   453     00B9                     ?_pow:
   454     00B9                     pow@x:	
   455                           ; 4 bytes @ 0x19
   456                           
   457                           
   458                           ; 4 bytes @ 0x19
   459     00B9                     	ds	4
   460     00BD                     pow@y:
   461                           
   462                           ; 4 bytes @ 0x1D
   463     00BD                     	ds	4
   464     00C1                     _pow$748:
   465                           
   466                           ; 4 bytes @ 0x21
   467     00C1                     	ds	4
   468     00C5                     _pow$749:
   469                           
   470                           ; 4 bytes @ 0x25
   471     00C5                     	ds	4
   472     00C9                     pow@sign:
   473                           
   474                           ; 1 bytes @ 0x29
   475     00C9                     	ds	1
   476     00CA                     pow@yi:
   477                           
   478                           ; 4 bytes @ 0x2A
   479     00CA                     	ds	4
   480     00CE                     ??_main:
   481                           
   482                           ; 1 bytes @ 0x2E
   483     00CE                     	ds	4
   484                           
   485                           	psect	cstackCOMMON
   486     0070                     __pcstackCOMMON:
   487     0070                     ?___flge:
   488     0070                     ?_delay:	
   489                           ; 1 bit 
   490                           
   491     0070                     ?_main:	
   492                           ; 1 bytes @ 0x0
   493                           
   494     0070                     ?__Umul8_16:	
   495                           ; 1 bytes @ 0x0
   496                           
   497     0070                     ?___flneg:	
   498                           ; 2 bytes @ 0x0
   499                           
   500     0070                     ?___fldiv:	
   501                           ; 4 bytes @ 0x0
   502                           
   503     0070                     ?___xxtofl:	
   504                           ; 4 bytes @ 0x0
   505                           
   506     0070                     __Umul8_16@multiplicand:	
   507                           ; 4 bytes @ 0x0
   508                           
   509     0070                     delay@t:	
   510                           ; 1 bytes @ 0x0
   511                           
   512     0070                     ___flge@ff1:	
   513                           ; 2 bytes @ 0x0
   514                           
   515     0070                     ___flneg@f1:	
   516                           ; 4 bytes @ 0x0
   517                           
   518     0070                     ___fldiv@a:	
   519                           ; 4 bytes @ 0x0
   520                           
   521     0070                     ___xxtofl@val:	
   522                           ; 4 bytes @ 0x0
   523                           
   524                           
   525                           ; 4 bytes @ 0x0
   526     0070                     	ds	2
   527     0072                     ??__Umul8_16:
   528     0072                     ??_delay:	
   529                           ; 1 bytes @ 0x2
   530                           
   531                           
   532                           ; 1 bytes @ 0x2
   533     0072                     	ds	2
   534     0074                     ??___flneg:
   535     0074                     ??___xxtofl:	
   536                           ; 1 bytes @ 0x4
   537                           
   538     0074                     __Umul8_16@product:	
   539                           ; 1 bytes @ 0x4
   540                           
   541     0074                     ___flge@ff2:	
   542                           ; 2 bytes @ 0x4
   543                           
   544     0074                     ___fldiv@b:	
   545                           ; 4 bytes @ 0x4
   546                           
   547                           
   548                           ; 4 bytes @ 0x4
   549     0074                     	ds	2
   550     0076                     __Umul8_16@word_mpld:
   551                           
   552                           ; 2 bytes @ 0x6
   553     0076                     	ds	2
   554     0078                     ??___flge:
   555     0078                     ??___fldiv:	
   556                           ; 1 bytes @ 0x8
   557                           
   558     0078                     __Umul8_16@multiplier:	
   559                           ; 1 bytes @ 0x8
   560                           
   561     0078                     ___xxtofl@sign:	
   562                           ; 1 bytes @ 0x8
   563                           
   564                           
   565                           ; 1 bytes @ 0x8
   566     0078                     	ds	1
   567     0079                     ___xxtofl@exp:
   568                           
   569                           ; 1 bytes @ 0x9
   570     0079                     	ds	1
   571     007A                     ___xxtofl@arg:
   572                           
   573                           ; 4 bytes @ 0xA
   574     007A                     	ds	4
   575     007E                     ??_pow:
   576     007E                     ??_exp:	
   577                           ; 1 bytes @ 0xE
   578                           
   579     007E                     ??_log:	
   580                           ; 1 bytes @ 0xE
   581                           
   582     007E                     ??_floor:	
   583                           ; 1 bytes @ 0xE
   584                           
   585     007E                     ??___flsub:	
   586                           ; 1 bytes @ 0xE
   587                           
   588                           
   589                           	psect	cstackBANK0
   590     0020                     __pcstackBANK0:	
   591                           ; 1 bytes @ 0xE
   592                           
   593     0020                     ?___fleq:
   594     0020                     ___fleq@ff1:	
   595                           ; 1 bit 
   596                           
   597     0020                     ___fldiv@rem:	
   598                           ; 4 bytes @ 0x0
   599                           
   600                           
   601                           ; 4 bytes @ 0x0
   602     0020                     	ds	4
   603     0024                     ___fldiv@sign:
   604     0024                     ___fleq@ff2:	
   605                           ; 1 bytes @ 0x4
   606                           
   607                           
   608                           ; 4 bytes @ 0x4
   609     0024                     	ds	1
   610     0025                     ___fldiv@new_exp:
   611                           
   612                           ; 2 bytes @ 0x5
   613     0025                     	ds	2
   614     0027                     ___fldiv@grs:
   615                           
   616                           ; 4 bytes @ 0x7
   617     0027                     	ds	1
   618     0028                     ??___fleq:
   619                           
   620                           ; 1 bytes @ 0x8
   621     0028                     	ds	3
   622     002B                     ___fldiv@bexp:
   623                           
   624                           ; 1 bytes @ 0xB
   625     002B                     	ds	1
   626     002C                     ?_frexp:
   627     002C                     ___fldiv@aexp:	
   628                           ; 4 bytes @ 0xC
   629                           
   630     002C                     frexp@value:	
   631                           ; 1 bytes @ 0xC
   632                           
   633                           
   634                           ; 4 bytes @ 0xC
   635     002C                     	ds	4
   636     0030                     frexp@eptr:
   637                           
   638                           ; 1 bytes @ 0x10
   639     0030                     	ds	1
   640     0031                     ??_frexp:
   641                           
   642                           ; 1 bytes @ 0x11
   643     0031                     	ds	2
   644     0033                     ?___flmul:
   645     0033                     ___flmul@b:	
   646                           ; 4 bytes @ 0x13
   647                           
   648                           
   649                           ; 4 bytes @ 0x13
   650     0033                     	ds	4
   651     0037                     ___flmul@a:
   652                           
   653                           ; 4 bytes @ 0x17
   654     0037                     	ds	4
   655     003B                     ??___flmul:
   656                           
   657                           ; 1 bytes @ 0x1B
   658     003B                     	ds	5
   659     0040                     ___flmul@sign:
   660                           
   661                           ; 1 bytes @ 0x20
   662     0040                     	ds	1
   663     0041                     ___flmul@aexp:
   664                           
   665                           ; 1 bytes @ 0x21
   666     0041                     	ds	1
   667     0042                     ___flmul@grs:
   668                           
   669                           ; 4 bytes @ 0x22
   670     0042                     	ds	4
   671     0046                     ___flmul@bexp:
   672                           
   673                           ; 1 bytes @ 0x26
   674     0046                     	ds	1
   675     0047                     ___flmul@prod:
   676                           
   677                           ; 4 bytes @ 0x27
   678     0047                     	ds	4
   679     004B                     ___flmul@temp:
   680                           
   681                           ; 2 bytes @ 0x2B
   682     004B                     	ds	2
   683     004D                     ?___fladd:
   684     004D                     ___fladd@b:	
   685                           ; 4 bytes @ 0x2D
   686                           
   687                           
   688                           ; 4 bytes @ 0x2D
   689     004D                     	ds	4
   690     0051                     ___fladd@a:
   691                           
   692                           ; 4 bytes @ 0x31
   693     0051                     	ds	4
   694     0055                     ??___fladd:
   695                           
   696                           ; 1 bytes @ 0x35
   697     0055                     	ds	8
   698     005D                     ___fladd@signs:
   699                           
   700                           ; 1 bytes @ 0x3D
   701     005D                     	ds	1
   702     005E                     ___fladd@aexp:
   703                           
   704                           ; 1 bytes @ 0x3E
   705     005E                     	ds	1
   706     005F                     ___fladd@bexp:
   707                           
   708                           ; 1 bytes @ 0x3F
   709     005F                     	ds	1
   710     0060                     ___fladd@grs:
   711                           
   712                           ; 1 bytes @ 0x40
   713     0060                     	ds	1
   714     0061                     ?_eval_poly:
   715     0061                     ?___flsub:	
   716                           ; 4 bytes @ 0x41
   717                           
   718     0061                     ___flsub@a:	
   719                           ; 4 bytes @ 0x41
   720                           
   721     0061                     eval_poly@x:	
   722                           ; 4 bytes @ 0x41
   723                           
   724                           
   725                           ; 4 bytes @ 0x41
   726     0061                     	ds	4
   727     0065                     eval_poly@d:
   728     0065                     ___flsub@b:	
   729                           ; 1 bytes @ 0x45
   730                           
   731                           
   732                           ; 4 bytes @ 0x45
   733     0065                     	ds	1
   734     0066                     eval_poly@n:
   735                           
   736                           ; 2 bytes @ 0x46
   737     0066                     	ds	2
   738     0068                     ??_eval_poly:
   739                           
   740                           ; 1 bytes @ 0x48
   741     0068                     	ds	1
   742     0069                     ?___fltol:
   743     0069                     ___fltol@f1:	
   744                           ; 4 bytes @ 0x49
   745                           
   746                           
   747                           ; 4 bytes @ 0x49
   748     0069                     	ds	4
   749     006D                     ??_ldexp:
   750     006D                     ___fltol@sign1:	
   751                           ; 1 bytes @ 0x4D
   752                           
   753     006D                     log@exponent:	
   754                           ; 1 bytes @ 0x4D
   755                           
   756                           
   757                           ; 2 bytes @ 0x4D
   758     006D                     	ds	1
   759     006E                     ___fltol@exp1:
   760                           
   761                           ; 1 bytes @ 0x4E
   762     006E                     	ds	1
   763                           
   764                           	psect	maintext
   765     0275                     __pmaintext:	
   766 ;;
   767 ;;Main: autosize = 0, tempsize = 4, incstack = 0, save=0
   768 ;;
   769 ;; *************** function _main *****************
   770 ;; Defined at:
   771 ;;		line 29 in file "butterfly.c"
   772 ;; Parameters:    Size  Location     Type
   773 ;;		None
   774 ;; Auto vars:     Size  Location     Type
   775 ;;  j               2   34[BANK3 ] int 
   776 ;;  i               2   32[BANK3 ] int 
   777 ;; Return value:  Size  Location     Type
   778 ;;                  1    wreg      void 
   779 ;; Registers used:
   780 ;;		wreg, fsr0l, fsr0h, status,2, status,0, btemp+1, pclath, cstack
   781 ;; Tracked objects:
   782 ;;		On entry : B00/0
   783 ;;		On exit  : 0/0
   784 ;;		Unchanged: 0/0
   785 ;; Data sizes:     COMMON   BANK0   BANK1   BANK3   BANK2
   786 ;;      Params:         0       0       0       0       0
   787 ;;      Locals:         0       0       0      36       0
   788 ;;      Temps:          0       0       4       0       0
   789 ;;      Totals:         0       0       4      36       0
   790 ;;Total ram usage:       40 bytes
   791 ;; Hardware stack levels required when called: 5
   792 ;; This function calls:
   793 ;;		___fladd
   794 ;;		___flsub
   795 ;;		___fltol
   796 ;;		___xxtofl
   797 ;;		_delay
   798 ;;		_pow
   799 ;; This function is called by:
   800 ;;		Startup code after reset
   801 ;; This function uses a non-reentrant model
   802 ;;
   803                           
   804     0275                     _main:	
   805                           ;psect for function _main
   806                           
   807     0275                     l3188:	
   808                           ;incstack = 0
   809                           ; Regs used in _main: [wreg-fsr0h+status,2+status,0+btemp+1+pclath+cstack]
   810                           
   811                           
   812                           ;butterfly.c: 31:     PORTB=0x00;
   813     0275  1283               	bcf	3,5	;RP0=0, select bank0
   814     0276  1303               	bcf	3,6	;RP1=0, select bank0
   815     0277  0186               	clrf	6	;volatile
   816                           
   817                           ;butterfly.c: 32:     TRISB=0x00;
   818     0278  1683               	bsf	3,5	;RP0=1, select bank1
   819     0279  1303               	bcf	3,6	;RP1=0, select bank1
   820     027A  0186               	clrf	6	;volatile
   821                           
   822                           ;butterfly.c: 33:     PORTD=0x00;
   823     027B  1283               	bcf	3,5	;RP0=0, select bank0
   824     027C  1303               	bcf	3,6	;RP1=0, select bank0
   825     027D  0188               	clrf	8	;volatile
   826                           
   827                           ;butterfly.c: 34:     TRISD=0x00;
   828     027E  1683               	bsf	3,5	;RP0=1, select bank1
   829     027F  1303               	bcf	3,6	;RP1=0, select bank1
   830     0280  0188               	clrf	8	;volatile
   831                           
   832                           ;butterfly.c: 35:     ANSEL=ANSELH=0;
   833     0281  1683               	bsf	3,5	;RP0=1, select bank3
   834     0282  1703               	bsf	3,6	;RP1=1, select bank3
   835     0283  0189               	clrf	9	;volatile
   836     0284  0188               	clrf	8	;volatile
   837     0285                     l3190:
   838                           
   839                           ;butterfly.c: 36:     int i,j;;butterfly.c: 37:     for(i=4,j=3;i<8;i++,j--)
   840     0285  3004               	movlw	4
   841     0286  00B0               	movwf	main@i^(0+384)
   842     0287  3000               	movlw	0
   843     0288  00B1               	movwf	(main@i^(0+384)+1)
   844     0289                     l3192:
   845     0289  3003               	movlw	3
   846     028A  00B2               	movwf	main@j^(0+384)
   847     028B  3000               	movlw	0
   848     028C  00B3               	movwf	(main@j^(0+384)+1)
   849     028D                     l3198:
   850                           
   851                           ;butterfly.c: 38:     {;butterfly.c: 39:         PORTB=PORTB+pow(2,i)+pow(2,j);
   852     028D  1683               	bsf	3,5	;RP0=1, select bank3
   853     028E  1703               	bsf	3,6	;RP1=1, select bank3
   854     028F  0830               	movf	main@i^(0+384),w
   855     0290  00F0               	movwf	___xxtofl@val
   856     0291  0831               	movf	(main@i+1)^(0+384),w
   857     0292  00F1               	movwf	___xxtofl@val+1
   858     0293  3000               	movlw	0
   859     0294  1BF1               	btfsc	___xxtofl@val+1,7
   860     0295  30FF               	movlw	255
   861     0296  00F2               	movwf	___xxtofl@val+2
   862     0297  00F3               	movwf	___xxtofl@val+3
   863     0298  3001               	movlw	1
   864     0299  160A  118A  2150  120A  118A  	fcall	___xxtofl
   865     029E  0873               	movf	?___xxtofl+3,w
   866     029F  1683               	bsf	3,5	;RP0=1, select bank3
   867     02A0  1703               	bsf	3,6	;RP1=1, select bank3
   868     02A1  00AB               	movwf	(_main$740+3)^(0+384)
   869     02A2  0872               	movf	?___xxtofl+2,w
   870     02A3  00AA               	movwf	(_main$740+2)^(0+384)
   871     02A4  0871               	movf	?___xxtofl+1,w
   872     02A5  00A9               	movwf	(_main$740+1)^(0+384)
   873     02A6  0870               	movf	?___xxtofl,w
   874     02A7  00A8               	movwf	_main$740^(0+384)
   875     02A8                     l3200:
   876                           
   877                           ;butterfly.c: 38:     {;butterfly.c: 39:         PORTB=PORTB+pow(2,i)+pow(2,j);
   878     02A8  082B               	movf	(_main$740+3)^(0+384),w
   879     02A9  1683               	bsf	3,5	;RP0=1, select bank1
   880     02AA  1303               	bcf	3,6	;RP1=0, select bank1
   881     02AB  00C0               	movwf	(pow@y+3)^(0+128)
   882     02AC  1683               	bsf	3,5	;RP0=1, select bank3
   883     02AD  1703               	bsf	3,6	;RP1=1, select bank3
   884     02AE  082A               	movf	(_main$740+2)^(0+384),w
   885     02AF  1683               	bsf	3,5	;RP0=1, select bank1
   886     02B0  1303               	bcf	3,6	;RP1=0, select bank1
   887     02B1  00BF               	movwf	(pow@y+2)^(0+128)
   888     02B2  1683               	bsf	3,5	;RP0=1, select bank3
   889     02B3  1703               	bsf	3,6	;RP1=1, select bank3
   890     02B4  0829               	movf	(_main$740+1)^(0+384),w
   891     02B5  1683               	bsf	3,5	;RP0=1, select bank1
   892     02B6  1303               	bcf	3,6	;RP1=0, select bank1
   893     02B7  00BE               	movwf	(pow@y+1)^(0+128)
   894     02B8  1683               	bsf	3,5	;RP0=1, select bank3
   895     02B9  1703               	bsf	3,6	;RP1=1, select bank3
   896     02BA  0828               	movf	_main$740^(0+384),w
   897     02BB  1683               	bsf	3,5	;RP0=1, select bank1
   898     02BC  1303               	bcf	3,6	;RP1=0, select bank1
   899     02BD  00BD               	movwf	pow@y^(0+128)
   900     02BE  3040               	movlw	64
   901     02BF  00BC               	movwf	(pow@x+3)^(0+128)
   902     02C0  3000               	movlw	0
   903     02C1  00BB               	movwf	(pow@x+2)^(0+128)
   904     02C2  3000               	movlw	0
   905     02C3  00BA               	movwf	(pow@x+1)^(0+128)
   906     02C4  3000               	movlw	0
   907     02C5  00B9               	movwf	pow@x^(0+128)
   908     02C6  160A  118A  2629  120A  118A  	fcall	_pow
   909     02CB  1683               	bsf	3,5	;RP0=1, select bank1
   910     02CC  1303               	bcf	3,6	;RP1=0, select bank1
   911     02CD  083C               	movf	(?_pow+3)^(0+128),w
   912     02CE  1683               	bsf	3,5	;RP0=1, select bank3
   913     02CF  1703               	bsf	3,6	;RP1=1, select bank3
   914     02D0  0093               	movwf	(_main$741+3)^(0+384)
   915     02D1  1683               	bsf	3,5	;RP0=1, select bank1
   916     02D2  1303               	bcf	3,6	;RP1=0, select bank1
   917     02D3  083B               	movf	(?_pow+2)^(0+128),w
   918     02D4  1683               	bsf	3,5	;RP0=1, select bank3
   919     02D5  1703               	bsf	3,6	;RP1=1, select bank3
   920     02D6  0092               	movwf	(_main$741+2)^(0+384)
   921     02D7  1683               	bsf	3,5	;RP0=1, select bank1
   922     02D8  1303               	bcf	3,6	;RP1=0, select bank1
   923     02D9  083A               	movf	(?_pow+1)^(0+128),w
   924     02DA  1683               	bsf	3,5	;RP0=1, select bank3
   925     02DB  1703               	bsf	3,6	;RP1=1, select bank3
   926     02DC  0091               	movwf	(_main$741+1)^(0+384)
   927     02DD  1683               	bsf	3,5	;RP0=1, select bank1
   928     02DE  1303               	bcf	3,6	;RP1=0, select bank1
   929     02DF  0839               	movf	?_pow^(0+128),w
   930     02E0  1683               	bsf	3,5	;RP0=1, select bank3
   931     02E1  1703               	bsf	3,6	;RP1=1, select bank3
   932     02E2  0090               	movwf	_main$741^(0+384)
   933     02E3                     l3202:
   934                           
   935                           ;butterfly.c: 38:     {;butterfly.c: 39:         PORTB=PORTB+pow(2,i)+pow(2,j);
   936     02E3  0832               	movf	main@j^(0+384),w
   937     02E4  00F0               	movwf	___xxtofl@val
   938     02E5  0833               	movf	(main@j+1)^(0+384),w
   939     02E6  00F1               	movwf	___xxtofl@val+1
   940     02E7  3000               	movlw	0
   941     02E8  1BF1               	btfsc	___xxtofl@val+1,7
   942     02E9  30FF               	movlw	255
   943     02EA  00F2               	movwf	___xxtofl@val+2
   944     02EB  00F3               	movwf	___xxtofl@val+3
   945     02EC  3001               	movlw	1
   946     02ED  160A  118A  2150  120A  118A  	fcall	___xxtofl
   947     02F2  0873               	movf	?___xxtofl+3,w
   948     02F3  1683               	bsf	3,5	;RP0=1, select bank3
   949     02F4  1703               	bsf	3,6	;RP1=1, select bank3
   950     02F5  00AF               	movwf	(_main$742+3)^(0+384)
   951     02F6  0872               	movf	?___xxtofl+2,w
   952     02F7  00AE               	movwf	(_main$742+2)^(0+384)
   953     02F8  0871               	movf	?___xxtofl+1,w
   954     02F9  00AD               	movwf	(_main$742+1)^(0+384)
   955     02FA  0870               	movf	?___xxtofl,w
   956     02FB  00AC               	movwf	_main$742^(0+384)
   957     02FC                     l3204:
   958                           
   959                           ;butterfly.c: 38:     {;butterfly.c: 39:         PORTB=PORTB+pow(2,i)+pow(2,j);
   960     02FC  1283               	bcf	3,5	;RP0=0, select bank0
   961     02FD  1303               	bcf	3,6	;RP1=0, select bank0
   962     02FE  0806               	movf	6,w	;volatile
   963     02FF  1683               	bsf	3,5	;RP0=1, select bank1
   964     0300  1303               	bcf	3,6	;RP1=0, select bank1
   965     0301  00CE               	movwf	??_main^(0+128)
   966     0302  01CF               	clrf	(??_main^(0+128)+1)
   967     0303  01D0               	clrf	(??_main^(0+128)+2)
   968     0304  01D1               	clrf	(??_main^(0+128)+3)
   969     0305  0851               	movf	(??_main+3)^(0+128),w
   970     0306  00F3               	movwf	___xxtofl@val+3
   971     0307  0850               	movf	(??_main+2)^(0+128),w
   972     0308  00F2               	movwf	___xxtofl@val+2
   973     0309  084F               	movf	(??_main+1)^(0+128),w
   974     030A  00F1               	movwf	___xxtofl@val+1
   975     030B  084E               	movf	??_main^(0+128),w
   976     030C  00F0               	movwf	___xxtofl@val
   977     030D  3001               	movlw	1
   978     030E  160A  118A  2150  120A  118A  	fcall	___xxtofl
   979     0313  0873               	movf	?___xxtofl+3,w
   980     0314  1283               	bcf	3,5	;RP0=0, select bank0
   981     0315  1303               	bcf	3,6	;RP1=0, select bank0
   982     0316  00D4               	movwf	___fladd@a+3
   983     0317  0872               	movf	?___xxtofl+2,w
   984     0318  00D3               	movwf	___fladd@a+2
   985     0319  0871               	movf	?___xxtofl+1,w
   986     031A  00D2               	movwf	___fladd@a+1
   987     031B  0870               	movf	?___xxtofl,w
   988     031C  00D1               	movwf	___fladd@a
   989     031D  1683               	bsf	3,5	;RP0=1, select bank3
   990     031E  1703               	bsf	3,6	;RP1=1, select bank3
   991     031F  0813               	movf	(_main$741+3)^(0+384),w
   992     0320  1283               	bcf	3,5	;RP0=0, select bank0
   993     0321  1303               	bcf	3,6	;RP1=0, select bank0
   994     0322  00D0               	movwf	___fladd@b+3
   995     0323  1683               	bsf	3,5	;RP0=1, select bank3
   996     0324  1703               	bsf	3,6	;RP1=1, select bank3
   997     0325  0812               	movf	(_main$741+2)^(0+384),w
   998     0326  1283               	bcf	3,5	;RP0=0, select bank0
   999     0327  1303               	bcf	3,6	;RP1=0, select bank0
  1000     0328  00CF               	movwf	___fladd@b+2
  1001     0329  1683               	bsf	3,5	;RP0=1, select bank3
  1002     032A  1703               	bsf	3,6	;RP1=1, select bank3
  1003     032B  0811               	movf	(_main$741+1)^(0+384),w
  1004     032C  1283               	bcf	3,5	;RP0=0, select bank0
  1005     032D  1303               	bcf	3,6	;RP1=0, select bank0
  1006     032E  00CE               	movwf	___fladd@b+1
  1007     032F  1683               	bsf	3,5	;RP0=1, select bank3
  1008     0330  1703               	bsf	3,6	;RP1=1, select bank3
  1009     0331  0810               	movf	_main$741^(0+384),w
  1010     0332  1283               	bcf	3,5	;RP0=0, select bank0
  1011     0333  1303               	bcf	3,6	;RP1=0, select bank0
  1012     0334  00CD               	movwf	___fladd@b
  1013     0335  120A  118A  201D  120A  118A  	fcall	___fladd
  1014     033A  1283               	bcf	3,5	;RP0=0, select bank0
  1015     033B  1303               	bcf	3,6	;RP1=0, select bank0
  1016     033C  0850               	movf	?___fladd+3,w
  1017     033D  1683               	bsf	3,5	;RP0=1, select bank3
  1018     033E  1703               	bsf	3,6	;RP1=1, select bank3
  1019     033F  0097               	movwf	(_main$743+3)^(0+384)
  1020     0340  1283               	bcf	3,5	;RP0=0, select bank0
  1021     0341  1303               	bcf	3,6	;RP1=0, select bank0
  1022     0342  084F               	movf	?___fladd+2,w
  1023     0343  1683               	bsf	3,5	;RP0=1, select bank3
  1024     0344  1703               	bsf	3,6	;RP1=1, select bank3
  1025     0345  0096               	movwf	(_main$743+2)^(0+384)
  1026     0346  1283               	bcf	3,5	;RP0=0, select bank0
  1027     0347  1303               	bcf	3,6	;RP1=0, select bank0
  1028     0348  084E               	movf	?___fladd+1,w
  1029     0349  1683               	bsf	3,5	;RP0=1, select bank3
  1030     034A  1703               	bsf	3,6	;RP1=1, select bank3
  1031     034B  0095               	movwf	(_main$743+1)^(0+384)
  1032     034C  1283               	bcf	3,5	;RP0=0, select bank0
  1033     034D  1303               	bcf	3,6	;RP1=0, select bank0
  1034     034E  084D               	movf	?___fladd,w
  1035     034F  1683               	bsf	3,5	;RP0=1, select bank3
  1036     0350  1703               	bsf	3,6	;RP1=1, select bank3
  1037     0351  0094               	movwf	_main$743^(0+384)
  1038     0352                     l3206:
  1039                           
  1040                           ;butterfly.c: 38:     {;butterfly.c: 39:         PORTB=PORTB+pow(2,i)+pow(2,j);
  1041     0352  082F               	movf	(_main$742+3)^(0+384),w
  1042     0353  1683               	bsf	3,5	;RP0=1, select bank1
  1043     0354  1303               	bcf	3,6	;RP1=0, select bank1
  1044     0355  00C0               	movwf	(pow@y+3)^(0+128)
  1045     0356  1683               	bsf	3,5	;RP0=1, select bank3
  1046     0357  1703               	bsf	3,6	;RP1=1, select bank3
  1047     0358  082E               	movf	(_main$742+2)^(0+384),w
  1048     0359  1683               	bsf	3,5	;RP0=1, select bank1
  1049     035A  1303               	bcf	3,6	;RP1=0, select bank1
  1050     035B  00BF               	movwf	(pow@y+2)^(0+128)
  1051     035C  1683               	bsf	3,5	;RP0=1, select bank3
  1052     035D  1703               	bsf	3,6	;RP1=1, select bank3
  1053     035E  082D               	movf	(_main$742+1)^(0+384),w
  1054     035F  1683               	bsf	3,5	;RP0=1, select bank1
  1055     0360  1303               	bcf	3,6	;RP1=0, select bank1
  1056     0361  00BE               	movwf	(pow@y+1)^(0+128)
  1057     0362  1683               	bsf	3,5	;RP0=1, select bank3
  1058     0363  1703               	bsf	3,6	;RP1=1, select bank3
  1059     0364  082C               	movf	_main$742^(0+384),w
  1060     0365  1683               	bsf	3,5	;RP0=1, select bank1
  1061     0366  1303               	bcf	3,6	;RP1=0, select bank1
  1062     0367  00BD               	movwf	pow@y^(0+128)
  1063     0368  3040               	movlw	64
  1064     0369  00BC               	movwf	(pow@x+3)^(0+128)
  1065     036A  3000               	movlw	0
  1066     036B  00BB               	movwf	(pow@x+2)^(0+128)
  1067     036C  3000               	movlw	0
  1068     036D  00BA               	movwf	(pow@x+1)^(0+128)
  1069     036E  3000               	movlw	0
  1070     036F  00B9               	movwf	pow@x^(0+128)
  1071     0370  160A  118A  2629  120A  118A  	fcall	_pow
  1072     0375  1683               	bsf	3,5	;RP0=1, select bank1
  1073     0376  1303               	bcf	3,6	;RP1=0, select bank1
  1074     0377  083C               	movf	(?_pow+3)^(0+128),w
  1075     0378  1683               	bsf	3,5	;RP0=1, select bank3
  1076     0379  1703               	bsf	3,6	;RP1=1, select bank3
  1077     037A  009B               	movwf	(_main$744+3)^(0+384)
  1078     037B  1683               	bsf	3,5	;RP0=1, select bank1
  1079     037C  1303               	bcf	3,6	;RP1=0, select bank1
  1080     037D  083B               	movf	(?_pow+2)^(0+128),w
  1081     037E  1683               	bsf	3,5	;RP0=1, select bank3
  1082     037F  1703               	bsf	3,6	;RP1=1, select bank3
  1083     0380  009A               	movwf	(_main$744+2)^(0+384)
  1084     0381  1683               	bsf	3,5	;RP0=1, select bank1
  1085     0382  1303               	bcf	3,6	;RP1=0, select bank1
  1086     0383  083A               	movf	(?_pow+1)^(0+128),w
  1087     0384  1683               	bsf	3,5	;RP0=1, select bank3
  1088     0385  1703               	bsf	3,6	;RP1=1, select bank3
  1089     0386  0099               	movwf	(_main$744+1)^(0+384)
  1090     0387  1683               	bsf	3,5	;RP0=1, select bank1
  1091     0388  1303               	bcf	3,6	;RP1=0, select bank1
  1092     0389  0839               	movf	?_pow^(0+128),w
  1093     038A  1683               	bsf	3,5	;RP0=1, select bank3
  1094     038B  1703               	bsf	3,6	;RP1=1, select bank3
  1095     038C  0098               	movwf	_main$744^(0+384)
  1096                           
  1097                           ;butterfly.c: 38:     {;butterfly.c: 39:         PORTB=PORTB+pow(2,i)+pow(2,j);
  1098     038D  0817               	movf	(_main$743+3)^(0+384),w
  1099     038E  1283               	bcf	3,5	;RP0=0, select bank0
  1100     038F  1303               	bcf	3,6	;RP1=0, select bank0
  1101     0390  00D4               	movwf	___fladd@a+3
  1102     0391  1683               	bsf	3,5	;RP0=1, select bank3
  1103     0392  1703               	bsf	3,6	;RP1=1, select bank3
  1104     0393  0816               	movf	(_main$743+2)^(0+384),w
  1105     0394  1283               	bcf	3,5	;RP0=0, select bank0
  1106     0395  1303               	bcf	3,6	;RP1=0, select bank0
  1107     0396  00D3               	movwf	___fladd@a+2
  1108     0397  1683               	bsf	3,5	;RP0=1, select bank3
  1109     0398  1703               	bsf	3,6	;RP1=1, select bank3
  1110     0399  0815               	movf	(_main$743+1)^(0+384),w
  1111     039A  1283               	bcf	3,5	;RP0=0, select bank0
  1112     039B  1303               	bcf	3,6	;RP1=0, select bank0
  1113     039C  00D2               	movwf	___fladd@a+1
  1114     039D  1683               	bsf	3,5	;RP0=1, select bank3
  1115     039E  1703               	bsf	3,6	;RP1=1, select bank3
  1116     039F  0814               	movf	_main$743^(0+384),w
  1117     03A0  1283               	bcf	3,5	;RP0=0, select bank0
  1118     03A1  1303               	bcf	3,6	;RP1=0, select bank0
  1119     03A2  00D1               	movwf	___fladd@a
  1120     03A3  1683               	bsf	3,5	;RP0=1, select bank3
  1121     03A4  1703               	bsf	3,6	;RP1=1, select bank3
  1122     03A5  081B               	movf	(_main$744+3)^(0+384),w
  1123     03A6  1283               	bcf	3,5	;RP0=0, select bank0
  1124     03A7  1303               	bcf	3,6	;RP1=0, select bank0
  1125     03A8  00D0               	movwf	___fladd@b+3
  1126     03A9  1683               	bsf	3,5	;RP0=1, select bank3
  1127     03AA  1703               	bsf	3,6	;RP1=1, select bank3
  1128     03AB  081A               	movf	(_main$744+2)^(0+384),w
  1129     03AC  1283               	bcf	3,5	;RP0=0, select bank0
  1130     03AD  1303               	bcf	3,6	;RP1=0, select bank0
  1131     03AE  00CF               	movwf	___fladd@b+2
  1132     03AF  1683               	bsf	3,5	;RP0=1, select bank3
  1133     03B0  1703               	bsf	3,6	;RP1=1, select bank3
  1134     03B1  0819               	movf	(_main$744+1)^(0+384),w
  1135     03B2  1283               	bcf	3,5	;RP0=0, select bank0
  1136     03B3  1303               	bcf	3,6	;RP1=0, select bank0
  1137     03B4  00CE               	movwf	___fladd@b+1
  1138     03B5  1683               	bsf	3,5	;RP0=1, select bank3
  1139     03B6  1703               	bsf	3,6	;RP1=1, select bank3
  1140     03B7  0818               	movf	_main$744^(0+384),w
  1141     03B8  1283               	bcf	3,5	;RP0=0, select bank0
  1142     03B9  1303               	bcf	3,6	;RP1=0, select bank0
  1143     03BA  00CD               	movwf	___fladd@b
  1144     03BB  120A  118A  201D  120A  118A  	fcall	___fladd
  1145     03C0  1283               	bcf	3,5	;RP0=0, select bank0
  1146     03C1  1303               	bcf	3,6	;RP1=0, select bank0
  1147     03C2  0850               	movf	?___fladd+3,w
  1148     03C3  00EC               	movwf	___fltol@f1+3
  1149     03C4  084F               	movf	?___fladd+2,w
  1150     03C5  00EB               	movwf	___fltol@f1+2
  1151     03C6  084E               	movf	?___fladd+1,w
  1152     03C7  00EA               	movwf	___fltol@f1+1
  1153     03C8  084D               	movf	?___fladd,w
  1154     03C9  00E9               	movwf	___fltol@f1
  1155     03CA  160A  118A  20BC  120A  118A  	fcall	___fltol
  1156     03CF  1283               	bcf	3,5	;RP0=0, select bank0
  1157     03D0  1303               	bcf	3,6	;RP1=0, select bank0
  1158     03D1  0869               	movf	?___fltol,w
  1159     03D2  0086               	movwf	6	;volatile
  1160     03D3                     l3208:
  1161                           
  1162                           ;butterfly.c: 40:         PORTD=PORTD+pow(2,i)+pow(2,j);
  1163     03D3  1683               	bsf	3,5	;RP0=1, select bank3
  1164     03D4  1703               	bsf	3,6	;RP1=1, select bank3
  1165     03D5  0830               	movf	main@i^(0+384),w
  1166     03D6  00F0               	movwf	___xxtofl@val
  1167     03D7  0831               	movf	(main@i+1)^(0+384),w
  1168     03D8  00F1               	movwf	___xxtofl@val+1
  1169     03D9  3000               	movlw	0
  1170     03DA  1BF1               	btfsc	___xxtofl@val+1,7
  1171     03DB  30FF               	movlw	255
  1172     03DC  00F2               	movwf	___xxtofl@val+2
  1173     03DD  00F3               	movwf	___xxtofl@val+3
  1174     03DE  3001               	movlw	1
  1175     03DF  160A  118A  2150  120A  118A  	fcall	___xxtofl
  1176     03E4  0873               	movf	?___xxtofl+3,w
  1177     03E5  1683               	bsf	3,5	;RP0=1, select bank3
  1178     03E6  1703               	bsf	3,6	;RP1=1, select bank3
  1179     03E7  00AB               	movwf	(_main$740+3)^(0+384)
  1180     03E8  0872               	movf	?___xxtofl+2,w
  1181     03E9  00AA               	movwf	(_main$740+2)^(0+384)
  1182     03EA  0871               	movf	?___xxtofl+1,w
  1183     03EB  00A9               	movwf	(_main$740+1)^(0+384)
  1184     03EC  0870               	movf	?___xxtofl,w
  1185     03ED  00A8               	movwf	_main$740^(0+384)
  1186     03EE                     l3210:
  1187                           
  1188                           ;butterfly.c: 40:         PORTD=PORTD+pow(2,i)+pow(2,j);
  1189     03EE  082B               	movf	(_main$740+3)^(0+384),w
  1190     03EF  1683               	bsf	3,5	;RP0=1, select bank1
  1191     03F0  1303               	bcf	3,6	;RP1=0, select bank1
  1192     03F1  00C0               	movwf	(pow@y+3)^(0+128)
  1193     03F2  1683               	bsf	3,5	;RP0=1, select bank3
  1194     03F3  1703               	bsf	3,6	;RP1=1, select bank3
  1195     03F4  082A               	movf	(_main$740+2)^(0+384),w
  1196     03F5  1683               	bsf	3,5	;RP0=1, select bank1
  1197     03F6  1303               	bcf	3,6	;RP1=0, select bank1
  1198     03F7  00BF               	movwf	(pow@y+2)^(0+128)
  1199     03F8  1683               	bsf	3,5	;RP0=1, select bank3
  1200     03F9  1703               	bsf	3,6	;RP1=1, select bank3
  1201     03FA  0829               	movf	(_main$740+1)^(0+384),w
  1202     03FB  1683               	bsf	3,5	;RP0=1, select bank1
  1203     03FC  1303               	bcf	3,6	;RP1=0, select bank1
  1204     03FD  00BE               	movwf	(pow@y+1)^(0+128)
  1205     03FE  1683               	bsf	3,5	;RP0=1, select bank3
  1206     03FF  1703               	bsf	3,6	;RP1=1, select bank3
  1207     0400  0828               	movf	_main$740^(0+384),w
  1208     0401  1683               	bsf	3,5	;RP0=1, select bank1
  1209     0402  1303               	bcf	3,6	;RP1=0, select bank1
  1210     0403  00BD               	movwf	pow@y^(0+128)
  1211     0404  3040               	movlw	64
  1212     0405  00BC               	movwf	(pow@x+3)^(0+128)
  1213     0406  3000               	movlw	0
  1214     0407  00BB               	movwf	(pow@x+2)^(0+128)
  1215     0408  3000               	movlw	0
  1216     0409  00BA               	movwf	(pow@x+1)^(0+128)
  1217     040A  3000               	movlw	0
  1218     040B  00B9               	movwf	pow@x^(0+128)
  1219     040C  160A  118A  2629  120A  118A  	fcall	_pow
  1220     0411  1683               	bsf	3,5	;RP0=1, select bank1
  1221     0412  1303               	bcf	3,6	;RP1=0, select bank1
  1222     0413  083C               	movf	(?_pow+3)^(0+128),w
  1223     0414  1683               	bsf	3,5	;RP0=1, select bank3
  1224     0415  1703               	bsf	3,6	;RP1=1, select bank3
  1225     0416  0093               	movwf	(_main$741+3)^(0+384)
  1226     0417  1683               	bsf	3,5	;RP0=1, select bank1
  1227     0418  1303               	bcf	3,6	;RP1=0, select bank1
  1228     0419  083B               	movf	(?_pow+2)^(0+128),w
  1229     041A  1683               	bsf	3,5	;RP0=1, select bank3
  1230     041B  1703               	bsf	3,6	;RP1=1, select bank3
  1231     041C  0092               	movwf	(_main$741+2)^(0+384)
  1232     041D  1683               	bsf	3,5	;RP0=1, select bank1
  1233     041E  1303               	bcf	3,6	;RP1=0, select bank1
  1234     041F  083A               	movf	(?_pow+1)^(0+128),w
  1235     0420  1683               	bsf	3,5	;RP0=1, select bank3
  1236     0421  1703               	bsf	3,6	;RP1=1, select bank3
  1237     0422  0091               	movwf	(_main$741+1)^(0+384)
  1238     0423  1683               	bsf	3,5	;RP0=1, select bank1
  1239     0424  1303               	bcf	3,6	;RP1=0, select bank1
  1240     0425  0839               	movf	?_pow^(0+128),w
  1241     0426  1683               	bsf	3,5	;RP0=1, select bank3
  1242     0427  1703               	bsf	3,6	;RP1=1, select bank3
  1243     0428  0090               	movwf	_main$741^(0+384)
  1244     0429                     l3212:
  1245                           
  1246                           ;butterfly.c: 40:         PORTD=PORTD+pow(2,i)+pow(2,j);
  1247     0429  0832               	movf	main@j^(0+384),w
  1248     042A  00F0               	movwf	___xxtofl@val
  1249     042B  0833               	movf	(main@j+1)^(0+384),w
  1250     042C  00F1               	movwf	___xxtofl@val+1
  1251     042D  3000               	movlw	0
  1252     042E  1BF1               	btfsc	___xxtofl@val+1,7
  1253     042F  30FF               	movlw	255
  1254     0430  00F2               	movwf	___xxtofl@val+2
  1255     0431  00F3               	movwf	___xxtofl@val+3
  1256     0432  3001               	movlw	1
  1257     0433  160A  118A  2150  120A  118A  	fcall	___xxtofl
  1258     0438  0873               	movf	?___xxtofl+3,w
  1259     0439  1683               	bsf	3,5	;RP0=1, select bank3
  1260     043A  1703               	bsf	3,6	;RP1=1, select bank3
  1261     043B  00AF               	movwf	(_main$742+3)^(0+384)
  1262     043C  0872               	movf	?___xxtofl+2,w
  1263     043D  00AE               	movwf	(_main$742+2)^(0+384)
  1264     043E  0871               	movf	?___xxtofl+1,w
  1265     043F  00AD               	movwf	(_main$742+1)^(0+384)
  1266     0440  0870               	movf	?___xxtofl,w
  1267     0441  00AC               	movwf	_main$742^(0+384)
  1268     0442                     l3214:
  1269                           
  1270                           ;butterfly.c: 40:         PORTD=PORTD+pow(2,i)+pow(2,j);
  1271     0442  1283               	bcf	3,5	;RP0=0, select bank0
  1272     0443  1303               	bcf	3,6	;RP1=0, select bank0
  1273     0444  0808               	movf	8,w	;volatile
  1274     0445  1683               	bsf	3,5	;RP0=1, select bank1
  1275     0446  1303               	bcf	3,6	;RP1=0, select bank1
  1276     0447  00CE               	movwf	??_main^(0+128)
  1277     0448  01CF               	clrf	(??_main^(0+128)+1)
  1278     0449  01D0               	clrf	(??_main^(0+128)+2)
  1279     044A  01D1               	clrf	(??_main^(0+128)+3)
  1280     044B  0851               	movf	(??_main+3)^(0+128),w
  1281     044C  00F3               	movwf	___xxtofl@val+3
  1282     044D  0850               	movf	(??_main+2)^(0+128),w
  1283     044E  00F2               	movwf	___xxtofl@val+2
  1284     044F  084F               	movf	(??_main+1)^(0+128),w
  1285     0450  00F1               	movwf	___xxtofl@val+1
  1286     0451  084E               	movf	??_main^(0+128),w
  1287     0452  00F0               	movwf	___xxtofl@val
  1288     0453  3001               	movlw	1
  1289     0454  160A  118A  2150  120A  118A  	fcall	___xxtofl
  1290     0459  0873               	movf	?___xxtofl+3,w
  1291     045A  1283               	bcf	3,5	;RP0=0, select bank0
  1292     045B  1303               	bcf	3,6	;RP1=0, select bank0
  1293     045C  00D4               	movwf	___fladd@a+3
  1294     045D  0872               	movf	?___xxtofl+2,w
  1295     045E  00D3               	movwf	___fladd@a+2
  1296     045F  0871               	movf	?___xxtofl+1,w
  1297     0460  00D2               	movwf	___fladd@a+1
  1298     0461  0870               	movf	?___xxtofl,w
  1299     0462  00D1               	movwf	___fladd@a
  1300     0463  1683               	bsf	3,5	;RP0=1, select bank3
  1301     0464  1703               	bsf	3,6	;RP1=1, select bank3
  1302     0465  0813               	movf	(_main$741+3)^(0+384),w
  1303     0466  1283               	bcf	3,5	;RP0=0, select bank0
  1304     0467  1303               	bcf	3,6	;RP1=0, select bank0
  1305     0468  00D0               	movwf	___fladd@b+3
  1306     0469  1683               	bsf	3,5	;RP0=1, select bank3
  1307     046A  1703               	bsf	3,6	;RP1=1, select bank3
  1308     046B  0812               	movf	(_main$741+2)^(0+384),w
  1309     046C  1283               	bcf	3,5	;RP0=0, select bank0
  1310     046D  1303               	bcf	3,6	;RP1=0, select bank0
  1311     046E  00CF               	movwf	___fladd@b+2
  1312     046F  1683               	bsf	3,5	;RP0=1, select bank3
  1313     0470  1703               	bsf	3,6	;RP1=1, select bank3
  1314     0471  0811               	movf	(_main$741+1)^(0+384),w
  1315     0472  1283               	bcf	3,5	;RP0=0, select bank0
  1316     0473  1303               	bcf	3,6	;RP1=0, select bank0
  1317     0474  00CE               	movwf	___fladd@b+1
  1318     0475  1683               	bsf	3,5	;RP0=1, select bank3
  1319     0476  1703               	bsf	3,6	;RP1=1, select bank3
  1320     0477  0810               	movf	_main$741^(0+384),w
  1321     0478  1283               	bcf	3,5	;RP0=0, select bank0
  1322     0479  1303               	bcf	3,6	;RP1=0, select bank0
  1323     047A  00CD               	movwf	___fladd@b
  1324     047B  120A  118A  201D  120A  118A  	fcall	___fladd
  1325     0480  1283               	bcf	3,5	;RP0=0, select bank0
  1326     0481  1303               	bcf	3,6	;RP1=0, select bank0
  1327     0482  0850               	movf	?___fladd+3,w
  1328     0483  1683               	bsf	3,5	;RP0=1, select bank3
  1329     0484  1703               	bsf	3,6	;RP1=1, select bank3
  1330     0485  0097               	movwf	(_main$743+3)^(0+384)
  1331     0486  1283               	bcf	3,5	;RP0=0, select bank0
  1332     0487  1303               	bcf	3,6	;RP1=0, select bank0
  1333     0488  084F               	movf	?___fladd+2,w
  1334     0489  1683               	bsf	3,5	;RP0=1, select bank3
  1335     048A  1703               	bsf	3,6	;RP1=1, select bank3
  1336     048B  0096               	movwf	(_main$743+2)^(0+384)
  1337     048C  1283               	bcf	3,5	;RP0=0, select bank0
  1338     048D  1303               	bcf	3,6	;RP1=0, select bank0
  1339     048E  084E               	movf	?___fladd+1,w
  1340     048F  1683               	bsf	3,5	;RP0=1, select bank3
  1341     0490  1703               	bsf	3,6	;RP1=1, select bank3
  1342     0491  0095               	movwf	(_main$743+1)^(0+384)
  1343     0492  1283               	bcf	3,5	;RP0=0, select bank0
  1344     0493  1303               	bcf	3,6	;RP1=0, select bank0
  1345     0494  084D               	movf	?___fladd,w
  1346     0495  1683               	bsf	3,5	;RP0=1, select bank3
  1347     0496  1703               	bsf	3,6	;RP1=1, select bank3
  1348     0497  0094               	movwf	_main$743^(0+384)
  1349                           
  1350                           ;butterfly.c: 40:         PORTD=PORTD+pow(2,i)+pow(2,j);
  1351     0498  082F               	movf	(_main$742+3)^(0+384),w
  1352     0499  1683               	bsf	3,5	;RP0=1, select bank1
  1353     049A  1303               	bcf	3,6	;RP1=0, select bank1
  1354     049B  00C0               	movwf	(pow@y+3)^(0+128)
  1355     049C  1683               	bsf	3,5	;RP0=1, select bank3
  1356     049D  1703               	bsf	3,6	;RP1=1, select bank3
  1357     049E  082E               	movf	(_main$742+2)^(0+384),w
  1358     049F  1683               	bsf	3,5	;RP0=1, select bank1
  1359     04A0  1303               	bcf	3,6	;RP1=0, select bank1
  1360     04A1  00BF               	movwf	(pow@y+2)^(0+128)
  1361     04A2  1683               	bsf	3,5	;RP0=1, select bank3
  1362     04A3  1703               	bsf	3,6	;RP1=1, select bank3
  1363     04A4  082D               	movf	(_main$742+1)^(0+384),w
  1364     04A5  1683               	bsf	3,5	;RP0=1, select bank1
  1365     04A6  1303               	bcf	3,6	;RP1=0, select bank1
  1366     04A7  00BE               	movwf	(pow@y+1)^(0+128)
  1367     04A8  1683               	bsf	3,5	;RP0=1, select bank3
  1368     04A9  1703               	bsf	3,6	;RP1=1, select bank3
  1369     04AA  082C               	movf	_main$742^(0+384),w
  1370     04AB  1683               	bsf	3,5	;RP0=1, select bank1
  1371     04AC  1303               	bcf	3,6	;RP1=0, select bank1
  1372     04AD  00BD               	movwf	pow@y^(0+128)
  1373     04AE  3040               	movlw	64
  1374     04AF  00BC               	movwf	(pow@x+3)^(0+128)
  1375     04B0  3000               	movlw	0
  1376     04B1  00BB               	movwf	(pow@x+2)^(0+128)
  1377     04B2  3000               	movlw	0
  1378     04B3  00BA               	movwf	(pow@x+1)^(0+128)
  1379     04B4  3000               	movlw	0
  1380     04B5  00B9               	movwf	pow@x^(0+128)
  1381     04B6  160A  118A  2629  120A  118A  	fcall	_pow
  1382     04BB  1683               	bsf	3,5	;RP0=1, select bank1
  1383     04BC  1303               	bcf	3,6	;RP1=0, select bank1
  1384     04BD  083C               	movf	(?_pow+3)^(0+128),w
  1385     04BE  1683               	bsf	3,5	;RP0=1, select bank3
  1386     04BF  1703               	bsf	3,6	;RP1=1, select bank3
  1387     04C0  009B               	movwf	(_main$744+3)^(0+384)
  1388     04C1  1683               	bsf	3,5	;RP0=1, select bank1
  1389     04C2  1303               	bcf	3,6	;RP1=0, select bank1
  1390     04C3  083B               	movf	(?_pow+2)^(0+128),w
  1391     04C4  1683               	bsf	3,5	;RP0=1, select bank3
  1392     04C5  1703               	bsf	3,6	;RP1=1, select bank3
  1393     04C6  009A               	movwf	(_main$744+2)^(0+384)
  1394     04C7  1683               	bsf	3,5	;RP0=1, select bank1
  1395     04C8  1303               	bcf	3,6	;RP1=0, select bank1
  1396     04C9  083A               	movf	(?_pow+1)^(0+128),w
  1397     04CA  1683               	bsf	3,5	;RP0=1, select bank3
  1398     04CB  1703               	bsf	3,6	;RP1=1, select bank3
  1399     04CC  0099               	movwf	(_main$744+1)^(0+384)
  1400     04CD  1683               	bsf	3,5	;RP0=1, select bank1
  1401     04CE  1303               	bcf	3,6	;RP1=0, select bank1
  1402     04CF  0839               	movf	?_pow^(0+128),w
  1403     04D0  1683               	bsf	3,5	;RP0=1, select bank3
  1404     04D1  1703               	bsf	3,6	;RP1=1, select bank3
  1405     04D2  0098               	movwf	_main$744^(0+384)
  1406     04D3                     l3216:
  1407                           
  1408                           ;butterfly.c: 40:         PORTD=PORTD+pow(2,i)+pow(2,j);
  1409     04D3  0817               	movf	(_main$743+3)^(0+384),w
  1410     04D4  1283               	bcf	3,5	;RP0=0, select bank0
  1411     04D5  1303               	bcf	3,6	;RP1=0, select bank0
  1412     04D6  00D4               	movwf	___fladd@a+3
  1413     04D7  1683               	bsf	3,5	;RP0=1, select bank3
  1414     04D8  1703               	bsf	3,6	;RP1=1, select bank3
  1415     04D9  0816               	movf	(_main$743+2)^(0+384),w
  1416     04DA  1283               	bcf	3,5	;RP0=0, select bank0
  1417     04DB  1303               	bcf	3,6	;RP1=0, select bank0
  1418     04DC  00D3               	movwf	___fladd@a+2
  1419     04DD  1683               	bsf	3,5	;RP0=1, select bank3
  1420     04DE  1703               	bsf	3,6	;RP1=1, select bank3
  1421     04DF  0815               	movf	(_main$743+1)^(0+384),w
  1422     04E0  1283               	bcf	3,5	;RP0=0, select bank0
  1423     04E1  1303               	bcf	3,6	;RP1=0, select bank0
  1424     04E2  00D2               	movwf	___fladd@a+1
  1425     04E3  1683               	bsf	3,5	;RP0=1, select bank3
  1426     04E4  1703               	bsf	3,6	;RP1=1, select bank3
  1427     04E5  0814               	movf	_main$743^(0+384),w
  1428     04E6  1283               	bcf	3,5	;RP0=0, select bank0
  1429     04E7  1303               	bcf	3,6	;RP1=0, select bank0
  1430     04E8  00D1               	movwf	___fladd@a
  1431     04E9  1683               	bsf	3,5	;RP0=1, select bank3
  1432     04EA  1703               	bsf	3,6	;RP1=1, select bank3
  1433     04EB  081B               	movf	(_main$744+3)^(0+384),w
  1434     04EC  1283               	bcf	3,5	;RP0=0, select bank0
  1435     04ED  1303               	bcf	3,6	;RP1=0, select bank0
  1436     04EE  00D0               	movwf	___fladd@b+3
  1437     04EF  1683               	bsf	3,5	;RP0=1, select bank3
  1438     04F0  1703               	bsf	3,6	;RP1=1, select bank3
  1439     04F1  081A               	movf	(_main$744+2)^(0+384),w
  1440     04F2  1283               	bcf	3,5	;RP0=0, select bank0
  1441     04F3  1303               	bcf	3,6	;RP1=0, select bank0
  1442     04F4  00CF               	movwf	___fladd@b+2
  1443     04F5  1683               	bsf	3,5	;RP0=1, select bank3
  1444     04F6  1703               	bsf	3,6	;RP1=1, select bank3
  1445     04F7  0819               	movf	(_main$744+1)^(0+384),w
  1446     04F8  1283               	bcf	3,5	;RP0=0, select bank0
  1447     04F9  1303               	bcf	3,6	;RP1=0, select bank0
  1448     04FA  00CE               	movwf	___fladd@b+1
  1449     04FB  1683               	bsf	3,5	;RP0=1, select bank3
  1450     04FC  1703               	bsf	3,6	;RP1=1, select bank3
  1451     04FD  0818               	movf	_main$744^(0+384),w
  1452     04FE  1283               	bcf	3,5	;RP0=0, select bank0
  1453     04FF  1303               	bcf	3,6	;RP1=0, select bank0
  1454     0500  00CD               	movwf	___fladd@b
  1455     0501  120A  118A  201D  120A  118A  	fcall	___fladd
  1456     0506  1283               	bcf	3,5	;RP0=0, select bank0
  1457     0507  1303               	bcf	3,6	;RP1=0, select bank0
  1458     0508  0850               	movf	?___fladd+3,w
  1459     0509  00EC               	movwf	___fltol@f1+3
  1460     050A  084F               	movf	?___fladd+2,w
  1461     050B  00EB               	movwf	___fltol@f1+2
  1462     050C  084E               	movf	?___fladd+1,w
  1463     050D  00EA               	movwf	___fltol@f1+1
  1464     050E  084D               	movf	?___fladd,w
  1465     050F  00E9               	movwf	___fltol@f1
  1466     0510  160A  118A  20BC  120A  118A  	fcall	___fltol
  1467     0515  1283               	bcf	3,5	;RP0=0, select bank0
  1468     0516  1303               	bcf	3,6	;RP1=0, select bank0
  1469     0517  0869               	movf	?___fltol,w
  1470     0518  0088               	movwf	8	;volatile
  1471     0519                     l3218:
  1472                           
  1473                           ;butterfly.c: 41:         delay(10000);
  1474     0519  3010               	movlw	16
  1475     051A  00F0               	movwf	delay@t
  1476     051B  3027               	movlw	39
  1477     051C  00F1               	movwf	delay@t+1
  1478     051D  120A  118A  200E  120A  118A  	fcall	_delay
  1479     0522                     l3220:
  1480                           
  1481                           ;butterfly.c: 42:     }
  1482     0522  3001               	movlw	1
  1483     0523  1683               	bsf	3,5	;RP0=1, select bank3
  1484     0524  1703               	bsf	3,6	;RP1=1, select bank3
  1485     0525  07B0               	addwf	main@i^(0+384),f
  1486     0526  1803               	skipnc
  1487     0527  0AB1               	incf	(main@i+1)^(0+384),f
  1488     0528  3000               	movlw	0
  1489     0529  07B1               	addwf	(main@i+1)^(0+384),f
  1490     052A                     l3222:
  1491     052A  30FF               	movlw	255
  1492     052B  07B2               	addwf	main@j^(0+384),f
  1493     052C  1803               	skipnc
  1494     052D  0AB3               	incf	(main@j+1)^(0+384),f
  1495     052E  30FF               	movlw	255
  1496     052F  07B3               	addwf	(main@j+1)^(0+384),f
  1497     0530                     l3224:
  1498     0530  0831               	movf	(main@i+1)^(0+384),w
  1499     0531  3A80               	xorlw	128
  1500     0532  00FF               	movwf	btemp+1
  1501     0533  3080               	movlw	128
  1502     0534  027F               	subwf	btemp+1,w
  1503     0535  1D03               	skipz
  1504     0536  2D39               	goto	u5035
  1505     0537  3008               	movlw	8
  1506     0538  0230               	subwf	main@i^(0+384),w
  1507     0539                     u5035:
  1508     0539  1C03               	skipc
  1509     053A  2D3C               	goto	u5031
  1510     053B  2D3D               	goto	u5030
  1511     053C                     u5031:
  1512     053C  2A8D               	goto	l3198
  1513     053D                     u5030:
  1514     053D                     l3226:
  1515                           
  1516                           ;butterfly.c: 43:     for(i=7,j=0;j<4;i--,j++)
  1517     053D  3007               	movlw	7
  1518     053E  1683               	bsf	3,5	;RP0=1, select bank3
  1519     053F  1703               	bsf	3,6	;RP1=1, select bank3
  1520     0540  00B0               	movwf	main@i^(0+384)
  1521     0541  3000               	movlw	0
  1522     0542  00B1               	movwf	(main@i^(0+384)+1)
  1523     0543                     l3228:
  1524     0543  01B2               	clrf	main@j^(0+384)
  1525     0544  01B3               	clrf	(main@j+1)^(0+384)
  1526     0545                     l3234:
  1527                           
  1528                           ;butterfly.c: 44:     {;butterfly.c: 45:         PORTB=PORTB-pow(2,i)-pow(2,j);
  1529     0545  1683               	bsf	3,5	;RP0=1, select bank3
  1530     0546  1703               	bsf	3,6	;RP1=1, select bank3
  1531     0547  0830               	movf	main@i^(0+384),w
  1532     0548  00F0               	movwf	___xxtofl@val
  1533     0549  0831               	movf	(main@i+1)^(0+384),w
  1534     054A  00F1               	movwf	___xxtofl@val+1
  1535     054B  3000               	movlw	0
  1536     054C  1BF1               	btfsc	___xxtofl@val+1,7
  1537     054D  30FF               	movlw	255
  1538     054E  00F2               	movwf	___xxtofl@val+2
  1539     054F  00F3               	movwf	___xxtofl@val+3
  1540     0550  3001               	movlw	1
  1541     0551  160A  118A  2150  120A  118A  	fcall	___xxtofl
  1542     0556  0873               	movf	?___xxtofl+3,w
  1543     0557  1683               	bsf	3,5	;RP0=1, select bank3
  1544     0558  1703               	bsf	3,6	;RP1=1, select bank3
  1545     0559  00AB               	movwf	(_main$740+3)^(0+384)
  1546     055A  0872               	movf	?___xxtofl+2,w
  1547     055B  00AA               	movwf	(_main$740+2)^(0+384)
  1548     055C  0871               	movf	?___xxtofl+1,w
  1549     055D  00A9               	movwf	(_main$740+1)^(0+384)
  1550     055E  0870               	movf	?___xxtofl,w
  1551     055F  00A8               	movwf	_main$740^(0+384)
  1552     0560                     l3236:
  1553                           
  1554                           ;butterfly.c: 44:     {;butterfly.c: 45:         PORTB=PORTB-pow(2,i)-pow(2,j);
  1555     0560  082B               	movf	(_main$740+3)^(0+384),w
  1556     0561  1683               	bsf	3,5	;RP0=1, select bank1
  1557     0562  1303               	bcf	3,6	;RP1=0, select bank1
  1558     0563  00C0               	movwf	(pow@y+3)^(0+128)
  1559     0564  1683               	bsf	3,5	;RP0=1, select bank3
  1560     0565  1703               	bsf	3,6	;RP1=1, select bank3
  1561     0566  082A               	movf	(_main$740+2)^(0+384),w
  1562     0567  1683               	bsf	3,5	;RP0=1, select bank1
  1563     0568  1303               	bcf	3,6	;RP1=0, select bank1
  1564     0569  00BF               	movwf	(pow@y+2)^(0+128)
  1565     056A  1683               	bsf	3,5	;RP0=1, select bank3
  1566     056B  1703               	bsf	3,6	;RP1=1, select bank3
  1567     056C  0829               	movf	(_main$740+1)^(0+384),w
  1568     056D  1683               	bsf	3,5	;RP0=1, select bank1
  1569     056E  1303               	bcf	3,6	;RP1=0, select bank1
  1570     056F  00BE               	movwf	(pow@y+1)^(0+128)
  1571     0570  1683               	bsf	3,5	;RP0=1, select bank3
  1572     0571  1703               	bsf	3,6	;RP1=1, select bank3
  1573     0572  0828               	movf	_main$740^(0+384),w
  1574     0573  1683               	bsf	3,5	;RP0=1, select bank1
  1575     0574  1303               	bcf	3,6	;RP1=0, select bank1
  1576     0575  00BD               	movwf	pow@y^(0+128)
  1577     0576  3040               	movlw	64
  1578     0577  00BC               	movwf	(pow@x+3)^(0+128)
  1579     0578  3000               	movlw	0
  1580     0579  00BB               	movwf	(pow@x+2)^(0+128)
  1581     057A  3000               	movlw	0
  1582     057B  00BA               	movwf	(pow@x+1)^(0+128)
  1583     057C  3000               	movlw	0
  1584     057D  00B9               	movwf	pow@x^(0+128)
  1585     057E  160A  118A  2629  120A  118A  	fcall	_pow
  1586     0583  1683               	bsf	3,5	;RP0=1, select bank1
  1587     0584  1303               	bcf	3,6	;RP1=0, select bank1
  1588     0585  083C               	movf	(?_pow+3)^(0+128),w
  1589     0586  1683               	bsf	3,5	;RP0=1, select bank3
  1590     0587  1703               	bsf	3,6	;RP1=1, select bank3
  1591     0588  009F               	movwf	(_main$745+3)^(0+384)
  1592     0589  1683               	bsf	3,5	;RP0=1, select bank1
  1593     058A  1303               	bcf	3,6	;RP1=0, select bank1
  1594     058B  083B               	movf	(?_pow+2)^(0+128),w
  1595     058C  1683               	bsf	3,5	;RP0=1, select bank3
  1596     058D  1703               	bsf	3,6	;RP1=1, select bank3
  1597     058E  009E               	movwf	(_main$745+2)^(0+384)
  1598     058F  1683               	bsf	3,5	;RP0=1, select bank1
  1599     0590  1303               	bcf	3,6	;RP1=0, select bank1
  1600     0591  083A               	movf	(?_pow+1)^(0+128),w
  1601     0592  1683               	bsf	3,5	;RP0=1, select bank3
  1602     0593  1703               	bsf	3,6	;RP1=1, select bank3
  1603     0594  009D               	movwf	(_main$745+1)^(0+384)
  1604     0595  1683               	bsf	3,5	;RP0=1, select bank1
  1605     0596  1303               	bcf	3,6	;RP1=0, select bank1
  1606     0597  0839               	movf	?_pow^(0+128),w
  1607     0598  1683               	bsf	3,5	;RP0=1, select bank3
  1608     0599  1703               	bsf	3,6	;RP1=1, select bank3
  1609     059A  009C               	movwf	_main$745^(0+384)
  1610     059B                     l3238:
  1611                           
  1612                           ;butterfly.c: 44:     {;butterfly.c: 45:         PORTB=PORTB-pow(2,i)-pow(2,j);
  1613     059B  0832               	movf	main@j^(0+384),w
  1614     059C  00F0               	movwf	___xxtofl@val
  1615     059D  0833               	movf	(main@j+1)^(0+384),w
  1616     059E  00F1               	movwf	___xxtofl@val+1
  1617     059F  3000               	movlw	0
  1618     05A0  1BF1               	btfsc	___xxtofl@val+1,7
  1619     05A1  30FF               	movlw	255
  1620     05A2  00F2               	movwf	___xxtofl@val+2
  1621     05A3  00F3               	movwf	___xxtofl@val+3
  1622     05A4  3001               	movlw	1
  1623     05A5  160A  118A  2150  120A  118A  	fcall	___xxtofl
  1624     05AA  0873               	movf	?___xxtofl+3,w
  1625     05AB  1683               	bsf	3,5	;RP0=1, select bank3
  1626     05AC  1703               	bsf	3,6	;RP1=1, select bank3
  1627     05AD  00AF               	movwf	(_main$742+3)^(0+384)
  1628     05AE  0872               	movf	?___xxtofl+2,w
  1629     05AF  00AE               	movwf	(_main$742+2)^(0+384)
  1630     05B0  0871               	movf	?___xxtofl+1,w
  1631     05B1  00AD               	movwf	(_main$742+1)^(0+384)
  1632     05B2  0870               	movf	?___xxtofl,w
  1633     05B3  00AC               	movwf	_main$742^(0+384)
  1634     05B4                     l3240:
  1635                           
  1636                           ;butterfly.c: 44:     {;butterfly.c: 45:         PORTB=PORTB-pow(2,i)-pow(2,j);
  1637     05B4  1283               	bcf	3,5	;RP0=0, select bank0
  1638     05B5  1303               	bcf	3,6	;RP1=0, select bank0
  1639     05B6  0806               	movf	6,w	;volatile
  1640     05B7  1683               	bsf	3,5	;RP0=1, select bank1
  1641     05B8  1303               	bcf	3,6	;RP1=0, select bank1
  1642     05B9  00CE               	movwf	??_main^(0+128)
  1643     05BA  01CF               	clrf	(??_main^(0+128)+1)
  1644     05BB  01D0               	clrf	(??_main^(0+128)+2)
  1645     05BC  01D1               	clrf	(??_main^(0+128)+3)
  1646     05BD  0851               	movf	(??_main+3)^(0+128),w
  1647     05BE  00F3               	movwf	___xxtofl@val+3
  1648     05BF  0850               	movf	(??_main+2)^(0+128),w
  1649     05C0  00F2               	movwf	___xxtofl@val+2
  1650     05C1  084F               	movf	(??_main+1)^(0+128),w
  1651     05C2  00F1               	movwf	___xxtofl@val+1
  1652     05C3  084E               	movf	??_main^(0+128),w
  1653     05C4  00F0               	movwf	___xxtofl@val
  1654     05C5  3001               	movlw	1
  1655     05C6  160A  118A  2150  120A  118A  	fcall	___xxtofl
  1656     05CB  0873               	movf	?___xxtofl+3,w
  1657     05CC  1283               	bcf	3,5	;RP0=0, select bank0
  1658     05CD  1303               	bcf	3,6	;RP1=0, select bank0
  1659     05CE  00E8               	movwf	___flsub@b+3
  1660     05CF  0872               	movf	?___xxtofl+2,w
  1661     05D0  00E7               	movwf	___flsub@b+2
  1662     05D1  0871               	movf	?___xxtofl+1,w
  1663     05D2  00E6               	movwf	___flsub@b+1
  1664     05D3  0870               	movf	?___xxtofl,w
  1665     05D4  00E5               	movwf	___flsub@b
  1666     05D5  1683               	bsf	3,5	;RP0=1, select bank3
  1667     05D6  1703               	bsf	3,6	;RP1=1, select bank3
  1668     05D7  081F               	movf	(_main$745+3)^(0+384),w
  1669     05D8  1283               	bcf	3,5	;RP0=0, select bank0
  1670     05D9  1303               	bcf	3,6	;RP1=0, select bank0
  1671     05DA  00E4               	movwf	___flsub@a+3
  1672     05DB  1683               	bsf	3,5	;RP0=1, select bank3
  1673     05DC  1703               	bsf	3,6	;RP1=1, select bank3
  1674     05DD  081E               	movf	(_main$745+2)^(0+384),w
  1675     05DE  1283               	bcf	3,5	;RP0=0, select bank0
  1676     05DF  1303               	bcf	3,6	;RP1=0, select bank0
  1677     05E0  00E3               	movwf	___flsub@a+2
  1678     05E1  1683               	bsf	3,5	;RP0=1, select bank3
  1679     05E2  1703               	bsf	3,6	;RP1=1, select bank3
  1680     05E3  081D               	movf	(_main$745+1)^(0+384),w
  1681     05E4  1283               	bcf	3,5	;RP0=0, select bank0
  1682     05E5  1303               	bcf	3,6	;RP1=0, select bank0
  1683     05E6  00E2               	movwf	___flsub@a+1
  1684     05E7  1683               	bsf	3,5	;RP0=1, select bank3
  1685     05E8  1703               	bsf	3,6	;RP1=1, select bank3
  1686     05E9  081C               	movf	_main$745^(0+384),w
  1687     05EA  1283               	bcf	3,5	;RP0=0, select bank0
  1688     05EB  1303               	bcf	3,6	;RP1=0, select bank0
  1689     05EC  00E1               	movwf	___flsub@a
  1690     05ED  160A  158A  2765  120A  118A  	fcall	___flsub
  1691     05F2  1283               	bcf	3,5	;RP0=0, select bank0
  1692     05F3  1303               	bcf	3,6	;RP1=0, select bank0
  1693     05F4  0864               	movf	?___flsub+3,w
  1694     05F5  1683               	bsf	3,5	;RP0=1, select bank3
  1695     05F6  1703               	bsf	3,6	;RP1=1, select bank3
  1696     05F7  00A3               	movwf	(_main$746+3)^(0+384)
  1697     05F8  1283               	bcf	3,5	;RP0=0, select bank0
  1698     05F9  1303               	bcf	3,6	;RP1=0, select bank0
  1699     05FA  0863               	movf	?___flsub+2,w
  1700     05FB  1683               	bsf	3,5	;RP0=1, select bank3
  1701     05FC  1703               	bsf	3,6	;RP1=1, select bank3
  1702     05FD  00A2               	movwf	(_main$746+2)^(0+384)
  1703     05FE  1283               	bcf	3,5	;RP0=0, select bank0
  1704     05FF  1303               	bcf	3,6	;RP1=0, select bank0
  1705     0600  0862               	movf	?___flsub+1,w
  1706     0601  1683               	bsf	3,5	;RP0=1, select bank3
  1707     0602  1703               	bsf	3,6	;RP1=1, select bank3
  1708     0603  00A1               	movwf	(_main$746+1)^(0+384)
  1709     0604  1283               	bcf	3,5	;RP0=0, select bank0
  1710     0605  1303               	bcf	3,6	;RP1=0, select bank0
  1711     0606  0861               	movf	?___flsub,w
  1712     0607  1683               	bsf	3,5	;RP0=1, select bank3
  1713     0608  1703               	bsf	3,6	;RP1=1, select bank3
  1714     0609  00A0               	movwf	_main$746^(0+384)
  1715     060A                     l3242:
  1716                           
  1717                           ;butterfly.c: 44:     {;butterfly.c: 45:         PORTB=PORTB-pow(2,i)-pow(2,j);
  1718     060A  082F               	movf	(_main$742+3)^(0+384),w
  1719     060B  1683               	bsf	3,5	;RP0=1, select bank1
  1720     060C  1303               	bcf	3,6	;RP1=0, select bank1
  1721     060D  00C0               	movwf	(pow@y+3)^(0+128)
  1722     060E  1683               	bsf	3,5	;RP0=1, select bank3
  1723     060F  1703               	bsf	3,6	;RP1=1, select bank3
  1724     0610  082E               	movf	(_main$742+2)^(0+384),w
  1725     0611  1683               	bsf	3,5	;RP0=1, select bank1
  1726     0612  1303               	bcf	3,6	;RP1=0, select bank1
  1727     0613  00BF               	movwf	(pow@y+2)^(0+128)
  1728     0614  1683               	bsf	3,5	;RP0=1, select bank3
  1729     0615  1703               	bsf	3,6	;RP1=1, select bank3
  1730     0616  082D               	movf	(_main$742+1)^(0+384),w
  1731     0617  1683               	bsf	3,5	;RP0=1, select bank1
  1732     0618  1303               	bcf	3,6	;RP1=0, select bank1
  1733     0619  00BE               	movwf	(pow@y+1)^(0+128)
  1734     061A  1683               	bsf	3,5	;RP0=1, select bank3
  1735     061B  1703               	bsf	3,6	;RP1=1, select bank3
  1736     061C  082C               	movf	_main$742^(0+384),w
  1737     061D  1683               	bsf	3,5	;RP0=1, select bank1
  1738     061E  1303               	bcf	3,6	;RP1=0, select bank1
  1739     061F  00BD               	movwf	pow@y^(0+128)
  1740     0620  3040               	movlw	64
  1741     0621  00BC               	movwf	(pow@x+3)^(0+128)
  1742     0622  3000               	movlw	0
  1743     0623  00BB               	movwf	(pow@x+2)^(0+128)
  1744     0624  3000               	movlw	0
  1745     0625  00BA               	movwf	(pow@x+1)^(0+128)
  1746     0626  3000               	movlw	0
  1747     0627  00B9               	movwf	pow@x^(0+128)
  1748     0628  160A  118A  2629  120A  118A  	fcall	_pow
  1749     062D  1683               	bsf	3,5	;RP0=1, select bank1
  1750     062E  1303               	bcf	3,6	;RP1=0, select bank1
  1751     062F  083C               	movf	(?_pow+3)^(0+128),w
  1752     0630  1683               	bsf	3,5	;RP0=1, select bank3
  1753     0631  1703               	bsf	3,6	;RP1=1, select bank3
  1754     0632  00A7               	movwf	(_main$747+3)^(0+384)
  1755     0633  1683               	bsf	3,5	;RP0=1, select bank1
  1756     0634  1303               	bcf	3,6	;RP1=0, select bank1
  1757     0635  083B               	movf	(?_pow+2)^(0+128),w
  1758     0636  1683               	bsf	3,5	;RP0=1, select bank3
  1759     0637  1703               	bsf	3,6	;RP1=1, select bank3
  1760     0638  00A6               	movwf	(_main$747+2)^(0+384)
  1761     0639  1683               	bsf	3,5	;RP0=1, select bank1
  1762     063A  1303               	bcf	3,6	;RP1=0, select bank1
  1763     063B  083A               	movf	(?_pow+1)^(0+128),w
  1764     063C  1683               	bsf	3,5	;RP0=1, select bank3
  1765     063D  1703               	bsf	3,6	;RP1=1, select bank3
  1766     063E  00A5               	movwf	(_main$747+1)^(0+384)
  1767     063F  1683               	bsf	3,5	;RP0=1, select bank1
  1768     0640  1303               	bcf	3,6	;RP1=0, select bank1
  1769     0641  0839               	movf	?_pow^(0+128),w
  1770     0642  1683               	bsf	3,5	;RP0=1, select bank3
  1771     0643  1703               	bsf	3,6	;RP1=1, select bank3
  1772     0644  00A4               	movwf	_main$747^(0+384)
  1773                           
  1774                           ;butterfly.c: 44:     {;butterfly.c: 45:         PORTB=PORTB-pow(2,i)-pow(2,j);
  1775     0645  0823               	movf	(_main$746+3)^(0+384),w
  1776     0646  1283               	bcf	3,5	;RP0=0, select bank0
  1777     0647  1303               	bcf	3,6	;RP1=0, select bank0
  1778     0648  00E8               	movwf	___flsub@b+3
  1779     0649  1683               	bsf	3,5	;RP0=1, select bank3
  1780     064A  1703               	bsf	3,6	;RP1=1, select bank3
  1781     064B  0822               	movf	(_main$746+2)^(0+384),w
  1782     064C  1283               	bcf	3,5	;RP0=0, select bank0
  1783     064D  1303               	bcf	3,6	;RP1=0, select bank0
  1784     064E  00E7               	movwf	___flsub@b+2
  1785     064F  1683               	bsf	3,5	;RP0=1, select bank3
  1786     0650  1703               	bsf	3,6	;RP1=1, select bank3
  1787     0651  0821               	movf	(_main$746+1)^(0+384),w
  1788     0652  1283               	bcf	3,5	;RP0=0, select bank0
  1789     0653  1303               	bcf	3,6	;RP1=0, select bank0
  1790     0654  00E6               	movwf	___flsub@b+1
  1791     0655  1683               	bsf	3,5	;RP0=1, select bank3
  1792     0656  1703               	bsf	3,6	;RP1=1, select bank3
  1793     0657  0820               	movf	_main$746^(0+384),w
  1794     0658  1283               	bcf	3,5	;RP0=0, select bank0
  1795     0659  1303               	bcf	3,6	;RP1=0, select bank0
  1796     065A  00E5               	movwf	___flsub@b
  1797     065B  1683               	bsf	3,5	;RP0=1, select bank3
  1798     065C  1703               	bsf	3,6	;RP1=1, select bank3
  1799     065D  0827               	movf	(_main$747+3)^(0+384),w
  1800     065E  1283               	bcf	3,5	;RP0=0, select bank0
  1801     065F  1303               	bcf	3,6	;RP1=0, select bank0
  1802     0660  00E4               	movwf	___flsub@a+3
  1803     0661  1683               	bsf	3,5	;RP0=1, select bank3
  1804     0662  1703               	bsf	3,6	;RP1=1, select bank3
  1805     0663  0826               	movf	(_main$747+2)^(0+384),w
  1806     0664  1283               	bcf	3,5	;RP0=0, select bank0
  1807     0665  1303               	bcf	3,6	;RP1=0, select bank0
  1808     0666  00E3               	movwf	___flsub@a+2
  1809     0667  1683               	bsf	3,5	;RP0=1, select bank3
  1810     0668  1703               	bsf	3,6	;RP1=1, select bank3
  1811     0669  0825               	movf	(_main$747+1)^(0+384),w
  1812     066A  1283               	bcf	3,5	;RP0=0, select bank0
  1813     066B  1303               	bcf	3,6	;RP1=0, select bank0
  1814     066C  00E2               	movwf	___flsub@a+1
  1815     066D  1683               	bsf	3,5	;RP0=1, select bank3
  1816     066E  1703               	bsf	3,6	;RP1=1, select bank3
  1817     066F  0824               	movf	_main$747^(0+384),w
  1818     0670  1283               	bcf	3,5	;RP0=0, select bank0
  1819     0671  1303               	bcf	3,6	;RP1=0, select bank0
  1820     0672  00E1               	movwf	___flsub@a
  1821     0673  160A  158A  2765  120A  118A  	fcall	___flsub
  1822     0678  1283               	bcf	3,5	;RP0=0, select bank0
  1823     0679  1303               	bcf	3,6	;RP1=0, select bank0
  1824     067A  0864               	movf	?___flsub+3,w
  1825     067B  00EC               	movwf	___fltol@f1+3
  1826     067C  0863               	movf	?___flsub+2,w
  1827     067D  00EB               	movwf	___fltol@f1+2
  1828     067E  0862               	movf	?___flsub+1,w
  1829     067F  00EA               	movwf	___fltol@f1+1
  1830     0680  0861               	movf	?___flsub,w
  1831     0681  00E9               	movwf	___fltol@f1
  1832     0682  160A  118A  20BC  120A  118A  	fcall	___fltol
  1833     0687  1283               	bcf	3,5	;RP0=0, select bank0
  1834     0688  1303               	bcf	3,6	;RP1=0, select bank0
  1835     0689  0869               	movf	?___fltol,w
  1836     068A  0086               	movwf	6	;volatile
  1837     068B                     l3244:
  1838                           
  1839                           ;butterfly.c: 46:         PORTD=PORTD-pow(2,i)-pow(2,j);
  1840     068B  1683               	bsf	3,5	;RP0=1, select bank3
  1841     068C  1703               	bsf	3,6	;RP1=1, select bank3
  1842     068D  0830               	movf	main@i^(0+384),w
  1843     068E  00F0               	movwf	___xxtofl@val
  1844     068F  0831               	movf	(main@i+1)^(0+384),w
  1845     0690  00F1               	movwf	___xxtofl@val+1
  1846     0691  3000               	movlw	0
  1847     0692  1BF1               	btfsc	___xxtofl@val+1,7
  1848     0693  30FF               	movlw	255
  1849     0694  00F2               	movwf	___xxtofl@val+2
  1850     0695  00F3               	movwf	___xxtofl@val+3
  1851     0696  3001               	movlw	1
  1852     0697  160A  118A  2150  120A  118A  	fcall	___xxtofl
  1853     069C  0873               	movf	?___xxtofl+3,w
  1854     069D  1683               	bsf	3,5	;RP0=1, select bank3
  1855     069E  1703               	bsf	3,6	;RP1=1, select bank3
  1856     069F  00AB               	movwf	(_main$740+3)^(0+384)
  1857     06A0  0872               	movf	?___xxtofl+2,w
  1858     06A1  00AA               	movwf	(_main$740+2)^(0+384)
  1859     06A2  0871               	movf	?___xxtofl+1,w
  1860     06A3  00A9               	movwf	(_main$740+1)^(0+384)
  1861     06A4  0870               	movf	?___xxtofl,w
  1862     06A5  00A8               	movwf	_main$740^(0+384)
  1863     06A6                     l3246:
  1864                           
  1865                           ;butterfly.c: 46:         PORTD=PORTD-pow(2,i)-pow(2,j);
  1866     06A6  082B               	movf	(_main$740+3)^(0+384),w
  1867     06A7  1683               	bsf	3,5	;RP0=1, select bank1
  1868     06A8  1303               	bcf	3,6	;RP1=0, select bank1
  1869     06A9  00C0               	movwf	(pow@y+3)^(0+128)
  1870     06AA  1683               	bsf	3,5	;RP0=1, select bank3
  1871     06AB  1703               	bsf	3,6	;RP1=1, select bank3
  1872     06AC  082A               	movf	(_main$740+2)^(0+384),w
  1873     06AD  1683               	bsf	3,5	;RP0=1, select bank1
  1874     06AE  1303               	bcf	3,6	;RP1=0, select bank1
  1875     06AF  00BF               	movwf	(pow@y+2)^(0+128)
  1876     06B0  1683               	bsf	3,5	;RP0=1, select bank3
  1877     06B1  1703               	bsf	3,6	;RP1=1, select bank3
  1878     06B2  0829               	movf	(_main$740+1)^(0+384),w
  1879     06B3  1683               	bsf	3,5	;RP0=1, select bank1
  1880     06B4  1303               	bcf	3,6	;RP1=0, select bank1
  1881     06B5  00BE               	movwf	(pow@y+1)^(0+128)
  1882     06B6  1683               	bsf	3,5	;RP0=1, select bank3
  1883     06B7  1703               	bsf	3,6	;RP1=1, select bank3
  1884     06B8  0828               	movf	_main$740^(0+384),w
  1885     06B9  1683               	bsf	3,5	;RP0=1, select bank1
  1886     06BA  1303               	bcf	3,6	;RP1=0, select bank1
  1887     06BB  00BD               	movwf	pow@y^(0+128)
  1888     06BC  3040               	movlw	64
  1889     06BD  00BC               	movwf	(pow@x+3)^(0+128)
  1890     06BE  3000               	movlw	0
  1891     06BF  00BB               	movwf	(pow@x+2)^(0+128)
  1892     06C0  3000               	movlw	0
  1893     06C1  00BA               	movwf	(pow@x+1)^(0+128)
  1894     06C2  3000               	movlw	0
  1895     06C3  00B9               	movwf	pow@x^(0+128)
  1896     06C4  160A  118A  2629  120A  118A  	fcall	_pow
  1897     06C9  1683               	bsf	3,5	;RP0=1, select bank1
  1898     06CA  1303               	bcf	3,6	;RP1=0, select bank1
  1899     06CB  083C               	movf	(?_pow+3)^(0+128),w
  1900     06CC  1683               	bsf	3,5	;RP0=1, select bank3
  1901     06CD  1703               	bsf	3,6	;RP1=1, select bank3
  1902     06CE  009F               	movwf	(_main$745+3)^(0+384)
  1903     06CF  1683               	bsf	3,5	;RP0=1, select bank1
  1904     06D0  1303               	bcf	3,6	;RP1=0, select bank1
  1905     06D1  083B               	movf	(?_pow+2)^(0+128),w
  1906     06D2  1683               	bsf	3,5	;RP0=1, select bank3
  1907     06D3  1703               	bsf	3,6	;RP1=1, select bank3
  1908     06D4  009E               	movwf	(_main$745+2)^(0+384)
  1909     06D5  1683               	bsf	3,5	;RP0=1, select bank1
  1910     06D6  1303               	bcf	3,6	;RP1=0, select bank1
  1911     06D7  083A               	movf	(?_pow+1)^(0+128),w
  1912     06D8  1683               	bsf	3,5	;RP0=1, select bank3
  1913     06D9  1703               	bsf	3,6	;RP1=1, select bank3
  1914     06DA  009D               	movwf	(_main$745+1)^(0+384)
  1915     06DB  1683               	bsf	3,5	;RP0=1, select bank1
  1916     06DC  1303               	bcf	3,6	;RP1=0, select bank1
  1917     06DD  0839               	movf	?_pow^(0+128),w
  1918     06DE  1683               	bsf	3,5	;RP0=1, select bank3
  1919     06DF  1703               	bsf	3,6	;RP1=1, select bank3
  1920     06E0  009C               	movwf	_main$745^(0+384)
  1921     06E1                     l3248:
  1922                           
  1923                           ;butterfly.c: 46:         PORTD=PORTD-pow(2,i)-pow(2,j);
  1924     06E1  0832               	movf	main@j^(0+384),w
  1925     06E2  00F0               	movwf	___xxtofl@val
  1926     06E3  0833               	movf	(main@j+1)^(0+384),w
  1927     06E4  00F1               	movwf	___xxtofl@val+1
  1928     06E5  3000               	movlw	0
  1929     06E6  1BF1               	btfsc	___xxtofl@val+1,7
  1930     06E7  30FF               	movlw	255
  1931     06E8  00F2               	movwf	___xxtofl@val+2
  1932     06E9  00F3               	movwf	___xxtofl@val+3
  1933     06EA  3001               	movlw	1
  1934     06EB  160A  118A  2150  120A  118A  	fcall	___xxtofl
  1935     06F0  0873               	movf	?___xxtofl+3,w
  1936     06F1  1683               	bsf	3,5	;RP0=1, select bank3
  1937     06F2  1703               	bsf	3,6	;RP1=1, select bank3
  1938     06F3  00AF               	movwf	(_main$742+3)^(0+384)
  1939     06F4  0872               	movf	?___xxtofl+2,w
  1940     06F5  00AE               	movwf	(_main$742+2)^(0+384)
  1941     06F6  0871               	movf	?___xxtofl+1,w
  1942     06F7  00AD               	movwf	(_main$742+1)^(0+384)
  1943     06F8  0870               	movf	?___xxtofl,w
  1944     06F9  00AC               	movwf	_main$742^(0+384)
  1945     06FA                     l3250:
  1946                           
  1947                           ;butterfly.c: 46:         PORTD=PORTD-pow(2,i)-pow(2,j);
  1948     06FA  1283               	bcf	3,5	;RP0=0, select bank0
  1949     06FB  1303               	bcf	3,6	;RP1=0, select bank0
  1950     06FC  0808               	movf	8,w	;volatile
  1951     06FD  1683               	bsf	3,5	;RP0=1, select bank1
  1952     06FE  1303               	bcf	3,6	;RP1=0, select bank1
  1953     06FF  00CE               	movwf	??_main^(0+128)
  1954     0700  01CF               	clrf	(??_main^(0+128)+1)
  1955     0701  01D0               	clrf	(??_main^(0+128)+2)
  1956     0702  01D1               	clrf	(??_main^(0+128)+3)
  1957     0703  0851               	movf	(??_main+3)^(0+128),w
  1958     0704  00F3               	movwf	___xxtofl@val+3
  1959     0705  0850               	movf	(??_main+2)^(0+128),w
  1960     0706  00F2               	movwf	___xxtofl@val+2
  1961     0707  084F               	movf	(??_main+1)^(0+128),w
  1962     0708  00F1               	movwf	___xxtofl@val+1
  1963     0709  084E               	movf	??_main^(0+128),w
  1964     070A  00F0               	movwf	___xxtofl@val
  1965     070B  3001               	movlw	1
  1966     070C  160A  118A  2150  120A  118A  	fcall	___xxtofl
  1967     0711  0873               	movf	?___xxtofl+3,w
  1968     0712  1283               	bcf	3,5	;RP0=0, select bank0
  1969     0713  1303               	bcf	3,6	;RP1=0, select bank0
  1970     0714  00E8               	movwf	___flsub@b+3
  1971     0715  0872               	movf	?___xxtofl+2,w
  1972     0716  00E7               	movwf	___flsub@b+2
  1973     0717  0871               	movf	?___xxtofl+1,w
  1974     0718  00E6               	movwf	___flsub@b+1
  1975     0719  0870               	movf	?___xxtofl,w
  1976     071A  00E5               	movwf	___flsub@b
  1977     071B  1683               	bsf	3,5	;RP0=1, select bank3
  1978     071C  1703               	bsf	3,6	;RP1=1, select bank3
  1979     071D  081F               	movf	(_main$745+3)^(0+384),w
  1980     071E  1283               	bcf	3,5	;RP0=0, select bank0
  1981     071F  1303               	bcf	3,6	;RP1=0, select bank0
  1982     0720  00E4               	movwf	___flsub@a+3
  1983     0721  1683               	bsf	3,5	;RP0=1, select bank3
  1984     0722  1703               	bsf	3,6	;RP1=1, select bank3
  1985     0723  081E               	movf	(_main$745+2)^(0+384),w
  1986     0724  1283               	bcf	3,5	;RP0=0, select bank0
  1987     0725  1303               	bcf	3,6	;RP1=0, select bank0
  1988     0726  00E3               	movwf	___flsub@a+2
  1989     0727  1683               	bsf	3,5	;RP0=1, select bank3
  1990     0728  1703               	bsf	3,6	;RP1=1, select bank3
  1991     0729  081D               	movf	(_main$745+1)^(0+384),w
  1992     072A  1283               	bcf	3,5	;RP0=0, select bank0
  1993     072B  1303               	bcf	3,6	;RP1=0, select bank0
  1994     072C  00E2               	movwf	___flsub@a+1
  1995     072D  1683               	bsf	3,5	;RP0=1, select bank3
  1996     072E  1703               	bsf	3,6	;RP1=1, select bank3
  1997     072F  081C               	movf	_main$745^(0+384),w
  1998     0730  1283               	bcf	3,5	;RP0=0, select bank0
  1999     0731  1303               	bcf	3,6	;RP1=0, select bank0
  2000     0732  00E1               	movwf	___flsub@a
  2001     0733  160A  158A  2765  120A  118A  	fcall	___flsub
  2002     0738  1283               	bcf	3,5	;RP0=0, select bank0
  2003     0739  1303               	bcf	3,6	;RP1=0, select bank0
  2004     073A  0864               	movf	?___flsub+3,w
  2005     073B  1683               	bsf	3,5	;RP0=1, select bank3
  2006     073C  1703               	bsf	3,6	;RP1=1, select bank3
  2007     073D  00A3               	movwf	(_main$746+3)^(0+384)
  2008     073E  1283               	bcf	3,5	;RP0=0, select bank0
  2009     073F  1303               	bcf	3,6	;RP1=0, select bank0
  2010     0740  0863               	movf	?___flsub+2,w
  2011     0741  1683               	bsf	3,5	;RP0=1, select bank3
  2012     0742  1703               	bsf	3,6	;RP1=1, select bank3
  2013     0743  00A2               	movwf	(_main$746+2)^(0+384)
  2014     0744  1283               	bcf	3,5	;RP0=0, select bank0
  2015     0745  1303               	bcf	3,6	;RP1=0, select bank0
  2016     0746  0862               	movf	?___flsub+1,w
  2017     0747  1683               	bsf	3,5	;RP0=1, select bank3
  2018     0748  1703               	bsf	3,6	;RP1=1, select bank3
  2019     0749  00A1               	movwf	(_main$746+1)^(0+384)
  2020     074A  1283               	bcf	3,5	;RP0=0, select bank0
  2021     074B  1303               	bcf	3,6	;RP1=0, select bank0
  2022     074C  0861               	movf	?___flsub,w
  2023     074D  1683               	bsf	3,5	;RP0=1, select bank3
  2024     074E  1703               	bsf	3,6	;RP1=1, select bank3
  2025     074F  00A0               	movwf	_main$746^(0+384)
  2026                           
  2027                           ;butterfly.c: 46:         PORTD=PORTD-pow(2,i)-pow(2,j);
  2028     0750  082F               	movf	(_main$742+3)^(0+384),w
  2029     0751  1683               	bsf	3,5	;RP0=1, select bank1
  2030     0752  1303               	bcf	3,6	;RP1=0, select bank1
  2031     0753  00C0               	movwf	(pow@y+3)^(0+128)
  2032     0754  1683               	bsf	3,5	;RP0=1, select bank3
  2033     0755  1703               	bsf	3,6	;RP1=1, select bank3
  2034     0756  082E               	movf	(_main$742+2)^(0+384),w
  2035     0757  1683               	bsf	3,5	;RP0=1, select bank1
  2036     0758  1303               	bcf	3,6	;RP1=0, select bank1
  2037     0759  00BF               	movwf	(pow@y+2)^(0+128)
  2038     075A  1683               	bsf	3,5	;RP0=1, select bank3
  2039     075B  1703               	bsf	3,6	;RP1=1, select bank3
  2040     075C  082D               	movf	(_main$742+1)^(0+384),w
  2041     075D  1683               	bsf	3,5	;RP0=1, select bank1
  2042     075E  1303               	bcf	3,6	;RP1=0, select bank1
  2043     075F  00BE               	movwf	(pow@y+1)^(0+128)
  2044     0760  1683               	bsf	3,5	;RP0=1, select bank3
  2045     0761  1703               	bsf	3,6	;RP1=1, select bank3
  2046     0762  082C               	movf	_main$742^(0+384),w
  2047     0763  1683               	bsf	3,5	;RP0=1, select bank1
  2048     0764  1303               	bcf	3,6	;RP1=0, select bank1
  2049     0765  00BD               	movwf	pow@y^(0+128)
  2050     0766  3040               	movlw	64
  2051     0767  00BC               	movwf	(pow@x+3)^(0+128)
  2052     0768  3000               	movlw	0
  2053     0769  00BB               	movwf	(pow@x+2)^(0+128)
  2054     076A  3000               	movlw	0
  2055     076B  00BA               	movwf	(pow@x+1)^(0+128)
  2056     076C  3000               	movlw	0
  2057     076D  00B9               	movwf	pow@x^(0+128)
  2058     076E  160A  118A  2629  120A  118A  	fcall	_pow
  2059     0773  1683               	bsf	3,5	;RP0=1, select bank1
  2060     0774  1303               	bcf	3,6	;RP1=0, select bank1
  2061     0775  083C               	movf	(?_pow+3)^(0+128),w
  2062     0776  1683               	bsf	3,5	;RP0=1, select bank3
  2063     0777  1703               	bsf	3,6	;RP1=1, select bank3
  2064     0778  00A7               	movwf	(_main$747+3)^(0+384)
  2065     0779  1683               	bsf	3,5	;RP0=1, select bank1
  2066     077A  1303               	bcf	3,6	;RP1=0, select bank1
  2067     077B  083B               	movf	(?_pow+2)^(0+128),w
  2068     077C  1683               	bsf	3,5	;RP0=1, select bank3
  2069     077D  1703               	bsf	3,6	;RP1=1, select bank3
  2070     077E  00A6               	movwf	(_main$747+2)^(0+384)
  2071     077F  1683               	bsf	3,5	;RP0=1, select bank1
  2072     0780  1303               	bcf	3,6	;RP1=0, select bank1
  2073     0781  083A               	movf	(?_pow+1)^(0+128),w
  2074     0782  1683               	bsf	3,5	;RP0=1, select bank3
  2075     0783  1703               	bsf	3,6	;RP1=1, select bank3
  2076     0784  00A5               	movwf	(_main$747+1)^(0+384)
  2077     0785  1683               	bsf	3,5	;RP0=1, select bank1
  2078     0786  1303               	bcf	3,6	;RP1=0, select bank1
  2079     0787  0839               	movf	?_pow^(0+128),w
  2080     0788  1683               	bsf	3,5	;RP0=1, select bank3
  2081     0789  1703               	bsf	3,6	;RP1=1, select bank3
  2082     078A  00A4               	movwf	_main$747^(0+384)
  2083     078B                     l3252:
  2084                           
  2085                           ;butterfly.c: 46:         PORTD=PORTD-pow(2,i)-pow(2,j);
  2086     078B  0823               	movf	(_main$746+3)^(0+384),w
  2087     078C  1283               	bcf	3,5	;RP0=0, select bank0
  2088     078D  1303               	bcf	3,6	;RP1=0, select bank0
  2089     078E  00E8               	movwf	___flsub@b+3
  2090     078F  1683               	bsf	3,5	;RP0=1, select bank3
  2091     0790  1703               	bsf	3,6	;RP1=1, select bank3
  2092     0791  0822               	movf	(_main$746+2)^(0+384),w
  2093     0792  1283               	bcf	3,5	;RP0=0, select bank0
  2094     0793  1303               	bcf	3,6	;RP1=0, select bank0
  2095     0794  00E7               	movwf	___flsub@b+2
  2096     0795  1683               	bsf	3,5	;RP0=1, select bank3
  2097     0796  1703               	bsf	3,6	;RP1=1, select bank3
  2098     0797  0821               	movf	(_main$746+1)^(0+384),w
  2099     0798  1283               	bcf	3,5	;RP0=0, select bank0
  2100     0799  1303               	bcf	3,6	;RP1=0, select bank0
  2101     079A  00E6               	movwf	___flsub@b+1
  2102     079B  1683               	bsf	3,5	;RP0=1, select bank3
  2103     079C  1703               	bsf	3,6	;RP1=1, select bank3
  2104     079D  0820               	movf	_main$746^(0+384),w
  2105     079E  1283               	bcf	3,5	;RP0=0, select bank0
  2106     079F  1303               	bcf	3,6	;RP1=0, select bank0
  2107     07A0  00E5               	movwf	___flsub@b
  2108     07A1  1683               	bsf	3,5	;RP0=1, select bank3
  2109     07A2  1703               	bsf	3,6	;RP1=1, select bank3
  2110     07A3  0827               	movf	(_main$747+3)^(0+384),w
  2111     07A4  1283               	bcf	3,5	;RP0=0, select bank0
  2112     07A5  1303               	bcf	3,6	;RP1=0, select bank0
  2113     07A6  00E4               	movwf	___flsub@a+3
  2114     07A7  1683               	bsf	3,5	;RP0=1, select bank3
  2115     07A8  1703               	bsf	3,6	;RP1=1, select bank3
  2116     07A9  0826               	movf	(_main$747+2)^(0+384),w
  2117     07AA  1283               	bcf	3,5	;RP0=0, select bank0
  2118     07AB  1303               	bcf	3,6	;RP1=0, select bank0
  2119     07AC  00E3               	movwf	___flsub@a+2
  2120     07AD  1683               	bsf	3,5	;RP0=1, select bank3
  2121     07AE  1703               	bsf	3,6	;RP1=1, select bank3
  2122     07AF  0825               	movf	(_main$747+1)^(0+384),w
  2123     07B0  1283               	bcf	3,5	;RP0=0, select bank0
  2124     07B1  1303               	bcf	3,6	;RP1=0, select bank0
  2125     07B2  00E2               	movwf	___flsub@a+1
  2126     07B3  1683               	bsf	3,5	;RP0=1, select bank3
  2127     07B4  1703               	bsf	3,6	;RP1=1, select bank3
  2128     07B5  0824               	movf	_main$747^(0+384),w
  2129     07B6  1283               	bcf	3,5	;RP0=0, select bank0
  2130     07B7  1303               	bcf	3,6	;RP1=0, select bank0
  2131     07B8  00E1               	movwf	___flsub@a
  2132     07B9  160A  158A  2765  120A  118A  	fcall	___flsub
  2133     07BE  1283               	bcf	3,5	;RP0=0, select bank0
  2134     07BF  1303               	bcf	3,6	;RP1=0, select bank0
  2135     07C0  0864               	movf	?___flsub+3,w
  2136     07C1  00EC               	movwf	___fltol@f1+3
  2137     07C2  0863               	movf	?___flsub+2,w
  2138     07C3  00EB               	movwf	___fltol@f1+2
  2139     07C4  0862               	movf	?___flsub+1,w
  2140     07C5  00EA               	movwf	___fltol@f1+1
  2141     07C6  0861               	movf	?___flsub,w
  2142     07C7  00E9               	movwf	___fltol@f1
  2143     07C8  160A  118A  20BC  120A  118A  	fcall	___fltol
  2144     07CD  1283               	bcf	3,5	;RP0=0, select bank0
  2145     07CE  1303               	bcf	3,6	;RP1=0, select bank0
  2146     07CF  0869               	movf	?___fltol,w
  2147     07D0  0088               	movwf	8	;volatile
  2148     07D1                     l3254:
  2149                           
  2150                           ;butterfly.c: 47:         delay(10000);
  2151     07D1  3010               	movlw	16
  2152     07D2  00F0               	movwf	delay@t
  2153     07D3  3027               	movlw	39
  2154     07D4  00F1               	movwf	delay@t+1
  2155     07D5  120A  118A  200E  120A  118A  	fcall	_delay
  2156     07DA                     l3256:
  2157                           
  2158                           ;butterfly.c: 48:     }
  2159     07DA  30FF               	movlw	255
  2160     07DB  1683               	bsf	3,5	;RP0=1, select bank3
  2161     07DC  1703               	bsf	3,6	;RP1=1, select bank3
  2162     07DD  07B0               	addwf	main@i^(0+384),f
  2163     07DE  1803               	skipnc
  2164     07DF  0AB1               	incf	(main@i+1)^(0+384),f
  2165     07E0  30FF               	movlw	255
  2166     07E1  07B1               	addwf	(main@i+1)^(0+384),f
  2167     07E2                     l3258:
  2168     07E2  3001               	movlw	1
  2169     07E3  07B2               	addwf	main@j^(0+384),f
  2170     07E4  1803               	skipnc
  2171     07E5  0AB3               	incf	(main@j+1)^(0+384),f
  2172     07E6  3000               	movlw	0
  2173     07E7  07B3               	addwf	(main@j+1)^(0+384),f
  2174     07E8                     l3260:
  2175     07E8  0833               	movf	(main@j+1)^(0+384),w
  2176     07E9  3A80               	xorlw	128
  2177     07EA  00FF               	movwf	btemp+1
  2178     07EB  3080               	movlw	128
  2179     07EC  027F               	subwf	btemp+1,w
  2180     07ED  1D03               	skipz
  2181     07EE  2FF1               	goto	u5045
  2182     07EF  3004               	movlw	4
  2183     07F0  0232               	subwf	main@j^(0+384),w
  2184     07F1                     u5045:
  2185     07F1  1C03               	skipc
  2186     07F2  2FF4               	goto	u5041
  2187     07F3  2FF5               	goto	u5040
  2188     07F4                     u5041:
  2189     07F4  2D45               	goto	l3234
  2190     07F5                     u5040:
  2191     07F5                     l29:
  2192     07F5  120A  118A  2800   	ljmp	start
  2193     07F8                     __end_of_main:
  2194                           
  2195                           	psect	text1
  2196     1629                     __ptext1:	
  2197 ;; *************** function _pow *****************
  2198 ;; Defined at:
  2199 ;;		line 5 in file "C:\Program Files\Microchip\xc8\v2.40\pic\sources\c90\common\pow.c"
  2200 ;; Parameters:    Size  Location     Type
  2201 ;;  x               4   25[BANK1 ] void 
  2202 ;;  y               4   29[BANK1 ] void 
  2203 ;; Auto vars:     Size  Location     Type
  2204 ;;  yi              4   42[BANK1 ] unsigned long 
  2205 ;;  sign            1   41[BANK1 ] unsigned char 
  2206 ;; Return value:  Size  Location     Type
  2207 ;;                  4   25[BANK1 ] unsigned char 
  2208 ;; Registers used:
  2209 ;;		wreg, fsr0l, fsr0h, status,2, status,0, btemp+1, pclath, cstack
  2210 ;; Tracked objects:
  2211 ;;		On entry : 0/0
  2212 ;;		On exit  : 0/0
  2213 ;;		Unchanged: 0/0
  2214 ;; Data sizes:     COMMON   BANK0   BANK1   BANK3   BANK2
  2215 ;;      Params:         0       0       8       0       0
  2216 ;;      Locals:         0       0      13       0       0
  2217 ;;      Temps:          0       0       0       0       0
  2218 ;;      Totals:         0       0      21       0       0
  2219 ;;Total ram usage:       21 bytes
  2220 ;; Hardware stack levels used: 1
  2221 ;; Hardware stack levels required when called: 4
  2222 ;; This function calls:
  2223 ;;		___fleq
  2224 ;;		___flge
  2225 ;;		___flmul
  2226 ;;		___flneg
  2227 ;;		___fltol
  2228 ;;		___xxtofl
  2229 ;;		_exp
  2230 ;;		_log
  2231 ;; This function is called by:
  2232 ;;		_main
  2233 ;; This function uses a non-reentrant model
  2234 ;;
  2235                           
  2236     1629                     _pow:	
  2237                           ;psect for function _pow
  2238                           
  2239     1629                     l3148:	
  2240                           ;incstack = 0
  2241                           ; Regs used in _pow: [wreg-fsr0h+status,2+status,0+btemp+1+pclath+cstack]
  2242                           
  2243     1629  1683               	bsf	3,5	;RP0=1, select bank1
  2244     162A  1303               	bcf	3,6	;RP1=0, select bank1
  2245     162B  01C9               	clrf	pow@sign^(0+128)
  2246     162C                     l3150:
  2247     162C  083C               	movf	(pow@x+3)^(0+128),w
  2248     162D  1283               	bcf	3,5	;RP0=0, select bank0
  2249     162E  1303               	bcf	3,6	;RP1=0, select bank0
  2250     162F  00A3               	movwf	___fleq@ff1+3
  2251     1630  1683               	bsf	3,5	;RP0=1, select bank1
  2252     1631  1303               	bcf	3,6	;RP1=0, select bank1
  2253     1632  083B               	movf	(pow@x+2)^(0+128),w
  2254     1633  1283               	bcf	3,5	;RP0=0, select bank0
  2255     1634  1303               	bcf	3,6	;RP1=0, select bank0
  2256     1635  00A2               	movwf	___fleq@ff1+2
  2257     1636  1683               	bsf	3,5	;RP0=1, select bank1
  2258     1637  1303               	bcf	3,6	;RP1=0, select bank1
  2259     1638  083A               	movf	(pow@x+1)^(0+128),w
  2260     1639  1283               	bcf	3,5	;RP0=0, select bank0
  2261     163A  1303               	bcf	3,6	;RP1=0, select bank0
  2262     163B  00A1               	movwf	___fleq@ff1+1
  2263     163C  1683               	bsf	3,5	;RP0=1, select bank1
  2264     163D  1303               	bcf	3,6	;RP1=0, select bank1
  2265     163E  0839               	movf	pow@x^(0+128),w
  2266     163F  1283               	bcf	3,5	;RP0=0, select bank0
  2267     1640  1303               	bcf	3,6	;RP1=0, select bank0
  2268     1641  00A0               	movwf	___fleq@ff1
  2269     1642  3000               	movlw	0
  2270     1643  00A7               	movwf	___fleq@ff2+3
  2271     1644  3000               	movlw	0
  2272     1645  00A6               	movwf	___fleq@ff2+2
  2273     1646  3000               	movlw	0
  2274     1647  00A5               	movwf	___fleq@ff2+1
  2275     1648  3000               	movlw	0
  2276     1649  00A4               	movwf	___fleq@ff2
  2277     164A  160A  158A  27B0  160A  118A  	fcall	___fleq
  2278     164F  1C03               	btfss	3,0
  2279     1650  2E52               	goto	u4971
  2280     1651  2E53               	goto	u4970
  2281     1652                     u4971:
  2282     1652  2E7F               	goto	l3158
  2283     1653                     u4970:
  2284     1653                     l3152:
  2285     1653  3000               	movlw	0
  2286     1654  00F3               	movwf	___flge@ff1+3
  2287     1655  3000               	movlw	0
  2288     1656  00F2               	movwf	___flge@ff1+2
  2289     1657  3000               	movlw	0
  2290     1658  00F1               	movwf	___flge@ff1+1
  2291     1659  3000               	movlw	0
  2292     165A  00F0               	movwf	___flge@ff1
  2293     165B  1683               	bsf	3,5	;RP0=1, select bank1
  2294     165C  1303               	bcf	3,6	;RP1=0, select bank1
  2295     165D  0840               	movf	(pow@y+3)^(0+128),w
  2296     165E  00F7               	movwf	___flge@ff2+3
  2297     165F  083F               	movf	(pow@y+2)^(0+128),w
  2298     1660  00F6               	movwf	___flge@ff2+2
  2299     1661  083E               	movf	(pow@y+1)^(0+128),w
  2300     1662  00F5               	movwf	___flge@ff2+1
  2301     1663  083D               	movf	pow@y^(0+128),w
  2302     1664  00F4               	movwf	___flge@ff2
  2303     1665  120A  158A  200B  160A  118A  	fcall	___flge
  2304     166A  1C03               	btfss	3,0
  2305     166B  2E6D               	goto	u4981
  2306     166C  2E6E               	goto	u4980
  2307     166D                     u4981:
  2308     166D  2E74               	goto	l573
  2309     166E                     u4980:
  2310     166E                     l3154:
  2311     166E  3021               	movlw	33
  2312     166F  1683               	bsf	3,5	;RP0=1, select bank1
  2313     1670  1303               	bcf	3,6	;RP1=0, select bank1
  2314     1671  00D2               	movwf	_errno^(0+128)
  2315     1672  3000               	movlw	0
  2316     1673  00D3               	movwf	(_errno^(0+128)+1)
  2317     1674                     l573:
  2318     1674  3000               	movlw	0
  2319     1675  1683               	bsf	3,5	;RP0=1, select bank1
  2320     1676  1303               	bcf	3,6	;RP1=0, select bank1
  2321     1677  00BC               	movwf	(?_pow+3)^(0+128)
  2322     1678  3000               	movlw	0
  2323     1679  00BB               	movwf	(?_pow+2)^(0+128)
  2324     167A  3000               	movlw	0
  2325     167B  00BA               	movwf	(?_pow+1)^(0+128)
  2326     167C  3000               	movlw	0
  2327     167D  00B9               	movwf	?_pow^(0+128)
  2328     167E  2FFF               	goto	l574
  2329     167F                     l3158:
  2330     167F  1683               	bsf	3,5	;RP0=1, select bank1
  2331     1680  1303               	bcf	3,6	;RP1=0, select bank1
  2332     1681  0840               	movf	(pow@y+3)^(0+128),w
  2333     1682  1283               	bcf	3,5	;RP0=0, select bank0
  2334     1683  1303               	bcf	3,6	;RP1=0, select bank0
  2335     1684  00A3               	movwf	___fleq@ff1+3
  2336     1685  1683               	bsf	3,5	;RP0=1, select bank1
  2337     1686  1303               	bcf	3,6	;RP1=0, select bank1
  2338     1687  083F               	movf	(pow@y+2)^(0+128),w
  2339     1688  1283               	bcf	3,5	;RP0=0, select bank0
  2340     1689  1303               	bcf	3,6	;RP1=0, select bank0
  2341     168A  00A2               	movwf	___fleq@ff1+2
  2342     168B  1683               	bsf	3,5	;RP0=1, select bank1
  2343     168C  1303               	bcf	3,6	;RP1=0, select bank1
  2344     168D  083E               	movf	(pow@y+1)^(0+128),w
  2345     168E  1283               	bcf	3,5	;RP0=0, select bank0
  2346     168F  1303               	bcf	3,6	;RP1=0, select bank0
  2347     1690  00A1               	movwf	___fleq@ff1+1
  2348     1691  1683               	bsf	3,5	;RP0=1, select bank1
  2349     1692  1303               	bcf	3,6	;RP1=0, select bank1
  2350     1693  083D               	movf	pow@y^(0+128),w
  2351     1694  1283               	bcf	3,5	;RP0=0, select bank0
  2352     1695  1303               	bcf	3,6	;RP1=0, select bank0
  2353     1696  00A0               	movwf	___fleq@ff1
  2354     1697  3000               	movlw	0
  2355     1698  00A7               	movwf	___fleq@ff2+3
  2356     1699  3000               	movlw	0
  2357     169A  00A6               	movwf	___fleq@ff2+2
  2358     169B  3000               	movlw	0
  2359     169C  00A5               	movwf	___fleq@ff2+1
  2360     169D  3000               	movlw	0
  2361     169E  00A4               	movwf	___fleq@ff2
  2362     169F  160A  158A  27B0  160A  118A  	fcall	___fleq
  2363     16A4  1C03               	btfss	3,0
  2364     16A5  2EA7               	goto	u4991
  2365     16A6  2EA8               	goto	u4990
  2366     16A7                     u4991:
  2367     16A7  2EB3               	goto	l3164
  2368     16A8                     u4990:
  2369     16A8                     l3160:
  2370     16A8  303F               	movlw	63
  2371     16A9  1683               	bsf	3,5	;RP0=1, select bank1
  2372     16AA  1303               	bcf	3,6	;RP1=0, select bank1
  2373     16AB  00BC               	movwf	(?_pow+3)^(0+128)
  2374     16AC  3080               	movlw	128
  2375     16AD  00BB               	movwf	(?_pow+2)^(0+128)
  2376     16AE  3000               	movlw	0
  2377     16AF  00BA               	movwf	(?_pow+1)^(0+128)
  2378     16B0  3000               	movlw	0
  2379     16B1  00B9               	movwf	?_pow^(0+128)
  2380     16B2  2FFF               	goto	l574
  2381     16B3                     l3164:
  2382     16B3  1683               	bsf	3,5	;RP0=1, select bank1
  2383     16B4  1303               	bcf	3,6	;RP1=0, select bank1
  2384     16B5  083C               	movf	(pow@x+3)^(0+128),w
  2385     16B6  00F3               	movwf	___flge@ff1+3
  2386     16B7  083B               	movf	(pow@x+2)^(0+128),w
  2387     16B8  00F2               	movwf	___flge@ff1+2
  2388     16B9  083A               	movf	(pow@x+1)^(0+128),w
  2389     16BA  00F1               	movwf	___flge@ff1+1
  2390     16BB  0839               	movf	pow@x^(0+128),w
  2391     16BC  00F0               	movwf	___flge@ff1
  2392     16BD  3000               	movlw	0
  2393     16BE  00F7               	movwf	___flge@ff2+3
  2394     16BF  3000               	movlw	0
  2395     16C0  00F6               	movwf	___flge@ff2+2
  2396     16C1  3000               	movlw	0
  2397     16C2  00F5               	movwf	___flge@ff2+1
  2398     16C3  3000               	movlw	0
  2399     16C4  00F4               	movwf	___flge@ff2
  2400     16C5  120A  158A  200B  160A  118A  	fcall	___flge
  2401     16CA  1803               	btfsc	3,0
  2402     16CB  2ECD               	goto	u5001
  2403     16CC  2ECE               	goto	u5000
  2404     16CD                     u5001:
  2405     16CD  2F67               	goto	l3176
  2406     16CE                     u5000:
  2407     16CE                     l3166:
  2408     16CE  1683               	bsf	3,5	;RP0=1, select bank1
  2409     16CF  1303               	bcf	3,6	;RP1=0, select bank1
  2410     16D0  0840               	movf	(pow@y+3)^(0+128),w
  2411     16D1  1283               	bcf	3,5	;RP0=0, select bank0
  2412     16D2  1303               	bcf	3,6	;RP1=0, select bank0
  2413     16D3  00EC               	movwf	___fltol@f1+3
  2414     16D4  1683               	bsf	3,5	;RP0=1, select bank1
  2415     16D5  1303               	bcf	3,6	;RP1=0, select bank1
  2416     16D6  083F               	movf	(pow@y+2)^(0+128),w
  2417     16D7  1283               	bcf	3,5	;RP0=0, select bank0
  2418     16D8  1303               	bcf	3,6	;RP1=0, select bank0
  2419     16D9  00EB               	movwf	___fltol@f1+2
  2420     16DA  1683               	bsf	3,5	;RP0=1, select bank1
  2421     16DB  1303               	bcf	3,6	;RP1=0, select bank1
  2422     16DC  083E               	movf	(pow@y+1)^(0+128),w
  2423     16DD  1283               	bcf	3,5	;RP0=0, select bank0
  2424     16DE  1303               	bcf	3,6	;RP1=0, select bank0
  2425     16DF  00EA               	movwf	___fltol@f1+1
  2426     16E0  1683               	bsf	3,5	;RP0=1, select bank1
  2427     16E1  1303               	bcf	3,6	;RP1=0, select bank1
  2428     16E2  083D               	movf	pow@y^(0+128),w
  2429     16E3  1283               	bcf	3,5	;RP0=0, select bank0
  2430     16E4  1303               	bcf	3,6	;RP1=0, select bank0
  2431     16E5  00E9               	movwf	___fltol@f1
  2432     16E6  160A  118A  20BC  160A  118A  	fcall	___fltol
  2433     16EB  1283               	bcf	3,5	;RP0=0, select bank0
  2434     16EC  1303               	bcf	3,6	;RP1=0, select bank0
  2435     16ED  086C               	movf	?___fltol+3,w
  2436     16EE  1683               	bsf	3,5	;RP0=1, select bank1
  2437     16EF  1303               	bcf	3,6	;RP1=0, select bank1
  2438     16F0  00CD               	movwf	(pow@yi+3)^(0+128)
  2439     16F1  1283               	bcf	3,5	;RP0=0, select bank0
  2440     16F2  1303               	bcf	3,6	;RP1=0, select bank0
  2441     16F3  086B               	movf	?___fltol+2,w
  2442     16F4  1683               	bsf	3,5	;RP0=1, select bank1
  2443     16F5  1303               	bcf	3,6	;RP1=0, select bank1
  2444     16F6  00CC               	movwf	(pow@yi+2)^(0+128)
  2445     16F7  1283               	bcf	3,5	;RP0=0, select bank0
  2446     16F8  1303               	bcf	3,6	;RP1=0, select bank0
  2447     16F9  086A               	movf	?___fltol+1,w
  2448     16FA  1683               	bsf	3,5	;RP0=1, select bank1
  2449     16FB  1303               	bcf	3,6	;RP1=0, select bank1
  2450     16FC  00CB               	movwf	(pow@yi+1)^(0+128)
  2451     16FD  1283               	bcf	3,5	;RP0=0, select bank0
  2452     16FE  1303               	bcf	3,6	;RP1=0, select bank0
  2453     16FF  0869               	movf	?___fltol,w
  2454     1700  1683               	bsf	3,5	;RP0=1, select bank1
  2455     1701  1303               	bcf	3,6	;RP1=0, select bank1
  2456     1702  00CA               	movwf	pow@yi^(0+128)
  2457     1703  084D               	movf	(pow@yi+3)^(0+128),w
  2458     1704  00F3               	movwf	___xxtofl@val+3
  2459     1705  084C               	movf	(pow@yi+2)^(0+128),w
  2460     1706  00F2               	movwf	___xxtofl@val+2
  2461     1707  084B               	movf	(pow@yi+1)^(0+128),w
  2462     1708  00F1               	movwf	___xxtofl@val+1
  2463     1709  084A               	movf	pow@yi^(0+128),w
  2464     170A  00F0               	movwf	___xxtofl@val
  2465     170B  3000               	movlw	0
  2466     170C  160A  118A  2150  160A  118A  	fcall	___xxtofl
  2467     1711  0873               	movf	?___xxtofl+3,w
  2468     1712  1283               	bcf	3,5	;RP0=0, select bank0
  2469     1713  1303               	bcf	3,6	;RP1=0, select bank0
  2470     1714  00A3               	movwf	___fleq@ff1+3
  2471     1715  0872               	movf	?___xxtofl+2,w
  2472     1716  00A2               	movwf	___fleq@ff1+2
  2473     1717  0871               	movf	?___xxtofl+1,w
  2474     1718  00A1               	movwf	___fleq@ff1+1
  2475     1719  0870               	movf	?___xxtofl,w
  2476     171A  00A0               	movwf	___fleq@ff1
  2477     171B  1683               	bsf	3,5	;RP0=1, select bank1
  2478     171C  1303               	bcf	3,6	;RP1=0, select bank1
  2479     171D  0840               	movf	(pow@y+3)^(0+128),w
  2480     171E  1283               	bcf	3,5	;RP0=0, select bank0
  2481     171F  1303               	bcf	3,6	;RP1=0, select bank0
  2482     1720  00A7               	movwf	___fleq@ff2+3
  2483     1721  1683               	bsf	3,5	;RP0=1, select bank1
  2484     1722  1303               	bcf	3,6	;RP1=0, select bank1
  2485     1723  083F               	movf	(pow@y+2)^(0+128),w
  2486     1724  1283               	bcf	3,5	;RP0=0, select bank0
  2487     1725  1303               	bcf	3,6	;RP1=0, select bank0
  2488     1726  00A6               	movwf	___fleq@ff2+2
  2489     1727  1683               	bsf	3,5	;RP0=1, select bank1
  2490     1728  1303               	bcf	3,6	;RP1=0, select bank1
  2491     1729  083E               	movf	(pow@y+1)^(0+128),w
  2492     172A  1283               	bcf	3,5	;RP0=0, select bank0
  2493     172B  1303               	bcf	3,6	;RP1=0, select bank0
  2494     172C  00A5               	movwf	___fleq@ff2+1
  2495     172D  1683               	bsf	3,5	;RP0=1, select bank1
  2496     172E  1303               	bcf	3,6	;RP1=0, select bank1
  2497     172F  083D               	movf	pow@y^(0+128),w
  2498     1730  1283               	bcf	3,5	;RP0=0, select bank0
  2499     1731  1303               	bcf	3,6	;RP1=0, select bank0
  2500     1732  00A4               	movwf	___fleq@ff2
  2501     1733  160A  158A  27B0  160A  118A  	fcall	___fleq
  2502     1738  1803               	btfsc	3,0
  2503     1739  2F3B               	goto	u5011
  2504     173A  2F3C               	goto	u5010
  2505     173B                     u5011:
  2506     173B  2F4B               	goto	l3172
  2507     173C                     u5010:
  2508     173C                     l3168:
  2509     173C  3021               	movlw	33
  2510     173D  1683               	bsf	3,5	;RP0=1, select bank1
  2511     173E  1303               	bcf	3,6	;RP1=0, select bank1
  2512     173F  00D2               	movwf	_errno^(0+128)
  2513     1740  3000               	movlw	0
  2514     1741  00D3               	movwf	(_errno^(0+128)+1)
  2515     1742  3000               	movlw	0
  2516     1743  00BC               	movwf	(?_pow+3)^(0+128)
  2517     1744  3000               	movlw	0
  2518     1745  00BB               	movwf	(?_pow+2)^(0+128)
  2519     1746  3000               	movlw	0
  2520     1747  00BA               	movwf	(?_pow+1)^(0+128)
  2521     1748  3000               	movlw	0
  2522     1749  00B9               	movwf	?_pow^(0+128)
  2523     174A  2FFF               	goto	l574
  2524     174B                     l3172:
  2525     174B  1683               	bsf	3,5	;RP0=1, select bank1
  2526     174C  1303               	bcf	3,6	;RP1=0, select bank1
  2527     174D  084A               	movf	pow@yi^(0+128),w
  2528     174E  3901               	andlw	1
  2529     174F  00C9               	movwf	pow@sign^(0+128)
  2530     1750                     l3174:
  2531     1750  083C               	movf	(pow@x+3)^(0+128),w
  2532     1751  00F3               	movwf	___flneg@f1+3
  2533     1752  083B               	movf	(pow@x+2)^(0+128),w
  2534     1753  00F2               	movwf	___flneg@f1+2
  2535     1754  083A               	movf	(pow@x+1)^(0+128),w
  2536     1755  00F1               	movwf	___flneg@f1+1
  2537     1756  0839               	movf	pow@x^(0+128),w
  2538     1757  00F0               	movwf	___flneg@f1
  2539     1758  120A  118A  2003  160A  118A  	fcall	___flneg
  2540     175D  0873               	movf	?___flneg+3,w
  2541     175E  1683               	bsf	3,5	;RP0=1, select bank1
  2542     175F  1303               	bcf	3,6	;RP1=0, select bank1
  2543     1760  00BC               	movwf	(pow@x+3)^(0+128)
  2544     1761  0872               	movf	?___flneg+2,w
  2545     1762  00BB               	movwf	(pow@x+2)^(0+128)
  2546     1763  0871               	movf	?___flneg+1,w
  2547     1764  00BA               	movwf	(pow@x+1)^(0+128)
  2548     1765  0870               	movf	?___flneg,w
  2549     1766  00B9               	movwf	pow@x^(0+128)
  2550     1767                     l3176:
  2551     1767  1683               	bsf	3,5	;RP0=1, select bank1
  2552     1768  1303               	bcf	3,6	;RP1=0, select bank1
  2553     1769  083C               	movf	(pow@x+3)^(0+128),w
  2554     176A  00A7               	movwf	(log@x+3)^(0+128)
  2555     176B  083B               	movf	(pow@x+2)^(0+128),w
  2556     176C  00A6               	movwf	(log@x+2)^(0+128)
  2557     176D  083A               	movf	(pow@x+1)^(0+128),w
  2558     176E  00A5               	movwf	(log@x+1)^(0+128)
  2559     176F  0839               	movf	pow@x^(0+128),w
  2560     1770  00A4               	movwf	log@x^(0+128)
  2561     1771  160A  118A  24B9  160A  118A  	fcall	_log
  2562     1776  1683               	bsf	3,5	;RP0=1, select bank1
  2563     1777  1303               	bcf	3,6	;RP1=0, select bank1
  2564     1778  0827               	movf	(?_log+3)^(0+128),w
  2565     1779  00C4               	movwf	(_pow$748+3)^(0+128)
  2566     177A  0826               	movf	(?_log+2)^(0+128),w
  2567     177B  00C3               	movwf	(_pow$748+2)^(0+128)
  2568     177C  0825               	movf	(?_log+1)^(0+128),w
  2569     177D  00C2               	movwf	(_pow$748+1)^(0+128)
  2570     177E  0824               	movf	?_log^(0+128),w
  2571     177F  00C1               	movwf	_pow$748^(0+128)
  2572     1780                     l3178:
  2573     1780  0840               	movf	(pow@y+3)^(0+128),w
  2574     1781  1283               	bcf	3,5	;RP0=0, select bank0
  2575     1782  1303               	bcf	3,6	;RP1=0, select bank0
  2576     1783  00B6               	movwf	___flmul@b+3
  2577     1784  1683               	bsf	3,5	;RP0=1, select bank1
  2578     1785  1303               	bcf	3,6	;RP1=0, select bank1
  2579     1786  083F               	movf	(pow@y+2)^(0+128),w
  2580     1787  1283               	bcf	3,5	;RP0=0, select bank0
  2581     1788  1303               	bcf	3,6	;RP1=0, select bank0
  2582     1789  00B5               	movwf	___flmul@b+2
  2583     178A  1683               	bsf	3,5	;RP0=1, select bank1
  2584     178B  1303               	bcf	3,6	;RP1=0, select bank1
  2585     178C  083E               	movf	(pow@y+1)^(0+128),w
  2586     178D  1283               	bcf	3,5	;RP0=0, select bank0
  2587     178E  1303               	bcf	3,6	;RP1=0, select bank0
  2588     178F  00B4               	movwf	___flmul@b+1
  2589     1790  1683               	bsf	3,5	;RP0=1, select bank1
  2590     1791  1303               	bcf	3,6	;RP1=0, select bank1
  2591     1792  083D               	movf	pow@y^(0+128),w
  2592     1793  1283               	bcf	3,5	;RP0=0, select bank0
  2593     1794  1303               	bcf	3,6	;RP1=0, select bank0
  2594     1795  00B3               	movwf	___flmul@b
  2595     1796  1683               	bsf	3,5	;RP0=1, select bank1
  2596     1797  1303               	bcf	3,6	;RP1=0, select bank1
  2597     1798  0844               	movf	(_pow$748+3)^(0+128),w
  2598     1799  1283               	bcf	3,5	;RP0=0, select bank0
  2599     179A  1303               	bcf	3,6	;RP1=0, select bank0
  2600     179B  00BA               	movwf	___flmul@a+3
  2601     179C  1683               	bsf	3,5	;RP0=1, select bank1
  2602     179D  1303               	bcf	3,6	;RP1=0, select bank1
  2603     179E  0843               	movf	(_pow$748+2)^(0+128),w
  2604     179F  1283               	bcf	3,5	;RP0=0, select bank0
  2605     17A0  1303               	bcf	3,6	;RP1=0, select bank0
  2606     17A1  00B9               	movwf	___flmul@a+2
  2607     17A2  1683               	bsf	3,5	;RP0=1, select bank1
  2608     17A3  1303               	bcf	3,6	;RP1=0, select bank1
  2609     17A4  0842               	movf	(_pow$748+1)^(0+128),w
  2610     17A5  1283               	bcf	3,5	;RP0=0, select bank0
  2611     17A6  1303               	bcf	3,6	;RP1=0, select bank0
  2612     17A7  00B8               	movwf	___flmul@a+1
  2613     17A8  1683               	bsf	3,5	;RP0=1, select bank1
  2614     17A9  1303               	bcf	3,6	;RP1=0, select bank1
  2615     17AA  0841               	movf	_pow$748^(0+128),w
  2616     17AB  1283               	bcf	3,5	;RP0=0, select bank0
  2617     17AC  1303               	bcf	3,6	;RP1=0, select bank0
  2618     17AD  00B7               	movwf	___flmul@a
  2619     17AE  120A  158A  24BB  160A  118A  	fcall	___flmul
  2620     17B3  1283               	bcf	3,5	;RP0=0, select bank0
  2621     17B4  1303               	bcf	3,6	;RP1=0, select bank0
  2622     17B5  0836               	movf	?___flmul+3,w
  2623     17B6  1683               	bsf	3,5	;RP0=1, select bank1
  2624     17B7  1303               	bcf	3,6	;RP1=0, select bank1
  2625     17B8  00C8               	movwf	(_pow$749+3)^(0+128)
  2626     17B9  1283               	bcf	3,5	;RP0=0, select bank0
  2627     17BA  1303               	bcf	3,6	;RP1=0, select bank0
  2628     17BB  0835               	movf	?___flmul+2,w
  2629     17BC  1683               	bsf	3,5	;RP0=1, select bank1
  2630     17BD  1303               	bcf	3,6	;RP1=0, select bank1
  2631     17BE  00C7               	movwf	(_pow$749+2)^(0+128)
  2632     17BF  1283               	bcf	3,5	;RP0=0, select bank0
  2633     17C0  1303               	bcf	3,6	;RP1=0, select bank0
  2634     17C1  0834               	movf	?___flmul+1,w
  2635     17C2  1683               	bsf	3,5	;RP0=1, select bank1
  2636     17C3  1303               	bcf	3,6	;RP1=0, select bank1
  2637     17C4  00C6               	movwf	(_pow$749+1)^(0+128)
  2638     17C5  1283               	bcf	3,5	;RP0=0, select bank0
  2639     17C6  1303               	bcf	3,6	;RP1=0, select bank0
  2640     17C7  0833               	movf	?___flmul,w
  2641     17C8  1683               	bsf	3,5	;RP0=1, select bank1
  2642     17C9  1303               	bcf	3,6	;RP1=0, select bank1
  2643     17CA  00C5               	movwf	_pow$749^(0+128)
  2644     17CB                     l3180:
  2645     17CB  0848               	movf	(_pow$749+3)^(0+128),w
  2646     17CC  00B1               	movwf	(exp@x+3)^(0+128)
  2647     17CD  0847               	movf	(_pow$749+2)^(0+128),w
  2648     17CE  00B0               	movwf	(exp@x+2)^(0+128)
  2649     17CF  0846               	movf	(_pow$749+1)^(0+128),w
  2650     17D0  00AF               	movwf	(exp@x+1)^(0+128)
  2651     17D1  0845               	movf	_pow$749^(0+128),w
  2652     17D2  00AE               	movwf	exp@x^(0+128)
  2653     17D3  120A  158A  2286  160A  118A  	fcall	_exp
  2654     17D8  1683               	bsf	3,5	;RP0=1, select bank1
  2655     17D9  1303               	bcf	3,6	;RP1=0, select bank1
  2656     17DA  0831               	movf	(?_exp+3)^(0+128),w
  2657     17DB  00BC               	movwf	(pow@x+3)^(0+128)
  2658     17DC  0830               	movf	(?_exp+2)^(0+128),w
  2659     17DD  00BB               	movwf	(pow@x+2)^(0+128)
  2660     17DE  082F               	movf	(?_exp+1)^(0+128),w
  2661     17DF  00BA               	movwf	(pow@x+1)^(0+128)
  2662     17E0  082E               	movf	?_exp^(0+128),w
  2663     17E1  00B9               	movwf	pow@x^(0+128)
  2664     17E2                     l3182:
  2665     17E2  0849               	movf	pow@sign^(0+128),w
  2666     17E3  1903               	btfsc	3,2
  2667     17E4  2FE6               	goto	u5021
  2668     17E5  2FE7               	goto	u5020
  2669     17E6                     u5021:
  2670     17E6  2FFF               	goto	l578
  2671     17E7                     u5020:
  2672     17E7                     l3184:
  2673     17E7  083C               	movf	(pow@x+3)^(0+128),w
  2674     17E8  00F3               	movwf	___flneg@f1+3
  2675     17E9  083B               	movf	(pow@x+2)^(0+128),w
  2676     17EA  00F2               	movwf	___flneg@f1+2
  2677     17EB  083A               	movf	(pow@x+1)^(0+128),w
  2678     17EC  00F1               	movwf	___flneg@f1+1
  2679     17ED  0839               	movf	pow@x^(0+128),w
  2680     17EE  00F0               	movwf	___flneg@f1
  2681     17EF  120A  118A  2003  160A  118A  	fcall	___flneg
  2682     17F4  0873               	movf	?___flneg+3,w
  2683     17F5  1683               	bsf	3,5	;RP0=1, select bank1
  2684     17F6  1303               	bcf	3,6	;RP1=0, select bank1
  2685     17F7  00BC               	movwf	(?_pow+3)^(0+128)
  2686     17F8  0872               	movf	?___flneg+2,w
  2687     17F9  00BB               	movwf	(?_pow+2)^(0+128)
  2688     17FA  0871               	movf	?___flneg+1,w
  2689     17FB  00BA               	movwf	(?_pow+1)^(0+128)
  2690     17FC  0870               	movf	?___flneg,w
  2691     17FD  00B9               	movwf	?_pow^(0+128)
  2692     17FE  2FFF               	goto	l574
  2693     17FF                     l578:
  2694     17FF                     l574:
  2695     17FF  0008               	return
  2696     1800                     __end_of_pow:
  2697                           
  2698                           	psect	text2
  2699     14B9                     __ptext2:	
  2700 ;; *************** function _log *****************
  2701 ;; Defined at:
  2702 ;;		line 5 in file "C:\Program Files\Microchip\xc8\v2.40\pic\sources\c90\common\log.c"
  2703 ;; Parameters:    Size  Location     Type
  2704 ;;  x               4    4[BANK1 ] unsigned char 
  2705 ;; Auto vars:     Size  Location     Type
  2706 ;;  exponent        2   77[BANK0 ] int 
  2707 ;; Return value:  Size  Location     Type
  2708 ;;                  4    4[BANK1 ] int 
  2709 ;; Registers used:
  2710 ;;		wreg, fsr0l, fsr0h, status,2, status,0, btemp+1, pclath, cstack
  2711 ;; Tracked objects:
  2712 ;;		On entry : 0/0
  2713 ;;		On exit  : 0/0
  2714 ;;		Unchanged: 0/0
  2715 ;; Data sizes:     COMMON   BANK0   BANK1   BANK3   BANK2
  2716 ;;      Params:         0       0       4       0       0
  2717 ;;      Locals:         0       2       0       0       0
  2718 ;;      Temps:          0       0       0       0       0
  2719 ;;      Totals:         0       2       4       0       0
  2720 ;;Total ram usage:        6 bytes
  2721 ;; Hardware stack levels used: 1
  2722 ;; Hardware stack levels required when called: 3
  2723 ;; This function calls:
  2724 ;;		___fladd
  2725 ;;		___fleq
  2726 ;;		___flge
  2727 ;;		___flmul
  2728 ;;		___xxtofl
  2729 ;;		_eval_poly
  2730 ;;		_frexp
  2731 ;; This function is called by:
  2732 ;;		_pow
  2733 ;; This function uses a non-reentrant model
  2734 ;;
  2735                           
  2736     14B9                     _log:	
  2737                           ;psect for function _log
  2738                           
  2739     14B9                     l3080:	
  2740                           ;incstack = 0
  2741                           ; Regs used in _log: [wreg-fsr0h+status,2+status,0+btemp+1+pclath+cstack]
  2742                           
  2743     14B9  1683               	bsf	3,5	;RP0=1, select bank1
  2744     14BA  1303               	bcf	3,6	;RP1=0, select bank1
  2745     14BB  0827               	movf	(log@x+3)^(0+128),w
  2746     14BC  00F3               	movwf	___flge@ff1+3
  2747     14BD  0826               	movf	(log@x+2)^(0+128),w
  2748     14BE  00F2               	movwf	___flge@ff1+2
  2749     14BF  0825               	movf	(log@x+1)^(0+128),w
  2750     14C0  00F1               	movwf	___flge@ff1+1
  2751     14C1  0824               	movf	log@x^(0+128),w
  2752     14C2  00F0               	movwf	___flge@ff1
  2753     14C3  3000               	movlw	0
  2754     14C4  00F7               	movwf	___flge@ff2+3
  2755     14C5  3000               	movlw	0
  2756     14C6  00F6               	movwf	___flge@ff2+2
  2757     14C7  3000               	movlw	0
  2758     14C8  00F5               	movwf	___flge@ff2+1
  2759     14C9  3000               	movlw	0
  2760     14CA  00F4               	movwf	___flge@ff2
  2761     14CB  120A  158A  200B  160A  118A  	fcall	___flge
  2762     14D0  1803               	btfsc	3,0
  2763     14D1  2CD3               	goto	u4871
  2764     14D2  2CD4               	goto	u4870
  2765     14D3                     u4871:
  2766     14D3  2CE3               	goto	l3086
  2767     14D4                     u4870:
  2768     14D4                     l3082:
  2769     14D4  3021               	movlw	33
  2770     14D5  1683               	bsf	3,5	;RP0=1, select bank1
  2771     14D6  1303               	bcf	3,6	;RP1=0, select bank1
  2772     14D7  00D2               	movwf	_errno^(0+128)
  2773     14D8  3000               	movlw	0
  2774     14D9  00D3               	movwf	(_errno^(0+128)+1)
  2775     14DA  3000               	movlw	0
  2776     14DB  00A7               	movwf	(?_log+3)^(0+128)
  2777     14DC  3000               	movlw	0
  2778     14DD  00A6               	movwf	(?_log+2)^(0+128)
  2779     14DE  3000               	movlw	0
  2780     14DF  00A5               	movwf	(?_log+1)^(0+128)
  2781     14E0  3000               	movlw	0
  2782     14E1  00A4               	movwf	?_log^(0+128)
  2783     14E2  2E28               	goto	l642
  2784     14E3                     l3086:
  2785     14E3  1683               	bsf	3,5	;RP0=1, select bank1
  2786     14E4  1303               	bcf	3,6	;RP1=0, select bank1
  2787     14E5  0827               	movf	(log@x+3)^(0+128),w
  2788     14E6  1283               	bcf	3,5	;RP0=0, select bank0
  2789     14E7  1303               	bcf	3,6	;RP1=0, select bank0
  2790     14E8  00A3               	movwf	___fleq@ff1+3
  2791     14E9  1683               	bsf	3,5	;RP0=1, select bank1
  2792     14EA  1303               	bcf	3,6	;RP1=0, select bank1
  2793     14EB  0826               	movf	(log@x+2)^(0+128),w
  2794     14EC  1283               	bcf	3,5	;RP0=0, select bank0
  2795     14ED  1303               	bcf	3,6	;RP1=0, select bank0
  2796     14EE  00A2               	movwf	___fleq@ff1+2
  2797     14EF  1683               	bsf	3,5	;RP0=1, select bank1
  2798     14F0  1303               	bcf	3,6	;RP1=0, select bank1
  2799     14F1  0825               	movf	(log@x+1)^(0+128),w
  2800     14F2  1283               	bcf	3,5	;RP0=0, select bank0
  2801     14F3  1303               	bcf	3,6	;RP1=0, select bank0
  2802     14F4  00A1               	movwf	___fleq@ff1+1
  2803     14F5  1683               	bsf	3,5	;RP0=1, select bank1
  2804     14F6  1303               	bcf	3,6	;RP1=0, select bank1
  2805     14F7  0824               	movf	log@x^(0+128),w
  2806     14F8  1283               	bcf	3,5	;RP0=0, select bank0
  2807     14F9  1303               	bcf	3,6	;RP1=0, select bank0
  2808     14FA  00A0               	movwf	___fleq@ff1
  2809     14FB  3000               	movlw	0
  2810     14FC  00A7               	movwf	___fleq@ff2+3
  2811     14FD  3000               	movlw	0
  2812     14FE  00A6               	movwf	___fleq@ff2+2
  2813     14FF  3000               	movlw	0
  2814     1500  00A5               	movwf	___fleq@ff2+1
  2815     1501  3000               	movlw	0
  2816     1502  00A4               	movwf	___fleq@ff2
  2817     1503  160A  158A  27B0  160A  118A  	fcall	___fleq
  2818     1508  1C03               	btfss	3,0
  2819     1509  2D0B               	goto	u4881
  2820     150A  2D0C               	goto	u4880
  2821     150B                     u4881:
  2822     150B  2D1B               	goto	l3092
  2823     150C                     u4880:
  2824     150C                     l3088:
  2825     150C  3022               	movlw	34
  2826     150D  1683               	bsf	3,5	;RP0=1, select bank1
  2827     150E  1303               	bcf	3,6	;RP1=0, select bank1
  2828     150F  00D2               	movwf	_errno^(0+128)
  2829     1510  3000               	movlw	0
  2830     1511  00D3               	movwf	(_errno^(0+128)+1)
  2831     1512  3000               	movlw	0
  2832     1513  00A7               	movwf	(?_log+3)^(0+128)
  2833     1514  3000               	movlw	0
  2834     1515  00A6               	movwf	(?_log+2)^(0+128)
  2835     1516  3000               	movlw	0
  2836     1517  00A5               	movwf	(?_log+1)^(0+128)
  2837     1518  3000               	movlw	0
  2838     1519  00A4               	movwf	?_log^(0+128)
  2839     151A  2E28               	goto	l642
  2840     151B                     l3092:
  2841     151B  30BF               	movlw	191
  2842     151C  1283               	bcf	3,5	;RP0=0, select bank0
  2843     151D  1303               	bcf	3,6	;RP1=0, select bank0
  2844     151E  00D0               	movwf	___fladd@b+3
  2845     151F  3080               	movlw	128
  2846     1520  00CF               	movwf	___fladd@b+2
  2847     1521  3000               	movlw	0
  2848     1522  00CE               	movwf	___fladd@b+1
  2849     1523  3000               	movlw	0
  2850     1524  00CD               	movwf	___fladd@b
  2851     1525  3040               	movlw	64
  2852     1526  00B6               	movwf	___flmul@b+3
  2853     1527  3000               	movlw	0
  2854     1528  00B5               	movwf	___flmul@b+2
  2855     1529  3000               	movlw	0
  2856     152A  00B4               	movwf	___flmul@b+1
  2857     152B  3000               	movlw	0
  2858     152C  00B3               	movwf	___flmul@b
  2859     152D  306D               	movlw	(low (log@exponent| 0))& (0+255)
  2860     152E  00B0               	movwf	frexp@eptr
  2861     152F  1683               	bsf	3,5	;RP0=1, select bank1
  2862     1530  1303               	bcf	3,6	;RP1=0, select bank1
  2863     1531  0827               	movf	(log@x+3)^(0+128),w
  2864     1532  1283               	bcf	3,5	;RP0=0, select bank0
  2865     1533  1303               	bcf	3,6	;RP1=0, select bank0
  2866     1534  00AF               	movwf	frexp@value+3
  2867     1535  1683               	bsf	3,5	;RP0=1, select bank1
  2868     1536  1303               	bcf	3,6	;RP1=0, select bank1
  2869     1537  0826               	movf	(log@x+2)^(0+128),w
  2870     1538  1283               	bcf	3,5	;RP0=0, select bank0
  2871     1539  1303               	bcf	3,6	;RP1=0, select bank0
  2872     153A  00AE               	movwf	frexp@value+2
  2873     153B  1683               	bsf	3,5	;RP0=1, select bank1
  2874     153C  1303               	bcf	3,6	;RP1=0, select bank1
  2875     153D  0825               	movf	(log@x+1)^(0+128),w
  2876     153E  1283               	bcf	3,5	;RP0=0, select bank0
  2877     153F  1303               	bcf	3,6	;RP1=0, select bank0
  2878     1540  00AD               	movwf	frexp@value+1
  2879     1541  1683               	bsf	3,5	;RP0=1, select bank1
  2880     1542  1303               	bcf	3,6	;RP1=0, select bank1
  2881     1543  0824               	movf	log@x^(0+128),w
  2882     1544  1283               	bcf	3,5	;RP0=0, select bank0
  2883     1545  1303               	bcf	3,6	;RP1=0, select bank0
  2884     1546  00AC               	movwf	frexp@value
  2885     1547  160A  118A  2060  160A  118A  	fcall	_frexp
  2886     154C  1283               	bcf	3,5	;RP0=0, select bank0
  2887     154D  1303               	bcf	3,6	;RP1=0, select bank0
  2888     154E  082F               	movf	?_frexp+3,w
  2889     154F  00BA               	movwf	___flmul@a+3
  2890     1550  082E               	movf	?_frexp+2,w
  2891     1551  00B9               	movwf	___flmul@a+2
  2892     1552  082D               	movf	?_frexp+1,w
  2893     1553  00B8               	movwf	___flmul@a+1
  2894     1554  082C               	movf	?_frexp,w
  2895     1555  00B7               	movwf	___flmul@a
  2896     1556  120A  158A  24BB  160A  118A  	fcall	___flmul
  2897     155B  1283               	bcf	3,5	;RP0=0, select bank0
  2898     155C  1303               	bcf	3,6	;RP1=0, select bank0
  2899     155D  0836               	movf	?___flmul+3,w
  2900     155E  00D4               	movwf	___fladd@a+3
  2901     155F  0835               	movf	?___flmul+2,w
  2902     1560  00D3               	movwf	___fladd@a+2
  2903     1561  0834               	movf	?___flmul+1,w
  2904     1562  00D2               	movwf	___fladd@a+1
  2905     1563  0833               	movf	?___flmul,w
  2906     1564  00D1               	movwf	___fladd@a
  2907     1565  120A  118A  201D  160A  118A  	fcall	___fladd
  2908     156A  1283               	bcf	3,5	;RP0=0, select bank0
  2909     156B  1303               	bcf	3,6	;RP1=0, select bank0
  2910     156C  0850               	movf	?___fladd+3,w
  2911     156D  1683               	bsf	3,5	;RP0=1, select bank1
  2912     156E  1303               	bcf	3,6	;RP1=0, select bank1
  2913     156F  00A7               	movwf	(log@x+3)^(0+128)
  2914     1570  1283               	bcf	3,5	;RP0=0, select bank0
  2915     1571  1303               	bcf	3,6	;RP1=0, select bank0
  2916     1572  084F               	movf	?___fladd+2,w
  2917     1573  1683               	bsf	3,5	;RP0=1, select bank1
  2918     1574  1303               	bcf	3,6	;RP1=0, select bank1
  2919     1575  00A6               	movwf	(log@x+2)^(0+128)
  2920     1576  1283               	bcf	3,5	;RP0=0, select bank0
  2921     1577  1303               	bcf	3,6	;RP1=0, select bank0
  2922     1578  084E               	movf	?___fladd+1,w
  2923     1579  1683               	bsf	3,5	;RP0=1, select bank1
  2924     157A  1303               	bcf	3,6	;RP1=0, select bank1
  2925     157B  00A5               	movwf	(log@x+1)^(0+128)
  2926     157C  1283               	bcf	3,5	;RP0=0, select bank0
  2927     157D  1303               	bcf	3,6	;RP1=0, select bank0
  2928     157E  084D               	movf	?___fladd,w
  2929     157F  1683               	bsf	3,5	;RP0=1, select bank1
  2930     1580  1303               	bcf	3,6	;RP1=0, select bank1
  2931     1581  00A4               	movwf	log@x^(0+128)
  2932     1582                     l3094:
  2933     1582  30FF               	movlw	255
  2934     1583  1283               	bcf	3,5	;RP0=0, select bank0
  2935     1584  1303               	bcf	3,6	;RP1=0, select bank0
  2936     1585  07ED               	addwf	log@exponent,f
  2937     1586  1803               	skipnc
  2938     1587  0AEE               	incf	log@exponent+1,f
  2939     1588  30FF               	movlw	255
  2940     1589  07EE               	addwf	log@exponent+1,f
  2941     158A                     l3096:
  2942     158A  1683               	bsf	3,5	;RP0=1, select bank1
  2943     158B  1303               	bcf	3,6	;RP1=0, select bank1
  2944     158C  0827               	movf	(log@x+3)^(0+128),w
  2945     158D  1283               	bcf	3,5	;RP0=0, select bank0
  2946     158E  1303               	bcf	3,6	;RP1=0, select bank0
  2947     158F  00E4               	movwf	eval_poly@x+3
  2948     1590  1683               	bsf	3,5	;RP0=1, select bank1
  2949     1591  1303               	bcf	3,6	;RP1=0, select bank1
  2950     1592  0826               	movf	(log@x+2)^(0+128),w
  2951     1593  1283               	bcf	3,5	;RP0=0, select bank0
  2952     1594  1303               	bcf	3,6	;RP1=0, select bank0
  2953     1595  00E3               	movwf	eval_poly@x+2
  2954     1596  1683               	bsf	3,5	;RP0=1, select bank1
  2955     1597  1303               	bcf	3,6	;RP1=0, select bank1
  2956     1598  0825               	movf	(log@x+1)^(0+128),w
  2957     1599  1283               	bcf	3,5	;RP0=0, select bank0
  2958     159A  1303               	bcf	3,6	;RP1=0, select bank0
  2959     159B  00E2               	movwf	eval_poly@x+1
  2960     159C  1683               	bsf	3,5	;RP0=1, select bank1
  2961     159D  1303               	bcf	3,6	;RP1=0, select bank1
  2962     159E  0824               	movf	log@x^(0+128),w
  2963     159F  1283               	bcf	3,5	;RP0=0, select bank0
  2964     15A0  1303               	bcf	3,6	;RP1=0, select bank0
  2965     15A1  00E1               	movwf	eval_poly@x
  2966     15A2  3029               	movlw	(low ((log@coeff-__stringbase)| (0+32768)))& (0+255)
  2967     15A3  00E5               	movwf	eval_poly@d
  2968     15A4  3008               	movlw	8
  2969     15A5  00E6               	movwf	eval_poly@n
  2970     15A6  3000               	movlw	0
  2971     15A7  00E7               	movwf	eval_poly@n+1
  2972     15A8  160A  118A  2208  160A  118A  	fcall	_eval_poly
  2973     15AD  1283               	bcf	3,5	;RP0=0, select bank0
  2974     15AE  1303               	bcf	3,6	;RP1=0, select bank0
  2975     15AF  0864               	movf	?_eval_poly+3,w
  2976     15B0  1683               	bsf	3,5	;RP0=1, select bank1
  2977     15B1  1303               	bcf	3,6	;RP1=0, select bank1
  2978     15B2  00A7               	movwf	(log@x+3)^(0+128)
  2979     15B3  1283               	bcf	3,5	;RP0=0, select bank0
  2980     15B4  1303               	bcf	3,6	;RP1=0, select bank0
  2981     15B5  0863               	movf	?_eval_poly+2,w
  2982     15B6  1683               	bsf	3,5	;RP0=1, select bank1
  2983     15B7  1303               	bcf	3,6	;RP1=0, select bank1
  2984     15B8  00A6               	movwf	(log@x+2)^(0+128)
  2985     15B9  1283               	bcf	3,5	;RP0=0, select bank0
  2986     15BA  1303               	bcf	3,6	;RP1=0, select bank0
  2987     15BB  0862               	movf	?_eval_poly+1,w
  2988     15BC  1683               	bsf	3,5	;RP0=1, select bank1
  2989     15BD  1303               	bcf	3,6	;RP1=0, select bank1
  2990     15BE  00A5               	movwf	(log@x+1)^(0+128)
  2991     15BF  1283               	bcf	3,5	;RP0=0, select bank0
  2992     15C0  1303               	bcf	3,6	;RP1=0, select bank0
  2993     15C1  0861               	movf	?_eval_poly,w
  2994     15C2  1683               	bsf	3,5	;RP0=1, select bank1
  2995     15C3  1303               	bcf	3,6	;RP1=0, select bank1
  2996     15C4  00A4               	movwf	log@x^(0+128)
  2997     15C5                     l3098:
  2998     15C5  0827               	movf	(log@x+3)^(0+128),w
  2999     15C6  1283               	bcf	3,5	;RP0=0, select bank0
  3000     15C7  1303               	bcf	3,6	;RP1=0, select bank0
  3001     15C8  00D0               	movwf	___fladd@b+3
  3002     15C9  1683               	bsf	3,5	;RP0=1, select bank1
  3003     15CA  1303               	bcf	3,6	;RP1=0, select bank1
  3004     15CB  0826               	movf	(log@x+2)^(0+128),w
  3005     15CC  1283               	bcf	3,5	;RP0=0, select bank0
  3006     15CD  1303               	bcf	3,6	;RP1=0, select bank0
  3007     15CE  00CF               	movwf	___fladd@b+2
  3008     15CF  1683               	bsf	3,5	;RP0=1, select bank1
  3009     15D0  1303               	bcf	3,6	;RP1=0, select bank1
  3010     15D1  0825               	movf	(log@x+1)^(0+128),w
  3011     15D2  1283               	bcf	3,5	;RP0=0, select bank0
  3012     15D3  1303               	bcf	3,6	;RP1=0, select bank0
  3013     15D4  00CE               	movwf	___fladd@b+1
  3014     15D5  1683               	bsf	3,5	;RP0=1, select bank1
  3015     15D6  1303               	bcf	3,6	;RP1=0, select bank1
  3016     15D7  0824               	movf	log@x^(0+128),w
  3017     15D8  1283               	bcf	3,5	;RP0=0, select bank0
  3018     15D9  1303               	bcf	3,6	;RP1=0, select bank0
  3019     15DA  00CD               	movwf	___fladd@b
  3020     15DB  303F               	movlw	63
  3021     15DC  00B6               	movwf	___flmul@b+3
  3022     15DD  3031               	movlw	49
  3023     15DE  00B5               	movwf	___flmul@b+2
  3024     15DF  3072               	movlw	114
  3025     15E0  00B4               	movwf	___flmul@b+1
  3026     15E1  3018               	movlw	24
  3027     15E2  00B3               	movwf	___flmul@b
  3028     15E3  086D               	movf	log@exponent,w
  3029     15E4  00F0               	movwf	___xxtofl@val
  3030     15E5  086E               	movf	log@exponent+1,w
  3031     15E6  00F1               	movwf	___xxtofl@val+1
  3032     15E7  3000               	movlw	0
  3033     15E8  1BF1               	btfsc	___xxtofl@val+1,7
  3034     15E9  30FF               	movlw	255
  3035     15EA  00F2               	movwf	___xxtofl@val+2
  3036     15EB  00F3               	movwf	___xxtofl@val+3
  3037     15EC  3001               	movlw	1
  3038     15ED  160A  118A  2150  160A  118A  	fcall	___xxtofl
  3039     15F2  0873               	movf	?___xxtofl+3,w
  3040     15F3  1283               	bcf	3,5	;RP0=0, select bank0
  3041     15F4  1303               	bcf	3,6	;RP1=0, select bank0
  3042     15F5  00BA               	movwf	___flmul@a+3
  3043     15F6  0872               	movf	?___xxtofl+2,w
  3044     15F7  00B9               	movwf	___flmul@a+2
  3045     15F8  0871               	movf	?___xxtofl+1,w
  3046     15F9  00B8               	movwf	___flmul@a+1
  3047     15FA  0870               	movf	?___xxtofl,w
  3048     15FB  00B7               	movwf	___flmul@a
  3049     15FC  120A  158A  24BB  160A  118A  	fcall	___flmul
  3050     1601  1283               	bcf	3,5	;RP0=0, select bank0
  3051     1602  1303               	bcf	3,6	;RP1=0, select bank0
  3052     1603  0836               	movf	?___flmul+3,w
  3053     1604  00D4               	movwf	___fladd@a+3
  3054     1605  0835               	movf	?___flmul+2,w
  3055     1606  00D3               	movwf	___fladd@a+2
  3056     1607  0834               	movf	?___flmul+1,w
  3057     1608  00D2               	movwf	___fladd@a+1
  3058     1609  0833               	movf	?___flmul,w
  3059     160A  00D1               	movwf	___fladd@a
  3060     160B  120A  118A  201D  160A  118A  	fcall	___fladd
  3061     1610  1283               	bcf	3,5	;RP0=0, select bank0
  3062     1611  1303               	bcf	3,6	;RP1=0, select bank0
  3063     1612  0850               	movf	?___fladd+3,w
  3064     1613  1683               	bsf	3,5	;RP0=1, select bank1
  3065     1614  1303               	bcf	3,6	;RP1=0, select bank1
  3066     1615  00A7               	movwf	(?_log+3)^(0+128)
  3067     1616  1283               	bcf	3,5	;RP0=0, select bank0
  3068     1617  1303               	bcf	3,6	;RP1=0, select bank0
  3069     1618  084F               	movf	?___fladd+2,w
  3070     1619  1683               	bsf	3,5	;RP0=1, select bank1
  3071     161A  1303               	bcf	3,6	;RP1=0, select bank1
  3072     161B  00A6               	movwf	(?_log+2)^(0+128)
  3073     161C  1283               	bcf	3,5	;RP0=0, select bank0
  3074     161D  1303               	bcf	3,6	;RP1=0, select bank0
  3075     161E  084E               	movf	?___fladd+1,w
  3076     161F  1683               	bsf	3,5	;RP0=1, select bank1
  3077     1620  1303               	bcf	3,6	;RP1=0, select bank1
  3078     1621  00A5               	movwf	(?_log+1)^(0+128)
  3079     1622  1283               	bcf	3,5	;RP0=0, select bank0
  3080     1623  1303               	bcf	3,6	;RP1=0, select bank0
  3081     1624  084D               	movf	?___fladd,w
  3082     1625  1683               	bsf	3,5	;RP0=1, select bank1
  3083     1626  1303               	bcf	3,6	;RP1=0, select bank1
  3084     1627  00A4               	movwf	?_log^(0+128)
  3085     1628                     l642:
  3086     1628  0008               	return
  3087     1629                     __end_of_log:
  3088                           
  3089                           	psect	text3
  3090     0A86                     __ptext3:	
  3091 ;; *************** function _exp *****************
  3092 ;; Defined at:
  3093 ;;		line 12 in file "C:\Program Files\Microchip\xc8\v2.40\pic\sources\c90\common\exp.c"
  3094 ;; Parameters:    Size  Location     Type
  3095 ;;  x               4   14[BANK1 ] int 
  3096 ;; Auto vars:     Size  Location     Type
  3097 ;;  exponent        2   22[BANK1 ] int 
  3098 ;;  sign            1   24[BANK1 ] unsigned char 
  3099 ;; Return value:  Size  Location     Type
  3100 ;;                  4   14[BANK1 ] unsigned char 
  3101 ;; Registers used:
  3102 ;;		wreg, fsr0l, fsr0h, status,2, status,0, btemp+1, pclath, cstack
  3103 ;; Tracked objects:
  3104 ;;		On entry : 0/0
  3105 ;;		On exit  : 0/0
  3106 ;;		Unchanged: 0/0
  3107 ;; Data sizes:     COMMON   BANK0   BANK1   BANK3   BANK2
  3108 ;;      Params:         0       0       4       0       0
  3109 ;;      Locals:         0       0       7       0       0
  3110 ;;      Temps:          0       0       0       0       0
  3111 ;;      Totals:         0       0      11       0       0
  3112 ;;Total ram usage:       11 bytes
  3113 ;; Hardware stack levels used: 1
  3114 ;; Hardware stack levels required when called: 3
  3115 ;; This function calls:
  3116 ;;		___fldiv
  3117 ;;		___fleq
  3118 ;;		___flge
  3119 ;;		___flmul
  3120 ;;		___flneg
  3121 ;;		___flsub
  3122 ;;		___fltol
  3123 ;;		___xxtofl
  3124 ;;		_eval_poly
  3125 ;;		_floor
  3126 ;;		_ldexp
  3127 ;; This function is called by:
  3128 ;;		_pow
  3129 ;; This function uses a non-reentrant model
  3130 ;;
  3131                           
  3132     0A86                     _exp:	
  3133                           ;psect for function _exp
  3134                           
  3135     0A86                     l3102:	
  3136                           ;incstack = 0
  3137                           ; Regs used in _exp: [wreg-fsr0h+status,2+status,0+btemp+1+pclath+cstack]
  3138                           
  3139     0A86  1683               	bsf	3,5	;RP0=1, select bank1
  3140     0A87  1303               	bcf	3,6	;RP1=0, select bank1
  3141     0A88  0831               	movf	(exp@x+3)^(0+128),w
  3142     0A89  1283               	bcf	3,5	;RP0=0, select bank0
  3143     0A8A  1303               	bcf	3,6	;RP1=0, select bank0
  3144     0A8B  00A3               	movwf	___fleq@ff1+3
  3145     0A8C  1683               	bsf	3,5	;RP0=1, select bank1
  3146     0A8D  1303               	bcf	3,6	;RP1=0, select bank1
  3147     0A8E  0830               	movf	(exp@x+2)^(0+128),w
  3148     0A8F  1283               	bcf	3,5	;RP0=0, select bank0
  3149     0A90  1303               	bcf	3,6	;RP1=0, select bank0
  3150     0A91  00A2               	movwf	___fleq@ff1+2
  3151     0A92  1683               	bsf	3,5	;RP0=1, select bank1
  3152     0A93  1303               	bcf	3,6	;RP1=0, select bank1
  3153     0A94  082F               	movf	(exp@x+1)^(0+128),w
  3154     0A95  1283               	bcf	3,5	;RP0=0, select bank0
  3155     0A96  1303               	bcf	3,6	;RP1=0, select bank0
  3156     0A97  00A1               	movwf	___fleq@ff1+1
  3157     0A98  1683               	bsf	3,5	;RP0=1, select bank1
  3158     0A99  1303               	bcf	3,6	;RP1=0, select bank1
  3159     0A9A  082E               	movf	exp@x^(0+128),w
  3160     0A9B  1283               	bcf	3,5	;RP0=0, select bank0
  3161     0A9C  1303               	bcf	3,6	;RP1=0, select bank0
  3162     0A9D  00A0               	movwf	___fleq@ff1
  3163     0A9E  3000               	movlw	0
  3164     0A9F  00A7               	movwf	___fleq@ff2+3
  3165     0AA0  3000               	movlw	0
  3166     0AA1  00A6               	movwf	___fleq@ff2+2
  3167     0AA2  3000               	movlw	0
  3168     0AA3  00A5               	movwf	___fleq@ff2+1
  3169     0AA4  3000               	movlw	0
  3170     0AA5  00A4               	movwf	___fleq@ff2
  3171     0AA6  160A  158A  27B0  120A  158A  	fcall	___fleq
  3172     0AAB  1C03               	btfss	3,0
  3173     0AAC  2AAE               	goto	u4891
  3174     0AAD  2AAF               	goto	u4890
  3175     0AAE                     u4891:
  3176     0AAE  2ABA               	goto	l3108
  3177     0AAF                     u4890:
  3178     0AAF                     l3104:
  3179     0AAF  303F               	movlw	63
  3180     0AB0  1683               	bsf	3,5	;RP0=1, select bank1
  3181     0AB1  1303               	bcf	3,6	;RP1=0, select bank1
  3182     0AB2  00B1               	movwf	(?_exp+3)^(0+128)
  3183     0AB3  3080               	movlw	128
  3184     0AB4  00B0               	movwf	(?_exp+2)^(0+128)
  3185     0AB5  3000               	movlw	0
  3186     0AB6  00AF               	movwf	(?_exp+1)^(0+128)
  3187     0AB7  3000               	movlw	0
  3188     0AB8  00AE               	movwf	?_exp^(0+128)
  3189     0AB9  2CBA               	goto	l594
  3190     0ABA                     l3108:
  3191     0ABA  3044               	movlw	68
  3192     0ABB  00F3               	movwf	___flge@ff1+3
  3193     0ABC  3031               	movlw	49
  3194     0ABD  00F2               	movwf	___flge@ff1+2
  3195     0ABE  3072               	movlw	114
  3196     0ABF  00F1               	movwf	___flge@ff1+1
  3197     0AC0  3018               	movlw	24
  3198     0AC1  00F0               	movwf	___flge@ff1
  3199     0AC2  1683               	bsf	3,5	;RP0=1, select bank1
  3200     0AC3  1303               	bcf	3,6	;RP1=0, select bank1
  3201     0AC4  0831               	movf	(exp@x+3)^(0+128),w
  3202     0AC5  00F7               	movwf	___flge@ff2+3
  3203     0AC6  0830               	movf	(exp@x+2)^(0+128),w
  3204     0AC7  00F6               	movwf	___flge@ff2+2
  3205     0AC8  082F               	movf	(exp@x+1)^(0+128),w
  3206     0AC9  00F5               	movwf	___flge@ff2+1
  3207     0ACA  082E               	movf	exp@x^(0+128),w
  3208     0ACB  00F4               	movwf	___flge@ff2
  3209     0ACC  120A  158A  200B  120A  158A  	fcall	___flge
  3210     0AD1  1803               	btfsc	3,0
  3211     0AD2  2AD4               	goto	u4901
  3212     0AD3  2AD5               	goto	u4900
  3213     0AD4                     u4901:
  3214     0AD4  2AE4               	goto	l3114
  3215     0AD5                     u4900:
  3216     0AD5                     l3110:
  3217     0AD5  3022               	movlw	34
  3218     0AD6  1683               	bsf	3,5	;RP0=1, select bank1
  3219     0AD7  1303               	bcf	3,6	;RP1=0, select bank1
  3220     0AD8  00D2               	movwf	_errno^(0+128)
  3221     0AD9  3000               	movlw	0
  3222     0ADA  00D3               	movwf	(_errno^(0+128)+1)
  3223     0ADB  307F               	movlw	127
  3224     0ADC  00B1               	movwf	(?_exp+3)^(0+128)
  3225     0ADD  307F               	movlw	127
  3226     0ADE  00B0               	movwf	(?_exp+2)^(0+128)
  3227     0ADF  30FF               	movlw	255
  3228     0AE0  00AF               	movwf	(?_exp+1)^(0+128)
  3229     0AE1  30FF               	movlw	255
  3230     0AE2  00AE               	movwf	?_exp^(0+128)
  3231     0AE3  2CBA               	goto	l594
  3232     0AE4                     l3114:
  3233     0AE4  1683               	bsf	3,5	;RP0=1, select bank1
  3234     0AE5  1303               	bcf	3,6	;RP1=0, select bank1
  3235     0AE6  0831               	movf	(exp@x+3)^(0+128),w
  3236     0AE7  00F3               	movwf	___flge@ff1+3
  3237     0AE8  0830               	movf	(exp@x+2)^(0+128),w
  3238     0AE9  00F2               	movwf	___flge@ff1+2
  3239     0AEA  082F               	movf	(exp@x+1)^(0+128),w
  3240     0AEB  00F1               	movwf	___flge@ff1+1
  3241     0AEC  082E               	movf	exp@x^(0+128),w
  3242     0AED  00F0               	movwf	___flge@ff1
  3243     0AEE  30C4               	movlw	196
  3244     0AEF  00F7               	movwf	___flge@ff2+3
  3245     0AF0  303A               	movlw	58
  3246     0AF1  00F6               	movwf	___flge@ff2+2
  3247     0AF2  3048               	movlw	72
  3248     0AF3  00F5               	movwf	___flge@ff2+1
  3249     0AF4  3087               	movlw	135
  3250     0AF5  00F4               	movwf	___flge@ff2
  3251     0AF6  120A  158A  200B  120A  158A  	fcall	___flge
  3252     0AFB  1803               	btfsc	3,0
  3253     0AFC  2AFE               	goto	u4911
  3254     0AFD  2AFF               	goto	u4910
  3255     0AFE                     u4911:
  3256     0AFE  2B0E               	goto	l3120
  3257     0AFF                     u4910:
  3258     0AFF                     l3116:
  3259     0AFF  3022               	movlw	34
  3260     0B00  1683               	bsf	3,5	;RP0=1, select bank1
  3261     0B01  1303               	bcf	3,6	;RP1=0, select bank1
  3262     0B02  00D2               	movwf	_errno^(0+128)
  3263     0B03  3000               	movlw	0
  3264     0B04  00D3               	movwf	(_errno^(0+128)+1)
  3265     0B05  3000               	movlw	0
  3266     0B06  00B1               	movwf	(?_exp+3)^(0+128)
  3267     0B07  3000               	movlw	0
  3268     0B08  00B0               	movwf	(?_exp+2)^(0+128)
  3269     0B09  3000               	movlw	0
  3270     0B0A  00AF               	movwf	(?_exp+1)^(0+128)
  3271     0B0B  3000               	movlw	0
  3272     0B0C  00AE               	movwf	?_exp^(0+128)
  3273     0B0D  2CBA               	goto	l594
  3274     0B0E                     l3120:
  3275     0B0E  1683               	bsf	3,5	;RP0=1, select bank1
  3276     0B0F  1303               	bcf	3,6	;RP1=0, select bank1
  3277     0B10  0831               	movf	(exp@x+3)^(0+128),w
  3278     0B11  00F3               	movwf	___flge@ff1+3
  3279     0B12  0830               	movf	(exp@x+2)^(0+128),w
  3280     0B13  00F2               	movwf	___flge@ff1+2
  3281     0B14  082F               	movf	(exp@x+1)^(0+128),w
  3282     0B15  00F1               	movwf	___flge@ff1+1
  3283     0B16  082E               	movf	exp@x^(0+128),w
  3284     0B17  00F0               	movwf	___flge@ff1
  3285     0B18  3000               	movlw	0
  3286     0B19  00F7               	movwf	___flge@ff2+3
  3287     0B1A  3000               	movlw	0
  3288     0B1B  00F6               	movwf	___flge@ff2+2
  3289     0B1C  3000               	movlw	0
  3290     0B1D  00F5               	movwf	___flge@ff2+1
  3291     0B1E  3000               	movlw	0
  3292     0B1F  00F4               	movwf	___flge@ff2
  3293     0B20  120A  158A  200B  120A  158A  	fcall	___flge
  3294     0B25  1C03               	btfss	3,0
  3295     0B26  2B28               	goto	u4921
  3296     0B27  2B2A               	goto	u4920
  3297     0B28                     u4921:
  3298     0B28  3001               	movlw	1
  3299     0B29  2B2B               	goto	u4930
  3300     0B2A                     u4920:
  3301     0B2A  3000               	movlw	0
  3302     0B2B                     u4930:
  3303     0B2B  1683               	bsf	3,5	;RP0=1, select bank1
  3304     0B2C  1303               	bcf	3,6	;RP1=0, select bank1
  3305     0B2D  00B8               	movwf	exp@sign^(0+128)
  3306     0B2E                     l3122:
  3307     0B2E  0838               	movf	exp@sign^(0+128),w
  3308     0B2F  1903               	btfsc	3,2
  3309     0B30  2B32               	goto	u4941
  3310     0B31  2B33               	goto	u4940
  3311     0B32                     u4941:
  3312     0B32  2B4A               	goto	l3126
  3313     0B33                     u4940:
  3314     0B33                     l3124:
  3315     0B33  0831               	movf	(exp@x+3)^(0+128),w
  3316     0B34  00F3               	movwf	___flneg@f1+3
  3317     0B35  0830               	movf	(exp@x+2)^(0+128),w
  3318     0B36  00F2               	movwf	___flneg@f1+2
  3319     0B37  082F               	movf	(exp@x+1)^(0+128),w
  3320     0B38  00F1               	movwf	___flneg@f1+1
  3321     0B39  082E               	movf	exp@x^(0+128),w
  3322     0B3A  00F0               	movwf	___flneg@f1
  3323     0B3B  120A  118A  2003  120A  158A  	fcall	___flneg
  3324     0B40  0873               	movf	?___flneg+3,w
  3325     0B41  1683               	bsf	3,5	;RP0=1, select bank1
  3326     0B42  1303               	bcf	3,6	;RP1=0, select bank1
  3327     0B43  00B1               	movwf	(exp@x+3)^(0+128)
  3328     0B44  0872               	movf	?___flneg+2,w
  3329     0B45  00B0               	movwf	(exp@x+2)^(0+128)
  3330     0B46  0871               	movf	?___flneg+1,w
  3331     0B47  00AF               	movwf	(exp@x+1)^(0+128)
  3332     0B48  0870               	movf	?___flneg,w
  3333     0B49  00AE               	movwf	exp@x^(0+128)
  3334     0B4A                     l3126:
  3335     0B4A  303F               	movlw	63
  3336     0B4B  1283               	bcf	3,5	;RP0=0, select bank0
  3337     0B4C  1303               	bcf	3,6	;RP1=0, select bank0
  3338     0B4D  00B6               	movwf	___flmul@b+3
  3339     0B4E  30B8               	movlw	184
  3340     0B4F  00B5               	movwf	___flmul@b+2
  3341     0B50  30AA               	movlw	170
  3342     0B51  00B4               	movwf	___flmul@b+1
  3343     0B52  303B               	movlw	59
  3344     0B53  00B3               	movwf	___flmul@b
  3345     0B54  1683               	bsf	3,5	;RP0=1, select bank1
  3346     0B55  1303               	bcf	3,6	;RP1=0, select bank1
  3347     0B56  0831               	movf	(exp@x+3)^(0+128),w
  3348     0B57  1283               	bcf	3,5	;RP0=0, select bank0
  3349     0B58  1303               	bcf	3,6	;RP1=0, select bank0
  3350     0B59  00BA               	movwf	___flmul@a+3
  3351     0B5A  1683               	bsf	3,5	;RP0=1, select bank1
  3352     0B5B  1303               	bcf	3,6	;RP1=0, select bank1
  3353     0B5C  0830               	movf	(exp@x+2)^(0+128),w
  3354     0B5D  1283               	bcf	3,5	;RP0=0, select bank0
  3355     0B5E  1303               	bcf	3,6	;RP1=0, select bank0
  3356     0B5F  00B9               	movwf	___flmul@a+2
  3357     0B60  1683               	bsf	3,5	;RP0=1, select bank1
  3358     0B61  1303               	bcf	3,6	;RP1=0, select bank1
  3359     0B62  082F               	movf	(exp@x+1)^(0+128),w
  3360     0B63  1283               	bcf	3,5	;RP0=0, select bank0
  3361     0B64  1303               	bcf	3,6	;RP1=0, select bank0
  3362     0B65  00B8               	movwf	___flmul@a+1
  3363     0B66  1683               	bsf	3,5	;RP0=1, select bank1
  3364     0B67  1303               	bcf	3,6	;RP1=0, select bank1
  3365     0B68  082E               	movf	exp@x^(0+128),w
  3366     0B69  1283               	bcf	3,5	;RP0=0, select bank0
  3367     0B6A  1303               	bcf	3,6	;RP1=0, select bank0
  3368     0B6B  00B7               	movwf	___flmul@a
  3369     0B6C  120A  158A  24BB  120A  158A  	fcall	___flmul
  3370     0B71  1283               	bcf	3,5	;RP0=0, select bank0
  3371     0B72  1303               	bcf	3,6	;RP1=0, select bank0
  3372     0B73  0836               	movf	?___flmul+3,w
  3373     0B74  1683               	bsf	3,5	;RP0=1, select bank1
  3374     0B75  1303               	bcf	3,6	;RP1=0, select bank1
  3375     0B76  00B1               	movwf	(exp@x+3)^(0+128)
  3376     0B77  1283               	bcf	3,5	;RP0=0, select bank0
  3377     0B78  1303               	bcf	3,6	;RP1=0, select bank0
  3378     0B79  0835               	movf	?___flmul+2,w
  3379     0B7A  1683               	bsf	3,5	;RP0=1, select bank1
  3380     0B7B  1303               	bcf	3,6	;RP1=0, select bank1
  3381     0B7C  00B0               	movwf	(exp@x+2)^(0+128)
  3382     0B7D  1283               	bcf	3,5	;RP0=0, select bank0
  3383     0B7E  1303               	bcf	3,6	;RP1=0, select bank0
  3384     0B7F  0834               	movf	?___flmul+1,w
  3385     0B80  1683               	bsf	3,5	;RP0=1, select bank1
  3386     0B81  1303               	bcf	3,6	;RP1=0, select bank1
  3387     0B82  00AF               	movwf	(exp@x+1)^(0+128)
  3388     0B83  1283               	bcf	3,5	;RP0=0, select bank0
  3389     0B84  1303               	bcf	3,6	;RP1=0, select bank0
  3390     0B85  0833               	movf	?___flmul,w
  3391     0B86  1683               	bsf	3,5	;RP0=1, select bank1
  3392     0B87  1303               	bcf	3,6	;RP1=0, select bank1
  3393     0B88  00AE               	movwf	exp@x^(0+128)
  3394     0B89                     l3128:
  3395     0B89  0831               	movf	(exp@x+3)^(0+128),w
  3396     0B8A  00A7               	movwf	(floor@x+3)^(0+128)
  3397     0B8B  0830               	movf	(exp@x+2)^(0+128),w
  3398     0B8C  00A6               	movwf	(floor@x+2)^(0+128)
  3399     0B8D  082F               	movf	(exp@x+1)^(0+128),w
  3400     0B8E  00A5               	movwf	(floor@x+1)^(0+128)
  3401     0B8F  082E               	movf	exp@x^(0+128),w
  3402     0B90  00A4               	movwf	floor@x^(0+128)
  3403     0B91  160A  118A  23C2  120A  158A  	fcall	_floor
  3404     0B96  1683               	bsf	3,5	;RP0=1, select bank1
  3405     0B97  1303               	bcf	3,6	;RP1=0, select bank1
  3406     0B98  0827               	movf	(?_floor+3)^(0+128),w
  3407     0B99  00B5               	movwf	(_exp$750+3)^(0+128)
  3408     0B9A  0826               	movf	(?_floor+2)^(0+128),w
  3409     0B9B  00B4               	movwf	(_exp$750+2)^(0+128)
  3410     0B9C  0825               	movf	(?_floor+1)^(0+128),w
  3411     0B9D  00B3               	movwf	(_exp$750+1)^(0+128)
  3412     0B9E  0824               	movf	?_floor^(0+128),w
  3413     0B9F  00B2               	movwf	_exp$750^(0+128)
  3414     0BA0                     l3130:
  3415     0BA0  0835               	movf	(_exp$750+3)^(0+128),w
  3416     0BA1  1283               	bcf	3,5	;RP0=0, select bank0
  3417     0BA2  1303               	bcf	3,6	;RP1=0, select bank0
  3418     0BA3  00EC               	movwf	___fltol@f1+3
  3419     0BA4  1683               	bsf	3,5	;RP0=1, select bank1
  3420     0BA5  1303               	bcf	3,6	;RP1=0, select bank1
  3421     0BA6  0834               	movf	(_exp$750+2)^(0+128),w
  3422     0BA7  1283               	bcf	3,5	;RP0=0, select bank0
  3423     0BA8  1303               	bcf	3,6	;RP1=0, select bank0
  3424     0BA9  00EB               	movwf	___fltol@f1+2
  3425     0BAA  1683               	bsf	3,5	;RP0=1, select bank1
  3426     0BAB  1303               	bcf	3,6	;RP1=0, select bank1
  3427     0BAC  0833               	movf	(_exp$750+1)^(0+128),w
  3428     0BAD  1283               	bcf	3,5	;RP0=0, select bank0
  3429     0BAE  1303               	bcf	3,6	;RP1=0, select bank0
  3430     0BAF  00EA               	movwf	___fltol@f1+1
  3431     0BB0  1683               	bsf	3,5	;RP0=1, select bank1
  3432     0BB1  1303               	bcf	3,6	;RP1=0, select bank1
  3433     0BB2  0832               	movf	_exp$750^(0+128),w
  3434     0BB3  1283               	bcf	3,5	;RP0=0, select bank0
  3435     0BB4  1303               	bcf	3,6	;RP1=0, select bank0
  3436     0BB5  00E9               	movwf	___fltol@f1
  3437     0BB6  160A  118A  20BC  120A  158A  	fcall	___fltol
  3438     0BBB  1283               	bcf	3,5	;RP0=0, select bank0
  3439     0BBC  1303               	bcf	3,6	;RP1=0, select bank0
  3440     0BBD  086A               	movf	?___fltol+1,w
  3441     0BBE  1683               	bsf	3,5	;RP0=1, select bank1
  3442     0BBF  1303               	bcf	3,6	;RP1=0, select bank1
  3443     0BC0  00B7               	movwf	(exp@exponent+1)^(0+128)
  3444     0BC1  1283               	bcf	3,5	;RP0=0, select bank0
  3445     0BC2  1303               	bcf	3,6	;RP1=0, select bank0
  3446     0BC3  0869               	movf	?___fltol,w
  3447     0BC4  1683               	bsf	3,5	;RP0=1, select bank1
  3448     0BC5  1303               	bcf	3,6	;RP1=0, select bank1
  3449     0BC6  00B6               	movwf	exp@exponent^(0+128)
  3450     0BC7                     l3132:
  3451     0BC7  0836               	movf	exp@exponent^(0+128),w
  3452     0BC8  00F0               	movwf	___xxtofl@val
  3453     0BC9  0837               	movf	(exp@exponent+1)^(0+128),w
  3454     0BCA  00F1               	movwf	___xxtofl@val+1
  3455     0BCB  3000               	movlw	0
  3456     0BCC  1BF1               	btfsc	___xxtofl@val+1,7
  3457     0BCD  30FF               	movlw	255
  3458     0BCE  00F2               	movwf	___xxtofl@val+2
  3459     0BCF  00F3               	movwf	___xxtofl@val+3
  3460     0BD0  3001               	movlw	1
  3461     0BD1  160A  118A  2150  120A  158A  	fcall	___xxtofl
  3462     0BD6  0873               	movf	?___xxtofl+3,w
  3463     0BD7  1283               	bcf	3,5	;RP0=0, select bank0
  3464     0BD8  1303               	bcf	3,6	;RP1=0, select bank0
  3465     0BD9  00E4               	movwf	___flsub@a+3
  3466     0BDA  0872               	movf	?___xxtofl+2,w
  3467     0BDB  00E3               	movwf	___flsub@a+2
  3468     0BDC  0871               	movf	?___xxtofl+1,w
  3469     0BDD  00E2               	movwf	___flsub@a+1
  3470     0BDE  0870               	movf	?___xxtofl,w
  3471     0BDF  00E1               	movwf	___flsub@a
  3472     0BE0  1683               	bsf	3,5	;RP0=1, select bank1
  3473     0BE1  1303               	bcf	3,6	;RP1=0, select bank1
  3474     0BE2  0831               	movf	(exp@x+3)^(0+128),w
  3475     0BE3  1283               	bcf	3,5	;RP0=0, select bank0
  3476     0BE4  1303               	bcf	3,6	;RP1=0, select bank0
  3477     0BE5  00E8               	movwf	___flsub@b+3
  3478     0BE6  1683               	bsf	3,5	;RP0=1, select bank1
  3479     0BE7  1303               	bcf	3,6	;RP1=0, select bank1
  3480     0BE8  0830               	movf	(exp@x+2)^(0+128),w
  3481     0BE9  1283               	bcf	3,5	;RP0=0, select bank0
  3482     0BEA  1303               	bcf	3,6	;RP1=0, select bank0
  3483     0BEB  00E7               	movwf	___flsub@b+2
  3484     0BEC  1683               	bsf	3,5	;RP0=1, select bank1
  3485     0BED  1303               	bcf	3,6	;RP1=0, select bank1
  3486     0BEE  082F               	movf	(exp@x+1)^(0+128),w
  3487     0BEF  1283               	bcf	3,5	;RP0=0, select bank0
  3488     0BF0  1303               	bcf	3,6	;RP1=0, select bank0
  3489     0BF1  00E6               	movwf	___flsub@b+1
  3490     0BF2  1683               	bsf	3,5	;RP0=1, select bank1
  3491     0BF3  1303               	bcf	3,6	;RP1=0, select bank1
  3492     0BF4  082E               	movf	exp@x^(0+128),w
  3493     0BF5  1283               	bcf	3,5	;RP0=0, select bank0
  3494     0BF6  1303               	bcf	3,6	;RP1=0, select bank0
  3495     0BF7  00E5               	movwf	___flsub@b
  3496     0BF8  160A  158A  2765  120A  158A  	fcall	___flsub
  3497     0BFD  1283               	bcf	3,5	;RP0=0, select bank0
  3498     0BFE  1303               	bcf	3,6	;RP1=0, select bank0
  3499     0BFF  0864               	movf	?___flsub+3,w
  3500     0C00  1683               	bsf	3,5	;RP0=1, select bank1
  3501     0C01  1303               	bcf	3,6	;RP1=0, select bank1
  3502     0C02  00B1               	movwf	(exp@x+3)^(0+128)
  3503     0C03  1283               	bcf	3,5	;RP0=0, select bank0
  3504     0C04  1303               	bcf	3,6	;RP1=0, select bank0
  3505     0C05  0863               	movf	?___flsub+2,w
  3506     0C06  1683               	bsf	3,5	;RP0=1, select bank1
  3507     0C07  1303               	bcf	3,6	;RP1=0, select bank1
  3508     0C08  00B0               	movwf	(exp@x+2)^(0+128)
  3509     0C09  1283               	bcf	3,5	;RP0=0, select bank0
  3510     0C0A  1303               	bcf	3,6	;RP1=0, select bank0
  3511     0C0B  0862               	movf	?___flsub+1,w
  3512     0C0C  1683               	bsf	3,5	;RP0=1, select bank1
  3513     0C0D  1303               	bcf	3,6	;RP1=0, select bank1
  3514     0C0E  00AF               	movwf	(exp@x+1)^(0+128)
  3515     0C0F  1283               	bcf	3,5	;RP0=0, select bank0
  3516     0C10  1303               	bcf	3,6	;RP1=0, select bank0
  3517     0C11  0861               	movf	?___flsub,w
  3518     0C12  1683               	bsf	3,5	;RP0=1, select bank1
  3519     0C13  1303               	bcf	3,6	;RP1=0, select bank1
  3520     0C14  00AE               	movwf	exp@x^(0+128)
  3521     0C15                     l3134:
  3522     0C15  0831               	movf	(exp@x+3)^(0+128),w
  3523     0C16  1283               	bcf	3,5	;RP0=0, select bank0
  3524     0C17  1303               	bcf	3,6	;RP1=0, select bank0
  3525     0C18  00E4               	movwf	eval_poly@x+3
  3526     0C19  1683               	bsf	3,5	;RP0=1, select bank1
  3527     0C1A  1303               	bcf	3,6	;RP1=0, select bank1
  3528     0C1B  0830               	movf	(exp@x+2)^(0+128),w
  3529     0C1C  1283               	bcf	3,5	;RP0=0, select bank0
  3530     0C1D  1303               	bcf	3,6	;RP1=0, select bank0
  3531     0C1E  00E3               	movwf	eval_poly@x+2
  3532     0C1F  1683               	bsf	3,5	;RP0=1, select bank1
  3533     0C20  1303               	bcf	3,6	;RP1=0, select bank1
  3534     0C21  082F               	movf	(exp@x+1)^(0+128),w
  3535     0C22  1283               	bcf	3,5	;RP0=0, select bank0
  3536     0C23  1303               	bcf	3,6	;RP1=0, select bank0
  3537     0C24  00E2               	movwf	eval_poly@x+1
  3538     0C25  1683               	bsf	3,5	;RP0=1, select bank1
  3539     0C26  1303               	bcf	3,6	;RP1=0, select bank1
  3540     0C27  082E               	movf	exp@x^(0+128),w
  3541     0C28  1283               	bcf	3,5	;RP0=0, select bank0
  3542     0C29  1303               	bcf	3,6	;RP1=0, select bank0
  3543     0C2A  00E1               	movwf	eval_poly@x
  3544     0C2B  3001               	movlw	(low ((exp@coeff-__stringbase)| (0+32768)))& (0+255)
  3545     0C2C  00E5               	movwf	eval_poly@d
  3546     0C2D  3009               	movlw	9
  3547     0C2E  00E6               	movwf	eval_poly@n
  3548     0C2F  3000               	movlw	0
  3549     0C30  00E7               	movwf	eval_poly@n+1
  3550     0C31  160A  118A  2208  120A  158A  	fcall	_eval_poly
  3551     0C36  1283               	bcf	3,5	;RP0=0, select bank0
  3552     0C37  1303               	bcf	3,6	;RP1=0, select bank0
  3553     0C38  0864               	movf	?_eval_poly+3,w
  3554     0C39  1683               	bsf	3,5	;RP0=1, select bank1
  3555     0C3A  1303               	bcf	3,6	;RP1=0, select bank1
  3556     0C3B  00A7               	movwf	(ldexp@value+3)^(0+128)
  3557     0C3C  1283               	bcf	3,5	;RP0=0, select bank0
  3558     0C3D  1303               	bcf	3,6	;RP1=0, select bank0
  3559     0C3E  0863               	movf	?_eval_poly+2,w
  3560     0C3F  1683               	bsf	3,5	;RP0=1, select bank1
  3561     0C40  1303               	bcf	3,6	;RP1=0, select bank1
  3562     0C41  00A6               	movwf	(ldexp@value+2)^(0+128)
  3563     0C42  1283               	bcf	3,5	;RP0=0, select bank0
  3564     0C43  1303               	bcf	3,6	;RP1=0, select bank0
  3565     0C44  0862               	movf	?_eval_poly+1,w
  3566     0C45  1683               	bsf	3,5	;RP0=1, select bank1
  3567     0C46  1303               	bcf	3,6	;RP1=0, select bank1
  3568     0C47  00A5               	movwf	(ldexp@value+1)^(0+128)
  3569     0C48  1283               	bcf	3,5	;RP0=0, select bank0
  3570     0C49  1303               	bcf	3,6	;RP1=0, select bank0
  3571     0C4A  0861               	movf	?_eval_poly,w
  3572     0C4B  1683               	bsf	3,5	;RP0=1, select bank1
  3573     0C4C  1303               	bcf	3,6	;RP1=0, select bank1
  3574     0C4D  00A4               	movwf	ldexp@value^(0+128)
  3575     0C4E  0837               	movf	(exp@exponent+1)^(0+128),w
  3576     0C4F  00A9               	movwf	(ldexp@newexp+1)^(0+128)
  3577     0C50  0836               	movf	exp@exponent^(0+128),w
  3578     0C51  00A8               	movwf	ldexp@newexp^(0+128)
  3579     0C52  160A  118A  22E4  120A  158A  	fcall	_ldexp
  3580     0C57  1683               	bsf	3,5	;RP0=1, select bank1
  3581     0C58  1303               	bcf	3,6	;RP1=0, select bank1
  3582     0C59  0827               	movf	(?_ldexp+3)^(0+128),w
  3583     0C5A  00B1               	movwf	(exp@x+3)^(0+128)
  3584     0C5B  0826               	movf	(?_ldexp+2)^(0+128),w
  3585     0C5C  00B0               	movwf	(exp@x+2)^(0+128)
  3586     0C5D  0825               	movf	(?_ldexp+1)^(0+128),w
  3587     0C5E  00AF               	movwf	(exp@x+1)^(0+128)
  3588     0C5F  0824               	movf	?_ldexp^(0+128),w
  3589     0C60  00AE               	movwf	exp@x^(0+128)
  3590     0C61                     l3136:
  3591     0C61  0838               	movf	exp@sign^(0+128),w
  3592     0C62  1903               	btfsc	3,2
  3593     0C63  2C65               	goto	u4951
  3594     0C64  2C66               	goto	u4950
  3595     0C65                     u4951:
  3596     0C65  2CBA               	goto	l598
  3597     0C66                     u4950:
  3598     0C66                     l3138:
  3599     0C66  0831               	movf	(exp@x+3)^(0+128),w
  3600     0C67  1283               	bcf	3,5	;RP0=0, select bank0
  3601     0C68  1303               	bcf	3,6	;RP1=0, select bank0
  3602     0C69  00A3               	movwf	___fleq@ff1+3
  3603     0C6A  1683               	bsf	3,5	;RP0=1, select bank1
  3604     0C6B  1303               	bcf	3,6	;RP1=0, select bank1
  3605     0C6C  0830               	movf	(exp@x+2)^(0+128),w
  3606     0C6D  1283               	bcf	3,5	;RP0=0, select bank0
  3607     0C6E  1303               	bcf	3,6	;RP1=0, select bank0
  3608     0C6F  00A2               	movwf	___fleq@ff1+2
  3609     0C70  1683               	bsf	3,5	;RP0=1, select bank1
  3610     0C71  1303               	bcf	3,6	;RP1=0, select bank1
  3611     0C72  082F               	movf	(exp@x+1)^(0+128),w
  3612     0C73  1283               	bcf	3,5	;RP0=0, select bank0
  3613     0C74  1303               	bcf	3,6	;RP1=0, select bank0
  3614     0C75  00A1               	movwf	___fleq@ff1+1
  3615     0C76  1683               	bsf	3,5	;RP0=1, select bank1
  3616     0C77  1303               	bcf	3,6	;RP1=0, select bank1
  3617     0C78  082E               	movf	exp@x^(0+128),w
  3618     0C79  1283               	bcf	3,5	;RP0=0, select bank0
  3619     0C7A  1303               	bcf	3,6	;RP1=0, select bank0
  3620     0C7B  00A0               	movwf	___fleq@ff1
  3621     0C7C  307F               	movlw	127
  3622     0C7D  00A7               	movwf	___fleq@ff2+3
  3623     0C7E  307F               	movlw	127
  3624     0C7F  00A6               	movwf	___fleq@ff2+2
  3625     0C80  30FF               	movlw	255
  3626     0C81  00A5               	movwf	___fleq@ff2+1
  3627     0C82  30FF               	movlw	255
  3628     0C83  00A4               	movwf	___fleq@ff2
  3629     0C84  160A  158A  27B0  120A  158A  	fcall	___fleq
  3630     0C89  1C03               	btfss	3,0
  3631     0C8A  2C8C               	goto	u4961
  3632     0C8B  2C8D               	goto	u4960
  3633     0C8C                     u4961:
  3634     0C8C  2C98               	goto	l3144
  3635     0C8D                     u4960:
  3636     0C8D                     l3140:
  3637     0C8D  3000               	movlw	0
  3638     0C8E  1683               	bsf	3,5	;RP0=1, select bank1
  3639     0C8F  1303               	bcf	3,6	;RP1=0, select bank1
  3640     0C90  00B1               	movwf	(?_exp+3)^(0+128)
  3641     0C91  3000               	movlw	0
  3642     0C92  00B0               	movwf	(?_exp+2)^(0+128)
  3643     0C93  3000               	movlw	0
  3644     0C94  00AF               	movwf	(?_exp+1)^(0+128)
  3645     0C95  3000               	movlw	0
  3646     0C96  00AE               	movwf	?_exp^(0+128)
  3647     0C97  2CBA               	goto	l594
  3648     0C98                     l3144:
  3649     0C98  1683               	bsf	3,5	;RP0=1, select bank1
  3650     0C99  1303               	bcf	3,6	;RP1=0, select bank1
  3651     0C9A  0831               	movf	(exp@x+3)^(0+128),w
  3652     0C9B  00F3               	movwf	___fldiv@a+3
  3653     0C9C  0830               	movf	(exp@x+2)^(0+128),w
  3654     0C9D  00F2               	movwf	___fldiv@a+2
  3655     0C9E  082F               	movf	(exp@x+1)^(0+128),w
  3656     0C9F  00F1               	movwf	___fldiv@a+1
  3657     0CA0  082E               	movf	exp@x^(0+128),w
  3658     0CA1  00F0               	movwf	___fldiv@a
  3659     0CA2  303F               	movlw	63
  3660     0CA3  00F7               	movwf	___fldiv@b+3
  3661     0CA4  3080               	movlw	128
  3662     0CA5  00F6               	movwf	___fldiv@b+2
  3663     0CA6  3000               	movlw	0
  3664     0CA7  00F5               	movwf	___fldiv@b+1
  3665     0CA8  3000               	movlw	0
  3666     0CA9  00F4               	movwf	___fldiv@b
  3667     0CAA  120A  158A  20AD  120A  158A  	fcall	___fldiv
  3668     0CAF  0873               	movf	?___fldiv+3,w
  3669     0CB0  1683               	bsf	3,5	;RP0=1, select bank1
  3670     0CB1  1303               	bcf	3,6	;RP1=0, select bank1
  3671     0CB2  00B1               	movwf	(?_exp+3)^(0+128)
  3672     0CB3  0872               	movf	?___fldiv+2,w
  3673     0CB4  00B0               	movwf	(?_exp+2)^(0+128)
  3674     0CB5  0871               	movf	?___fldiv+1,w
  3675     0CB6  00AF               	movwf	(?_exp+1)^(0+128)
  3676     0CB7  0870               	movf	?___fldiv,w
  3677     0CB8  00AE               	movwf	?_exp^(0+128)
  3678     0CB9  2CBA               	goto	l594
  3679     0CBA                     l598:
  3680     0CBA                     l594:
  3681     0CBA  0008               	return
  3682     0CBB                     __end_of_exp:
  3683                           
  3684                           	psect	text4
  3685     12E4                     __ptext4:	
  3686 ;; *************** function _ldexp *****************
  3687 ;; Defined at:
  3688 ;;		line 277 in file "C:\Program Files\Microchip\xc8\v2.40\pic\sources\c90\common\frexp.c"
  3689 ;; Parameters:    Size  Location     Type
  3690 ;;  value           4    4[BANK1 ] unsigned char 
  3691 ;;  newexp          2    8[BANK1 ] int 
  3692 ;; Auto vars:     Size  Location     Type
  3693 ;;		None
  3694 ;; Return value:  Size  Location     Type
  3695 ;;                  4    4[BANK1 ] int 
  3696 ;; Registers used:
  3697 ;;		wreg, status,2, status,0, btemp+1, pclath, cstack
  3698 ;; Tracked objects:
  3699 ;;		On entry : 0/0
  3700 ;;		On exit  : 0/0
  3701 ;;		Unchanged: 0/0
  3702 ;; Data sizes:     COMMON   BANK0   BANK1   BANK3   BANK2
  3703 ;;      Params:         0       0       6       0       0
  3704 ;;      Locals:         0       0       0       0       0
  3705 ;;      Temps:          0       2       0       0       0
  3706 ;;      Totals:         0       2       6       0       0
  3707 ;;Total ram usage:        8 bytes
  3708 ;; Hardware stack levels used: 1
  3709 ;; Hardware stack levels required when called: 1
  3710 ;; This function calls:
  3711 ;;		___fleq
  3712 ;;		___flge
  3713 ;; This function is called by:
  3714 ;;		_exp
  3715 ;; This function uses a non-reentrant model
  3716 ;;
  3717                           
  3718     12E4                     _ldexp:	
  3719                           ;psect for function _ldexp
  3720                           
  3721     12E4                     l3042:	
  3722                           ;incstack = 0
  3723                           ; Regs used in _ldexp: [wreg+status,2+status,0+btemp+1+pclath+cstack]
  3724                           
  3725     12E4  1683               	bsf	3,5	;RP0=1, select bank1
  3726     12E5  1303               	bcf	3,6	;RP1=0, select bank1
  3727     12E6  0827               	movf	(ldexp@value+3)^(0+128),w
  3728     12E7  1283               	bcf	3,5	;RP0=0, select bank0
  3729     12E8  1303               	bcf	3,6	;RP1=0, select bank0
  3730     12E9  00A3               	movwf	___fleq@ff1+3
  3731     12EA  1683               	bsf	3,5	;RP0=1, select bank1
  3732     12EB  1303               	bcf	3,6	;RP1=0, select bank1
  3733     12EC  0826               	movf	(ldexp@value+2)^(0+128),w
  3734     12ED  1283               	bcf	3,5	;RP0=0, select bank0
  3735     12EE  1303               	bcf	3,6	;RP1=0, select bank0
  3736     12EF  00A2               	movwf	___fleq@ff1+2
  3737     12F0  1683               	bsf	3,5	;RP0=1, select bank1
  3738     12F1  1303               	bcf	3,6	;RP1=0, select bank1
  3739     12F2  0825               	movf	(ldexp@value+1)^(0+128),w
  3740     12F3  1283               	bcf	3,5	;RP0=0, select bank0
  3741     12F4  1303               	bcf	3,6	;RP1=0, select bank0
  3742     12F5  00A1               	movwf	___fleq@ff1+1
  3743     12F6  1683               	bsf	3,5	;RP0=1, select bank1
  3744     12F7  1303               	bcf	3,6	;RP1=0, select bank1
  3745     12F8  0824               	movf	ldexp@value^(0+128),w
  3746     12F9  1283               	bcf	3,5	;RP0=0, select bank0
  3747     12FA  1303               	bcf	3,6	;RP1=0, select bank0
  3748     12FB  00A0               	movwf	___fleq@ff1
  3749     12FC  3000               	movlw	0
  3750     12FD  00A7               	movwf	___fleq@ff2+3
  3751     12FE  3000               	movlw	0
  3752     12FF  00A6               	movwf	___fleq@ff2+2
  3753     1300  3000               	movlw	0
  3754     1301  00A5               	movwf	___fleq@ff2+1
  3755     1302  3000               	movlw	0
  3756     1303  00A4               	movwf	___fleq@ff2
  3757     1304  160A  158A  27B0  160A  118A  	fcall	___fleq
  3758     1309  1C03               	btfss	3,0
  3759     130A  2B0C               	goto	u4831
  3760     130B  2B0D               	goto	u4830
  3761     130C                     u4831:
  3762     130C  2B18               	goto	l3048
  3763     130D                     u4830:
  3764     130D                     l3044:
  3765     130D  3000               	movlw	0
  3766     130E  1683               	bsf	3,5	;RP0=1, select bank1
  3767     130F  1303               	bcf	3,6	;RP1=0, select bank1
  3768     1310  00A7               	movwf	(?_ldexp+3)^(0+128)
  3769     1311  3000               	movlw	0
  3770     1312  00A6               	movwf	(?_ldexp+2)^(0+128)
  3771     1313  3000               	movlw	0
  3772     1314  00A5               	movwf	(?_ldexp+1)^(0+128)
  3773     1315  3000               	movlw	0
  3774     1316  00A4               	movwf	?_ldexp^(0+128)
  3775     1317  2BC1               	goto	l624
  3776     1318                     l3048:
  3777     1318  1683               	bsf	3,5	;RP0=1, select bank1
  3778     1319  1303               	bcf	3,6	;RP1=0, select bank1
  3779     131A  0827               	movf	(ldexp@value^(0+128)+3),w
  3780     131B  397F               	andlw	127
  3781     131C  1283               	bcf	3,5	;RP0=0, select bank0
  3782     131D  1303               	bcf	3,6	;RP1=0, select bank0
  3783     131E  00ED               	movwf	??_ldexp
  3784     131F  01EE               	clrf	??_ldexp+1
  3785     1320  1003               	clrc
  3786     1321  0DED               	rlf	??_ldexp,f
  3787     1322  0DEE               	rlf	??_ldexp+1,f
  3788     1323  086D               	movf	??_ldexp,w
  3789     1324  1683               	bsf	3,5	;RP0=1, select bank1
  3790     1325  1303               	bcf	3,6	;RP1=0, select bank1
  3791     1326  07A8               	addwf	ldexp@newexp^(0+128),f
  3792     1327  1803               	skipnc
  3793     1328  0AA9               	incf	(ldexp@newexp+1)^(0+128),f
  3794     1329  1283               	bcf	3,5	;RP0=0, select bank0
  3795     132A  1303               	bcf	3,6	;RP1=0, select bank0
  3796     132B  086E               	movf	??_ldexp+1,w
  3797     132C  1683               	bsf	3,5	;RP0=1, select bank1
  3798     132D  1303               	bcf	3,6	;RP1=0, select bank1
  3799     132E  07A9               	addwf	(ldexp@newexp+1)^(0+128),f
  3800     132F  0D26               	rlf	(ldexp@value^(0+128)+2),w
  3801     1330  0D26               	rlf	(ldexp@value^(0+128)+2),w
  3802     1331  3901               	andlw	1
  3803     1332  1283               	bcf	3,5	;RP0=0, select bank0
  3804     1333  1303               	bcf	3,6	;RP1=0, select bank0
  3805     1334  00ED               	movwf	??_ldexp
  3806     1335  01EE               	clrf	??_ldexp+1
  3807     1336  086D               	movf	??_ldexp,w
  3808     1337  1683               	bsf	3,5	;RP0=1, select bank1
  3809     1338  1303               	bcf	3,6	;RP1=0, select bank1
  3810     1339  07A8               	addwf	ldexp@newexp^(0+128),f
  3811     133A  1803               	skipnc
  3812     133B  0AA9               	incf	(ldexp@newexp+1)^(0+128),f
  3813     133C  1283               	bcf	3,5	;RP0=0, select bank0
  3814     133D  1303               	bcf	3,6	;RP1=0, select bank0
  3815     133E  086E               	movf	??_ldexp+1,w
  3816     133F  1683               	bsf	3,5	;RP0=1, select bank1
  3817     1340  1303               	bcf	3,6	;RP1=0, select bank1
  3818     1341  07A9               	addwf	(ldexp@newexp+1)^(0+128),f
  3819     1342                     l3050:
  3820     1342  1FA9               	btfss	(ldexp@newexp+1)^(0+128),7
  3821     1343  2B45               	goto	u4841
  3822     1344  2B46               	goto	u4840
  3823     1345                     u4841:
  3824     1345  2B53               	goto	l3058
  3825     1346                     u4840:
  3826     1346                     l3052:
  3827     1346  3022               	movlw	34
  3828     1347  00D2               	movwf	_errno^(0+128)
  3829     1348  3000               	movlw	0
  3830     1349  00D3               	movwf	(_errno^(0+128)+1)
  3831     134A  3000               	movlw	0
  3832     134B  00A7               	movwf	(?_ldexp+3)^(0+128)
  3833     134C  3000               	movlw	0
  3834     134D  00A6               	movwf	(?_ldexp+2)^(0+128)
  3835     134E  3000               	movlw	0
  3836     134F  00A5               	movwf	(?_ldexp+1)^(0+128)
  3837     1350  3000               	movlw	0
  3838     1351  00A4               	movwf	?_ldexp^(0+128)
  3839     1352  2BC1               	goto	l624
  3840     1353                     l3058:
  3841     1353  0829               	movf	(ldexp@newexp+1)^(0+128),w
  3842     1354  3A80               	xorlw	128
  3843     1355  00FF               	movwf	btemp+1
  3844     1356  3081               	movlw	129
  3845     1357  027F               	subwf	btemp+1,w
  3846     1358  1D03               	skipz
  3847     1359  2B5C               	goto	u4855
  3848     135A  3000               	movlw	0
  3849     135B  0228               	subwf	ldexp@newexp^(0+128),w
  3850     135C                     u4855:
  3851     135C  1C03               	skipc
  3852     135D  2B5F               	goto	u4851
  3853     135E  2B60               	goto	u4850
  3854     135F                     u4851:
  3855     135F  2B95               	goto	l3074
  3856     1360                     u4850:
  3857     1360                     l3060:
  3858     1360  3022               	movlw	34
  3859     1361  1683               	bsf	3,5	;RP0=1, select bank1
  3860     1362  1303               	bcf	3,6	;RP1=0, select bank1
  3861     1363  00D2               	movwf	_errno^(0+128)
  3862     1364  3000               	movlw	0
  3863     1365  00D3               	movwf	(_errno^(0+128)+1)
  3864     1366                     l3062:
  3865     1366  0827               	movf	(ldexp@value+3)^(0+128),w
  3866     1367  00F3               	movwf	___flge@ff1+3
  3867     1368  0826               	movf	(ldexp@value+2)^(0+128),w
  3868     1369  00F2               	movwf	___flge@ff1+2
  3869     136A  0825               	movf	(ldexp@value+1)^(0+128),w
  3870     136B  00F1               	movwf	___flge@ff1+1
  3871     136C  0824               	movf	ldexp@value^(0+128),w
  3872     136D  00F0               	movwf	___flge@ff1
  3873     136E  3000               	movlw	0
  3874     136F  00F7               	movwf	___flge@ff2+3
  3875     1370  3000               	movlw	0
  3876     1371  00F6               	movwf	___flge@ff2+2
  3877     1372  3000               	movlw	0
  3878     1373  00F5               	movwf	___flge@ff2+1
  3879     1374  3000               	movlw	0
  3880     1375  00F4               	movwf	___flge@ff2
  3881     1376  120A  158A  200B  160A  118A  	fcall	___flge
  3882     137B  1803               	btfsc	3,0
  3883     137C  2B7E               	goto	u4861
  3884     137D  2B7F               	goto	u4860
  3885     137E                     u4861:
  3886     137E  2B8A               	goto	l3070
  3887     137F                     u4860:
  3888     137F                     l3064:
  3889     137F  30FF               	movlw	255
  3890     1380  1683               	bsf	3,5	;RP0=1, select bank1
  3891     1381  1303               	bcf	3,6	;RP1=0, select bank1
  3892     1382  00A7               	movwf	(?_ldexp+3)^(0+128)
  3893     1383  307F               	movlw	127
  3894     1384  00A6               	movwf	(?_ldexp+2)^(0+128)
  3895     1385  30FF               	movlw	255
  3896     1386  00A5               	movwf	(?_ldexp+1)^(0+128)
  3897     1387  30FF               	movlw	255
  3898     1388  00A4               	movwf	?_ldexp^(0+128)
  3899     1389  2BC1               	goto	l624
  3900     138A                     l3070:
  3901     138A  307F               	movlw	127
  3902     138B  1683               	bsf	3,5	;RP0=1, select bank1
  3903     138C  1303               	bcf	3,6	;RP1=0, select bank1
  3904     138D  00A7               	movwf	(?_ldexp+3)^(0+128)
  3905     138E  307F               	movlw	127
  3906     138F  00A6               	movwf	(?_ldexp+2)^(0+128)
  3907     1390  30FF               	movlw	255
  3908     1391  00A5               	movwf	(?_ldexp+1)^(0+128)
  3909     1392  30FF               	movlw	255
  3910     1393  00A4               	movwf	?_ldexp^(0+128)
  3911     1394  2BC1               	goto	l624
  3912     1395                     l3074:
  3913     1395  1683               	bsf	3,5	;RP0=1, select bank1
  3914     1396  1303               	bcf	3,6	;RP1=0, select bank1
  3915     1397  0829               	movf	(ldexp@newexp+1)^(0+128),w
  3916     1398  1283               	bcf	3,5	;RP0=0, select bank0
  3917     1399  1303               	bcf	3,6	;RP1=0, select bank0
  3918     139A  00EE               	movwf	??_ldexp+1
  3919     139B  1683               	bsf	3,5	;RP0=1, select bank1
  3920     139C  1303               	bcf	3,6	;RP1=0, select bank1
  3921     139D  0828               	movf	ldexp@newexp^(0+128),w
  3922     139E  1283               	bcf	3,5	;RP0=0, select bank0
  3923     139F  1303               	bcf	3,6	;RP1=0, select bank0
  3924     13A0  00ED               	movwf	??_ldexp
  3925     13A1  0D6E               	rlf	??_ldexp+1,w
  3926     13A2  0CEE               	rrf	??_ldexp+1,f
  3927     13A3  0CED               	rrf	??_ldexp,f
  3928     13A4  1683               	bsf	3,5	;RP0=1, select bank1
  3929     13A5  1303               	bcf	3,6	;RP1=0, select bank1
  3930     13A6  0827               	movf	(ldexp@value^(0+128)+3),w
  3931     13A7  1283               	bcf	3,5	;RP0=0, select bank0
  3932     13A8  1303               	bcf	3,6	;RP1=0, select bank0
  3933     13A9  066D               	xorwf	??_ldexp,w
  3934     13AA  3980               	andlw	-128
  3935     13AB  066D               	xorwf	??_ldexp,w
  3936     13AC  1683               	bsf	3,5	;RP0=1, select bank1
  3937     13AD  1303               	bcf	3,6	;RP1=0, select bank1
  3938     13AE  00A7               	movwf	(ldexp@value^(0+128)+3)
  3939     13AF  0828               	movf	ldexp@newexp^(0+128),w
  3940     13B0  3901               	andlw	1
  3941     13B1  1283               	bcf	3,5	;RP0=0, select bank0
  3942     13B2  1303               	bcf	3,6	;RP1=0, select bank0
  3943     13B3  00ED               	movwf	??_ldexp
  3944     13B4  0CED               	rrf	??_ldexp,f
  3945     13B5  0CED               	rrf	??_ldexp,f
  3946     13B6  1683               	bsf	3,5	;RP0=1, select bank1
  3947     13B7  1303               	bcf	3,6	;RP1=0, select bank1
  3948     13B8  0826               	movf	(ldexp@value^(0+128)+2),w
  3949     13B9  1283               	bcf	3,5	;RP0=0, select bank0
  3950     13BA  1303               	bcf	3,6	;RP1=0, select bank0
  3951     13BB  066D               	xorwf	??_ldexp,w
  3952     13BC  397F               	andlw	-129
  3953     13BD  066D               	xorwf	??_ldexp,w
  3954     13BE  1683               	bsf	3,5	;RP0=1, select bank1
  3955     13BF  1303               	bcf	3,6	;RP1=0, select bank1
  3956     13C0  00A6               	movwf	(ldexp@value^(0+128)+2)
  3957     13C1                     l3076:
  3958     13C1                     l624:
  3959     13C1  0008               	return
  3960     13C2                     __end_of_ldexp:
  3961                           
  3962                           	psect	text5
  3963     13C2                     __ptext5:	
  3964 ;; *************** function _floor *****************
  3965 ;; Defined at:
  3966 ;;		line 13 in file "C:\Program Files\Microchip\xc8\v2.40\pic\sources\c90\common\floor.c"
  3967 ;; Parameters:    Size  Location     Type
  3968 ;;  x               4    4[BANK1 ] int 
  3969 ;; Auto vars:     Size  Location     Type
  3970 ;;  i               4    8[BANK1 ] int 
  3971 ;;  expon           2   12[BANK1 ] int 
  3972 ;; Return value:  Size  Location     Type
  3973 ;;                  4    4[BANK1 ] int 
  3974 ;; Registers used:
  3975 ;;		wreg, fsr0l, fsr0h, status,2, status,0, btemp+1, pclath, cstack
  3976 ;; Tracked objects:
  3977 ;;		On entry : 0/0
  3978 ;;		On exit  : 0/0
  3979 ;;		Unchanged: 0/0
  3980 ;; Data sizes:     COMMON   BANK0   BANK1   BANK3   BANK2
  3981 ;;      Params:         0       0       4       0       0
  3982 ;;      Locals:         0       0       6       0       0
  3983 ;;      Temps:          0       0       0       0       0
  3984 ;;      Totals:         0       0      10       0       0
  3985 ;;Total ram usage:       10 bytes
  3986 ;; Hardware stack levels used: 1
  3987 ;; Hardware stack levels required when called: 2
  3988 ;; This function calls:
  3989 ;;		___fladd
  3990 ;;		___flge
  3991 ;;		___fltol
  3992 ;;		___xxtofl
  3993 ;;		_frexp
  3994 ;; This function is called by:
  3995 ;;		_exp
  3996 ;; This function uses a non-reentrant model
  3997 ;;
  3998                           
  3999     13C2                     _floor:	
  4000                           ;psect for function _floor
  4001                           
  4002     13C2                     l3004:	
  4003                           ;incstack = 0
  4004                           ; Regs used in _floor: [wreg-fsr0h+status,2+status,0+btemp+1+pclath+cstack]
  4005                           
  4006     13C2  1683               	bsf	3,5	;RP0=1, select bank1
  4007     13C3  1303               	bcf	3,6	;RP1=0, select bank1
  4008     13C4  0827               	movf	(floor@x+3)^(0+128),w
  4009     13C5  1283               	bcf	3,5	;RP0=0, select bank0
  4010     13C6  1303               	bcf	3,6	;RP1=0, select bank0
  4011     13C7  00AF               	movwf	frexp@value+3
  4012     13C8  1683               	bsf	3,5	;RP0=1, select bank1
  4013     13C9  1303               	bcf	3,6	;RP1=0, select bank1
  4014     13CA  0826               	movf	(floor@x+2)^(0+128),w
  4015     13CB  1283               	bcf	3,5	;RP0=0, select bank0
  4016     13CC  1303               	bcf	3,6	;RP1=0, select bank0
  4017     13CD  00AE               	movwf	frexp@value+2
  4018     13CE  1683               	bsf	3,5	;RP0=1, select bank1
  4019     13CF  1303               	bcf	3,6	;RP1=0, select bank1
  4020     13D0  0825               	movf	(floor@x+1)^(0+128),w
  4021     13D1  1283               	bcf	3,5	;RP0=0, select bank0
  4022     13D2  1303               	bcf	3,6	;RP1=0, select bank0
  4023     13D3  00AD               	movwf	frexp@value+1
  4024     13D4  1683               	bsf	3,5	;RP0=1, select bank1
  4025     13D5  1303               	bcf	3,6	;RP1=0, select bank1
  4026     13D6  0824               	movf	floor@x^(0+128),w
  4027     13D7  1283               	bcf	3,5	;RP0=0, select bank0
  4028     13D8  1303               	bcf	3,6	;RP1=0, select bank0
  4029     13D9  00AC               	movwf	frexp@value
  4030     13DA  30AC               	movlw	(low (floor@expon| 0))& (0+255)
  4031     13DB  00B0               	movwf	frexp@eptr
  4032     13DC  160A  118A  2060  160A  118A  	fcall	_frexp
  4033     13E1                     l3006:
  4034     13E1  1683               	bsf	3,5	;RP0=1, select bank1
  4035     13E2  1303               	bcf	3,6	;RP1=0, select bank1
  4036     13E3  1FAD               	btfss	(floor@expon+1)^(0+128),7
  4037     13E4  2BE6               	goto	u4761
  4038     13E5  2BE7               	goto	u4760
  4039     13E6                     u4761:
  4040     13E6  2C16               	goto	l3018
  4041     13E7                     u4760:
  4042     13E7                     l3008:
  4043     13E7  0827               	movf	(floor@x+3)^(0+128),w
  4044     13E8  00F3               	movwf	___flge@ff1+3
  4045     13E9  0826               	movf	(floor@x+2)^(0+128),w
  4046     13EA  00F2               	movwf	___flge@ff1+2
  4047     13EB  0825               	movf	(floor@x+1)^(0+128),w
  4048     13EC  00F1               	movwf	___flge@ff1+1
  4049     13ED  0824               	movf	floor@x^(0+128),w
  4050     13EE  00F0               	movwf	___flge@ff1
  4051     13EF  3000               	movlw	0
  4052     13F0  00F7               	movwf	___flge@ff2+3
  4053     13F1  3000               	movlw	0
  4054     13F2  00F6               	movwf	___flge@ff2+2
  4055     13F3  3000               	movlw	0
  4056     13F4  00F5               	movwf	___flge@ff2+1
  4057     13F5  3000               	movlw	0
  4058     13F6  00F4               	movwf	___flge@ff2
  4059     13F7  120A  158A  200B  160A  118A  	fcall	___flge
  4060     13FC  1803               	btfsc	3,0
  4061     13FD  2BFF               	goto	u4771
  4062     13FE  2C00               	goto	u4770
  4063     13FF                     u4771:
  4064     13FF  2C0B               	goto	l3014
  4065     1400                     u4770:
  4066     1400                     l3010:
  4067     1400  30BF               	movlw	191
  4068     1401  1683               	bsf	3,5	;RP0=1, select bank1
  4069     1402  1303               	bcf	3,6	;RP1=0, select bank1
  4070     1403  00A7               	movwf	(?_floor+3)^(0+128)
  4071     1404  3080               	movlw	128
  4072     1405  00A6               	movwf	(?_floor+2)^(0+128)
  4073     1406  3000               	movlw	0
  4074     1407  00A5               	movwf	(?_floor+1)^(0+128)
  4075     1408  3000               	movlw	0
  4076     1409  00A4               	movwf	?_floor^(0+128)
  4077     140A  2CB8               	goto	l612
  4078     140B                     l3014:
  4079     140B  3000               	movlw	0
  4080     140C  1683               	bsf	3,5	;RP0=1, select bank1
  4081     140D  1303               	bcf	3,6	;RP1=0, select bank1
  4082     140E  00A7               	movwf	(?_floor+3)^(0+128)
  4083     140F  3000               	movlw	0
  4084     1410  00A6               	movwf	(?_floor+2)^(0+128)
  4085     1411  3000               	movlw	0
  4086     1412  00A5               	movwf	(?_floor+1)^(0+128)
  4087     1413  3000               	movlw	0
  4088     1414  00A4               	movwf	?_floor^(0+128)
  4089     1415  2CB8               	goto	l612
  4090     1416                     l3018:
  4091     1416  3000               	movlw	0
  4092     1417  022D               	subwf	(floor@expon+1)^(0+128),w
  4093     1418  301D               	movlw	29
  4094     1419  1903               	skipnz
  4095     141A  022C               	subwf	floor@expon^(0+128),w
  4096     141B  1C03               	skipc
  4097     141C  2C1E               	goto	u4781
  4098     141D  2C1F               	goto	u4780
  4099     141E                     u4781:
  4100     141E  2C20               	goto	l3022
  4101     141F                     u4780:
  4102     141F                     l3020:
  4103     141F  2CB8               	goto	l612
  4104     1420                     l3022:
  4105     1420  0827               	movf	(floor@x+3)^(0+128),w
  4106     1421  1283               	bcf	3,5	;RP0=0, select bank0
  4107     1422  1303               	bcf	3,6	;RP1=0, select bank0
  4108     1423  00EC               	movwf	___fltol@f1+3
  4109     1424  1683               	bsf	3,5	;RP0=1, select bank1
  4110     1425  1303               	bcf	3,6	;RP1=0, select bank1
  4111     1426  0826               	movf	(floor@x+2)^(0+128),w
  4112     1427  1283               	bcf	3,5	;RP0=0, select bank0
  4113     1428  1303               	bcf	3,6	;RP1=0, select bank0
  4114     1429  00EB               	movwf	___fltol@f1+2
  4115     142A  1683               	bsf	3,5	;RP0=1, select bank1
  4116     142B  1303               	bcf	3,6	;RP1=0, select bank1
  4117     142C  0825               	movf	(floor@x+1)^(0+128),w
  4118     142D  1283               	bcf	3,5	;RP0=0, select bank0
  4119     142E  1303               	bcf	3,6	;RP1=0, select bank0
  4120     142F  00EA               	movwf	___fltol@f1+1
  4121     1430  1683               	bsf	3,5	;RP0=1, select bank1
  4122     1431  1303               	bcf	3,6	;RP1=0, select bank1
  4123     1432  0824               	movf	floor@x^(0+128),w
  4124     1433  1283               	bcf	3,5	;RP0=0, select bank0
  4125     1434  1303               	bcf	3,6	;RP1=0, select bank0
  4126     1435  00E9               	movwf	___fltol@f1
  4127     1436  160A  118A  20BC  160A  118A  	fcall	___fltol
  4128     143B  1283               	bcf	3,5	;RP0=0, select bank0
  4129     143C  1303               	bcf	3,6	;RP1=0, select bank0
  4130     143D  086C               	movf	?___fltol+3,w
  4131     143E  00F3               	movwf	___xxtofl@val+3
  4132     143F  086B               	movf	?___fltol+2,w
  4133     1440  00F2               	movwf	___xxtofl@val+2
  4134     1441  086A               	movf	?___fltol+1,w
  4135     1442  00F1               	movwf	___xxtofl@val+1
  4136     1443  0869               	movf	?___fltol,w
  4137     1444  00F0               	movwf	___xxtofl@val
  4138     1445  3001               	movlw	1
  4139     1446  160A  118A  2150  160A  118A  	fcall	___xxtofl
  4140     144B  0873               	movf	?___xxtofl+3,w
  4141     144C  1683               	bsf	3,5	;RP0=1, select bank1
  4142     144D  1303               	bcf	3,6	;RP1=0, select bank1
  4143     144E  00AB               	movwf	(floor@i+3)^(0+128)
  4144     144F  0872               	movf	?___xxtofl+2,w
  4145     1450  00AA               	movwf	(floor@i+2)^(0+128)
  4146     1451  0871               	movf	?___xxtofl+1,w
  4147     1452  00A9               	movwf	(floor@i+1)^(0+128)
  4148     1453  0870               	movf	?___xxtofl,w
  4149     1454  00A8               	movwf	floor@i^(0+128)
  4150     1455  0827               	movf	(floor@x+3)^(0+128),w
  4151     1456  00F3               	movwf	___flge@ff1+3
  4152     1457  0826               	movf	(floor@x+2)^(0+128),w
  4153     1458  00F2               	movwf	___flge@ff1+2
  4154     1459  0825               	movf	(floor@x+1)^(0+128),w
  4155     145A  00F1               	movwf	___flge@ff1+1
  4156     145B  0824               	movf	floor@x^(0+128),w
  4157     145C  00F0               	movwf	___flge@ff1
  4158     145D  082B               	movf	(floor@i+3)^(0+128),w
  4159     145E  00F7               	movwf	___flge@ff2+3
  4160     145F  082A               	movf	(floor@i+2)^(0+128),w
  4161     1460  00F6               	movwf	___flge@ff2+2
  4162     1461  0829               	movf	(floor@i+1)^(0+128),w
  4163     1462  00F5               	movwf	___flge@ff2+1
  4164     1463  0828               	movf	floor@i^(0+128),w
  4165     1464  00F4               	movwf	___flge@ff2
  4166     1465  120A  158A  200B  160A  118A  	fcall	___flge
  4167     146A  1803               	btfsc	3,0
  4168     146B  2C6D               	goto	u4791
  4169     146C  2C6E               	goto	u4790
  4170     146D                     u4791:
  4171     146D  2CAE               	goto	l3028
  4172     146E                     u4790:
  4173     146E                     l3024:
  4174     146E  30BF               	movlw	191
  4175     146F  1283               	bcf	3,5	;RP0=0, select bank0
  4176     1470  1303               	bcf	3,6	;RP1=0, select bank0
  4177     1471  00D0               	movwf	___fladd@b+3
  4178     1472  3080               	movlw	128
  4179     1473  00CF               	movwf	___fladd@b+2
  4180     1474  3000               	movlw	0
  4181     1475  00CE               	movwf	___fladd@b+1
  4182     1476  3000               	movlw	0
  4183     1477  00CD               	movwf	___fladd@b
  4184     1478  1683               	bsf	3,5	;RP0=1, select bank1
  4185     1479  1303               	bcf	3,6	;RP1=0, select bank1
  4186     147A  082B               	movf	(floor@i+3)^(0+128),w
  4187     147B  1283               	bcf	3,5	;RP0=0, select bank0
  4188     147C  1303               	bcf	3,6	;RP1=0, select bank0
  4189     147D  00D4               	movwf	___fladd@a+3
  4190     147E  1683               	bsf	3,5	;RP0=1, select bank1
  4191     147F  1303               	bcf	3,6	;RP1=0, select bank1
  4192     1480  082A               	movf	(floor@i+2)^(0+128),w
  4193     1481  1283               	bcf	3,5	;RP0=0, select bank0
  4194     1482  1303               	bcf	3,6	;RP1=0, select bank0
  4195     1483  00D3               	movwf	___fladd@a+2
  4196     1484  1683               	bsf	3,5	;RP0=1, select bank1
  4197     1485  1303               	bcf	3,6	;RP1=0, select bank1
  4198     1486  0829               	movf	(floor@i+1)^(0+128),w
  4199     1487  1283               	bcf	3,5	;RP0=0, select bank0
  4200     1488  1303               	bcf	3,6	;RP1=0, select bank0
  4201     1489  00D2               	movwf	___fladd@a+1
  4202     148A  1683               	bsf	3,5	;RP0=1, select bank1
  4203     148B  1303               	bcf	3,6	;RP1=0, select bank1
  4204     148C  0828               	movf	floor@i^(0+128),w
  4205     148D  1283               	bcf	3,5	;RP0=0, select bank0
  4206     148E  1303               	bcf	3,6	;RP1=0, select bank0
  4207     148F  00D1               	movwf	___fladd@a
  4208     1490  120A  118A  201D  160A  118A  	fcall	___fladd
  4209     1495  1283               	bcf	3,5	;RP0=0, select bank0
  4210     1496  1303               	bcf	3,6	;RP1=0, select bank0
  4211     1497  0850               	movf	?___fladd+3,w
  4212     1498  1683               	bsf	3,5	;RP0=1, select bank1
  4213     1499  1303               	bcf	3,6	;RP1=0, select bank1
  4214     149A  00A7               	movwf	(?_floor+3)^(0+128)
  4215     149B  1283               	bcf	3,5	;RP0=0, select bank0
  4216     149C  1303               	bcf	3,6	;RP1=0, select bank0
  4217     149D  084F               	movf	?___fladd+2,w
  4218     149E  1683               	bsf	3,5	;RP0=1, select bank1
  4219     149F  1303               	bcf	3,6	;RP1=0, select bank1
  4220     14A0  00A6               	movwf	(?_floor+2)^(0+128)
  4221     14A1  1283               	bcf	3,5	;RP0=0, select bank0
  4222     14A2  1303               	bcf	3,6	;RP1=0, select bank0
  4223     14A3  084E               	movf	?___fladd+1,w
  4224     14A4  1683               	bsf	3,5	;RP0=1, select bank1
  4225     14A5  1303               	bcf	3,6	;RP1=0, select bank1
  4226     14A6  00A5               	movwf	(?_floor+1)^(0+128)
  4227     14A7  1283               	bcf	3,5	;RP0=0, select bank0
  4228     14A8  1303               	bcf	3,6	;RP1=0, select bank0
  4229     14A9  084D               	movf	?___fladd,w
  4230     14AA  1683               	bsf	3,5	;RP0=1, select bank1
  4231     14AB  1303               	bcf	3,6	;RP1=0, select bank1
  4232     14AC  00A4               	movwf	?_floor^(0+128)
  4233     14AD  2CB8               	goto	l612
  4234     14AE                     l3028:
  4235     14AE  1683               	bsf	3,5	;RP0=1, select bank1
  4236     14AF  1303               	bcf	3,6	;RP1=0, select bank1
  4237     14B0  082B               	movf	(floor@i+3)^(0+128),w
  4238     14B1  00A7               	movwf	(?_floor+3)^(0+128)
  4239     14B2  082A               	movf	(floor@i+2)^(0+128),w
  4240     14B3  00A6               	movwf	(?_floor+2)^(0+128)
  4241     14B4  0829               	movf	(floor@i+1)^(0+128),w
  4242     14B5  00A5               	movwf	(?_floor+1)^(0+128)
  4243     14B6  0828               	movf	floor@i^(0+128),w
  4244     14B7  00A4               	movwf	?_floor^(0+128)
  4245     14B8                     l612:
  4246     14B8  0008               	return
  4247     14B9                     __end_of_floor:
  4248                           
  4249                           	psect	text6
  4250     1060                     __ptext6:	
  4251 ;; *************** function _frexp *****************
  4252 ;; Defined at:
  4253 ;;		line 254 in file "C:\Program Files\Microchip\xc8\v2.40\pic\sources\c90\common\frexp.c"
  4254 ;; Parameters:    Size  Location     Type
  4255 ;;  value           4   12[BANK0 ] int 
  4256 ;;  eptr            1   16[BANK0 ] PTR int 
  4257 ;;		 -> log@exponent(2), floor@expon(2), 
  4258 ;; Auto vars:     Size  Location     Type
  4259 ;;		None
  4260 ;; Return value:  Size  Location     Type
  4261 ;;                  4   12[BANK0 ] PTR int 
  4262 ;; Registers used:
  4263 ;;		wreg, fsr0l, fsr0h, status,2, status,0, btemp+1, pclath, cstack
  4264 ;; Tracked objects:
  4265 ;;		On entry : 0/0
  4266 ;;		On exit  : 0/0
  4267 ;;		Unchanged: 0/0
  4268 ;; Data sizes:     COMMON   BANK0   BANK1   BANK3   BANK2
  4269 ;;      Params:         0       5       0       0       0
  4270 ;;      Locals:         0       0       0       0       0
  4271 ;;      Temps:          0       2       0       0       0
  4272 ;;      Totals:         0       7       0       0       0
  4273 ;;Total ram usage:        7 bytes
  4274 ;; Hardware stack levels used: 1
  4275 ;; Hardware stack levels required when called: 1
  4276 ;; This function calls:
  4277 ;;		___fleq
  4278 ;; This function is called by:
  4279 ;;		_floor
  4280 ;;		_log
  4281 ;; This function uses a non-reentrant model
  4282 ;;
  4283                           
  4284     1060                     _frexp:	
  4285                           ;psect for function _frexp
  4286                           
  4287     1060                     l2978:	
  4288                           ;incstack = 0
  4289                           ; Regs used in _frexp: [wreg-fsr0h+status,2+status,0+btemp+1+pclath+cstack]
  4290                           
  4291     1060  1283               	bcf	3,5	;RP0=0, select bank0
  4292     1061  1303               	bcf	3,6	;RP1=0, select bank0
  4293     1062  082F               	movf	frexp@value+3,w
  4294     1063  00A3               	movwf	___fleq@ff1+3
  4295     1064  082E               	movf	frexp@value+2,w
  4296     1065  00A2               	movwf	___fleq@ff1+2
  4297     1066  082D               	movf	frexp@value+1,w
  4298     1067  00A1               	movwf	___fleq@ff1+1
  4299     1068  082C               	movf	frexp@value,w
  4300     1069  00A0               	movwf	___fleq@ff1
  4301     106A  3000               	movlw	0
  4302     106B  00A7               	movwf	___fleq@ff2+3
  4303     106C  3000               	movlw	0
  4304     106D  00A6               	movwf	___fleq@ff2+2
  4305     106E  3000               	movlw	0
  4306     106F  00A5               	movwf	___fleq@ff2+1
  4307     1070  3000               	movlw	0
  4308     1071  00A4               	movwf	___fleq@ff2
  4309     1072  160A  158A  27B0  160A  118A  	fcall	___fleq
  4310     1077  1C03               	btfss	3,0
  4311     1078  287A               	goto	u4751
  4312     1079  287B               	goto	u4750
  4313     107A                     u4751:
  4314     107A  288C               	goto	l2986
  4315     107B                     u4750:
  4316     107B                     l2980:
  4317     107B  1283               	bcf	3,5	;RP0=0, select bank0
  4318     107C  1303               	bcf	3,6	;RP1=0, select bank0
  4319     107D  0830               	movf	frexp@eptr,w
  4320     107E  0084               	movwf	4
  4321     107F  1383               	bcf	3,7	;select IRP bank0
  4322     1080  0180               	clrf	0
  4323     1081  0A84               	incf	4,f
  4324     1082  0180               	clrf	0
  4325     1083                     l2982:
  4326     1083  3000               	movlw	0
  4327     1084  00AF               	movwf	?_frexp+3
  4328     1085  3000               	movlw	0
  4329     1086  00AE               	movwf	?_frexp+2
  4330     1087  3000               	movlw	0
  4331     1088  00AD               	movwf	?_frexp+1
  4332     1089  3000               	movlw	0
  4333     108A  00AC               	movwf	?_frexp
  4334     108B  28BB               	goto	l620
  4335     108C                     l2986:
  4336     108C  1283               	bcf	3,5	;RP0=0, select bank0
  4337     108D  1303               	bcf	3,6	;RP1=0, select bank0
  4338     108E  082F               	movf	frexp@value+3,w
  4339     108F  397F               	andlw	127
  4340     1090  00B1               	movwf	??_frexp
  4341     1091  01B2               	clrf	??_frexp+1
  4342     1092  1003               	clrc
  4343     1093  0DB1               	rlf	??_frexp,f
  4344     1094  0DB2               	rlf	??_frexp+1,f
  4345     1095  0830               	movf	frexp@eptr,w
  4346     1096  0084               	movwf	4
  4347     1097  0831               	movf	??_frexp,w
  4348     1098  1383               	bcf	3,7	;select IRP bank0
  4349     1099  0080               	movwf	0
  4350     109A  0A84               	incf	4,f
  4351     109B  0832               	movf	??_frexp+1,w
  4352     109C  0080               	movwf	0
  4353     109D  0D2E               	rlf	frexp@value+2,w
  4354     109E  0D2E               	rlf	frexp@value+2,w
  4355     109F  3901               	andlw	1
  4356     10A0  00B1               	movwf	??_frexp
  4357     10A1  01B2               	clrf	??_frexp+1
  4358     10A2  0830               	movf	frexp@eptr,w
  4359     10A3  0084               	movwf	4
  4360     10A4  0831               	movf	??_frexp,w
  4361     10A5  0480               	iorwf	0,f
  4362     10A6  0A84               	incf	4,f
  4363     10A7  0832               	movf	??_frexp+1,w
  4364     10A8  0480               	iorwf	0,f
  4365     10A9                     l2988:
  4366     10A9  0830               	movf	frexp@eptr,w
  4367     10AA  0084               	movwf	4
  4368     10AB  3082               	movlw	130
  4369     10AC  0780               	addwf	0,f
  4370     10AD  0F84               	incfsz	4,f
  4371     10AE  0800               	movf	0,w
  4372     10AF  1803               	skipnc
  4373     10B0  0A00               	incf	0,w
  4374     10B1  00FF               	movwf	btemp+1
  4375     10B2  30FF               	movlw	255
  4376     10B3  077F               	addwf	btemp+1,w
  4377     10B4  0080               	movwf	0
  4378     10B5  0384               	decf	4,f
  4379     10B6                     l2990:
  4380     10B6  082F               	movf	frexp@value+3,w
  4381     10B7  3980               	andlw	-128
  4382     10B8  383F               	iorlw	63
  4383     10B9  00AF               	movwf	frexp@value+3
  4384     10BA                     l2992:
  4385     10BA  13AE               	bcf	frexp@value+2,7
  4386     10BB                     l2994:
  4387     10BB                     l620:
  4388     10BB  0008               	return
  4389     10BC                     __end_of_frexp:
  4390                           
  4391                           	psect	text7
  4392     1FB0                     __ptext7:	
  4393 ;; *************** function ___fleq *****************
  4394 ;; Defined at:
  4395 ;;		line 4 in file "C:\Program Files\Microchip\xc8\v2.40\pic\sources\c90\common\fleq.c"
  4396 ;; Parameters:    Size  Location     Type
  4397 ;;  ff1             4    0[BANK0 ] PTR int 
  4398 ;;  ff2             4    4[BANK0 ] PTR int 
  4399 ;; Auto vars:     Size  Location     Type
  4400 ;;		None
  4401 ;; Return value:  Size  Location     Type
  4402 ;;		None               void
  4403 ;; Registers used:
  4404 ;;		wreg, status,2, status,0
  4405 ;; Tracked objects:
  4406 ;;		On entry : 0/0
  4407 ;;		On exit  : 0/0
  4408 ;;		Unchanged: 0/0
  4409 ;; Data sizes:     COMMON   BANK0   BANK1   BANK3   BANK2
  4410 ;;      Params:         0       8       0       0       0
  4411 ;;      Locals:         0       0       0       0       0
  4412 ;;      Temps:          0       4       0       0       0
  4413 ;;      Totals:         0      12       0       0       0
  4414 ;;Total ram usage:       12 bytes
  4415 ;; Hardware stack levels used: 1
  4416 ;; This function calls:
  4417 ;;		Nothing
  4418 ;; This function is called by:
  4419 ;;		_pow
  4420 ;;		_exp
  4421 ;;		_frexp
  4422 ;;		_ldexp
  4423 ;;		_log
  4424 ;; This function uses a non-reentrant model
  4425 ;;
  4426                           
  4427     1FB0                     ___fleq:	
  4428                           ;psect for function ___fleq
  4429                           
  4430     1FB0                     l2554:	
  4431                           ;incstack = 0
  4432                           ; Regs used in ___fleq: [wreg+status,2+status,0]
  4433                           
  4434     1FB0  3000               	movlw	0
  4435     1FB1  1283               	bcf	3,5	;RP0=0, select bank0
  4436     1FB2  1303               	bcf	3,6	;RP1=0, select bank0
  4437     1FB3  0520               	andwf	___fleq@ff1,w
  4438     1FB4  00A8               	movwf	??___fleq
  4439     1FB5  3000               	movlw	0
  4440     1FB6  0521               	andwf	___fleq@ff1+1,w
  4441     1FB7  00A9               	movwf	??___fleq+1
  4442     1FB8  3080               	movlw	128
  4443     1FB9  0522               	andwf	___fleq@ff1+2,w
  4444     1FBA  00AA               	movwf	??___fleq+2
  4445     1FBB  307F               	movlw	127
  4446     1FBC  0523               	andwf	___fleq@ff1+3,w
  4447     1FBD  00AB               	movwf	??___fleq+3
  4448     1FBE  082B               	movf	??___fleq+3,w
  4449     1FBF  042A               	iorwf	??___fleq+2,w
  4450     1FC0  0429               	iorwf	??___fleq+1,w
  4451     1FC1  0428               	iorwf	??___fleq,w
  4452     1FC2  1D03               	skipz
  4453     1FC3  2FC5               	goto	u3651
  4454     1FC4  2FC6               	goto	u3650
  4455     1FC5                     u3651:
  4456     1FC5  2FCE               	goto	l284
  4457     1FC6                     u3650:
  4458     1FC6                     l2556:
  4459     1FC6  3000               	movlw	0
  4460     1FC7  00A3               	movwf	___fleq@ff1+3
  4461     1FC8  3000               	movlw	0
  4462     1FC9  00A2               	movwf	___fleq@ff1+2
  4463     1FCA  3000               	movlw	0
  4464     1FCB  00A1               	movwf	___fleq@ff1+1
  4465     1FCC  3000               	movlw	0
  4466     1FCD  00A0               	movwf	___fleq@ff1
  4467     1FCE                     l284:
  4468     1FCE  3000               	movlw	0
  4469     1FCF  0524               	andwf	___fleq@ff2,w
  4470     1FD0  00A8               	movwf	??___fleq
  4471     1FD1  3000               	movlw	0
  4472     1FD2  0525               	andwf	___fleq@ff2+1,w
  4473     1FD3  00A9               	movwf	??___fleq+1
  4474     1FD4  3080               	movlw	128
  4475     1FD5  0526               	andwf	___fleq@ff2+2,w
  4476     1FD6  00AA               	movwf	??___fleq+2
  4477     1FD7  307F               	movlw	127
  4478     1FD8  0527               	andwf	___fleq@ff2+3,w
  4479     1FD9  00AB               	movwf	??___fleq+3
  4480     1FDA  082B               	movf	??___fleq+3,w
  4481     1FDB  042A               	iorwf	??___fleq+2,w
  4482     1FDC  0429               	iorwf	??___fleq+1,w
  4483     1FDD  0428               	iorwf	??___fleq,w
  4484     1FDE  1D03               	skipz
  4485     1FDF  2FE1               	goto	u3661
  4486     1FE0  2FE2               	goto	u3660
  4487     1FE1                     u3661:
  4488     1FE1  2FEA               	goto	l285
  4489     1FE2                     u3660:
  4490     1FE2                     l2558:
  4491     1FE2  3000               	movlw	0
  4492     1FE3  00A7               	movwf	___fleq@ff2+3
  4493     1FE4  3000               	movlw	0
  4494     1FE5  00A6               	movwf	___fleq@ff2+2
  4495     1FE6  3000               	movlw	0
  4496     1FE7  00A5               	movwf	___fleq@ff2+1
  4497     1FE8  3000               	movlw	0
  4498     1FE9  00A4               	movwf	___fleq@ff2
  4499     1FEA                     l285:
  4500     1FEA  0827               	movf	___fleq@ff2+3,w
  4501     1FEB  0623               	xorwf	___fleq@ff1+3,w
  4502     1FEC  1D03               	skipz
  4503     1FED  2FF8               	goto	u3675
  4504     1FEE  0826               	movf	___fleq@ff2+2,w
  4505     1FEF  0622               	xorwf	___fleq@ff1+2,w
  4506     1FF0  1D03               	skipz
  4507     1FF1  2FF8               	goto	u3675
  4508     1FF2  0825               	movf	___fleq@ff2+1,w
  4509     1FF3  0621               	xorwf	___fleq@ff1+1,w
  4510     1FF4  1D03               	skipz
  4511     1FF5  2FF8               	goto	u3675
  4512     1FF6  0824               	movf	___fleq@ff2,w
  4513     1FF7  0620               	xorwf	___fleq@ff1,w
  4514     1FF8                     u3675:
  4515     1FF8  1903               	skipnz
  4516     1FF9  2FFB               	goto	u3671
  4517     1FFA  2FFC               	goto	u3670
  4518     1FFB                     u3671:
  4519     1FFB  2FFE               	goto	l2562
  4520     1FFC                     u3670:
  4521     1FFC                     l2560:
  4522     1FFC  1003               	clrc
  4523     1FFD  2FFF               	goto	l286
  4524     1FFE                     l2562:
  4525     1FFE  1403               	setc
  4526     1FFF                     l286:
  4527     1FFF  0008               	return
  4528     2000                     __end_of___fleq:
  4529                           
  4530                           	psect	text8
  4531     1150                     __ptext8:	
  4532 ;; *************** function ___xxtofl *****************
  4533 ;; Defined at:
  4534 ;;		line 10 in file "C:\Program Files\Microchip\xc8\v2.40\pic\sources\c90\common\xxtofl.c"
  4535 ;; Parameters:    Size  Location     Type
  4536 ;;  sign            1    wreg     unsigned char 
  4537 ;;  val             4    0[COMMON] long 
  4538 ;; Auto vars:     Size  Location     Type
  4539 ;;  sign            1    8[COMMON] unsigned char 
  4540 ;;  arg             4   10[COMMON] unsigned long 
  4541 ;;  exp             1    9[COMMON] unsigned char 
  4542 ;; Return value:  Size  Location     Type
  4543 ;;                  4    0[COMMON] unsigned char 
  4544 ;; Registers used:
  4545 ;;		wreg, status,2, status,0
  4546 ;; Tracked objects:
  4547 ;;		On entry : 0/0
  4548 ;;		On exit  : 0/0
  4549 ;;		Unchanged: 0/0
  4550 ;; Data sizes:     COMMON   BANK0   BANK1   BANK3   BANK2
  4551 ;;      Params:         4       0       0       0       0
  4552 ;;      Locals:         6       0       0       0       0
  4553 ;;      Temps:          4       0       0       0       0
  4554 ;;      Totals:        14       0       0       0       0
  4555 ;;Total ram usage:       14 bytes
  4556 ;; Hardware stack levels used: 1
  4557 ;; This function calls:
  4558 ;;		Nothing
  4559 ;; This function is called by:
  4560 ;;		_main
  4561 ;;		_pow
  4562 ;;		_exp
  4563 ;;		_floor
  4564 ;;		_log
  4565 ;; This function uses a non-reentrant model
  4566 ;;
  4567                           
  4568     1150                     ___xxtofl:	
  4569                           ;psect for function ___xxtofl
  4570                           
  4571                           
  4572                           ;incstack = 0
  4573                           ; Regs used in ___xxtofl: [wreg+status,2+status,0]
  4574                           ;___xxtofl@sign stored from wreg
  4575     1150  00F8               	movwf	___xxtofl@sign
  4576     1151                     l2934:
  4577     1151  0878               	movf	___xxtofl@sign,w
  4578     1152  1903               	btfsc	3,2
  4579     1153  2955               	goto	u4611
  4580     1154  2956               	goto	u4610
  4581     1155                     u4611:
  4582     1155  296A               	goto	l2940
  4583     1156                     u4610:
  4584     1156                     l2936:
  4585     1156  1FF3               	btfss	___xxtofl@val+3,7
  4586     1157  2959               	goto	u4621
  4587     1158  295A               	goto	u4620
  4588     1159                     u4621:
  4589     1159  296A               	goto	l2940
  4590     115A                     u4620:
  4591     115A                     l2938:
  4592     115A  0970               	comf	___xxtofl@val,w
  4593     115B  00FA               	movwf	___xxtofl@arg
  4594     115C  0971               	comf	___xxtofl@val+1,w
  4595     115D  00FB               	movwf	___xxtofl@arg+1
  4596     115E  0972               	comf	___xxtofl@val+2,w
  4597     115F  00FC               	movwf	___xxtofl@arg+2
  4598     1160  0973               	comf	___xxtofl@val+3,w
  4599     1161  00FD               	movwf	___xxtofl@arg+3
  4600     1162  0AFA               	incf	___xxtofl@arg,f
  4601     1163  1903               	skipnz
  4602     1164  0AFB               	incf	___xxtofl@arg+1,f
  4603     1165  1903               	skipnz
  4604     1166  0AFC               	incf	___xxtofl@arg+2,f
  4605     1167  1903               	skipnz
  4606     1168  0AFD               	incf	___xxtofl@arg+3,f
  4607     1169  2972               	goto	l548
  4608     116A                     l2940:
  4609     116A  0873               	movf	___xxtofl@val+3,w
  4610     116B  00FD               	movwf	___xxtofl@arg+3
  4611     116C  0872               	movf	___xxtofl@val+2,w
  4612     116D  00FC               	movwf	___xxtofl@arg+2
  4613     116E  0871               	movf	___xxtofl@val+1,w
  4614     116F  00FB               	movwf	___xxtofl@arg+1
  4615     1170  0870               	movf	___xxtofl@val,w
  4616     1171  00FA               	movwf	___xxtofl@arg
  4617     1172                     l548:
  4618     1172  0873               	movf	___xxtofl@val+3,w
  4619     1173  0472               	iorwf	___xxtofl@val+2,w
  4620     1174  0471               	iorwf	___xxtofl@val+1,w
  4621     1175  0470               	iorwf	___xxtofl@val,w
  4622     1176  1D03               	skipz
  4623     1177  2979               	goto	u4631
  4624     1178  297A               	goto	u4630
  4625     1179                     u4631:
  4626     1179  2983               	goto	l2946
  4627     117A                     u4630:
  4628     117A                     l2942:
  4629     117A  3000               	movlw	0
  4630     117B  00F3               	movwf	?___xxtofl+3
  4631     117C  3000               	movlw	0
  4632     117D  00F2               	movwf	?___xxtofl+2
  4633     117E  3000               	movlw	0
  4634     117F  00F1               	movwf	?___xxtofl+1
  4635     1180  3000               	movlw	0
  4636     1181  00F0               	movwf	?___xxtofl
  4637     1182  2A07               	goto	l550
  4638     1183                     l2946:
  4639     1183  3096               	movlw	150
  4640     1184  00F9               	movwf	___xxtofl@exp
  4641     1185  2993               	goto	l2950
  4642     1186                     l2948:
  4643     1186  3001               	movlw	1
  4644     1187  00F4               	movwf	??___xxtofl
  4645     1188  0874               	movf	??___xxtofl,w
  4646     1189  07F9               	addwf	___xxtofl@exp,f
  4647     118A  3001               	movlw	1
  4648     118B                     u4645:
  4649     118B  1003               	clrc
  4650     118C  0CFD               	rrf	___xxtofl@arg+3,f
  4651     118D  0CFC               	rrf	___xxtofl@arg+2,f
  4652     118E  0CFB               	rrf	___xxtofl@arg+1,f
  4653     118F  0CFA               	rrf	___xxtofl@arg,f
  4654     1190  3EFF               	addlw	-1
  4655     1191  1D03               	skipz
  4656     1192  298B               	goto	u4645
  4657     1193                     l2950:
  4658     1193  30FE               	movlw	254
  4659     1194  057D               	andwf	___xxtofl@arg+3,w
  4660     1195  1D03               	btfss	3,2
  4661     1196  2998               	goto	u4651
  4662     1197  2999               	goto	u4650
  4663     1198                     u4651:
  4664     1198  2986               	goto	l2948
  4665     1199                     u4650:
  4666     1199  29B5               	goto	l554
  4667     119A                     l2952:
  4668     119A  3001               	movlw	1
  4669     119B  00F4               	movwf	??___xxtofl
  4670     119C  0874               	movf	??___xxtofl,w
  4671     119D  07F9               	addwf	___xxtofl@exp,f
  4672     119E                     l2954:
  4673     119E  3001               	movlw	1
  4674     119F  07FA               	addwf	___xxtofl@arg,f
  4675     11A0  3000               	movlw	0
  4676     11A1  1803               	skipnc
  4677     11A2  3001               	movlw	1
  4678     11A3  07FB               	addwf	___xxtofl@arg+1,f
  4679     11A4  3000               	movlw	0
  4680     11A5  1803               	skipnc
  4681     11A6  3001               	movlw	1
  4682     11A7  07FC               	addwf	___xxtofl@arg+2,f
  4683     11A8  3000               	movlw	0
  4684     11A9  1803               	skipnc
  4685     11AA  3001               	movlw	1
  4686     11AB  07FD               	addwf	___xxtofl@arg+3,f
  4687     11AC                     l2956:
  4688     11AC  3001               	movlw	1
  4689     11AD                     u4665:
  4690     11AD  1003               	clrc
  4691     11AE  0CFD               	rrf	___xxtofl@arg+3,f
  4692     11AF  0CFC               	rrf	___xxtofl@arg+2,f
  4693     11B0  0CFB               	rrf	___xxtofl@arg+1,f
  4694     11B1  0CFA               	rrf	___xxtofl@arg,f
  4695     11B2  3EFF               	addlw	-1
  4696     11B3  1D03               	skipz
  4697     11B4  29AD               	goto	u4665
  4698     11B5                     l554:
  4699     11B5  30FF               	movlw	255
  4700     11B6  057D               	andwf	___xxtofl@arg+3,w
  4701     11B7  1D03               	btfss	3,2
  4702     11B8  29BA               	goto	u4671
  4703     11B9  29BB               	goto	u4670
  4704     11BA                     u4671:
  4705     11BA  299A               	goto	l2952
  4706     11BB                     u4670:
  4707     11BB  29C7               	goto	l2960
  4708     11BC                     l2958:
  4709     11BC  3001               	movlw	1
  4710     11BD  02F9               	subwf	___xxtofl@exp,f
  4711     11BE  3001               	movlw	1
  4712     11BF  00F4               	movwf	??___xxtofl
  4713     11C0                     u4685:
  4714     11C0  1003               	clrc
  4715     11C1  0DFA               	rlf	___xxtofl@arg,f
  4716     11C2  0DFB               	rlf	___xxtofl@arg+1,f
  4717     11C3  0DFC               	rlf	___xxtofl@arg+2,f
  4718     11C4  0DFD               	rlf	___xxtofl@arg+3,f
  4719     11C5  0BF4               	decfsz	??___xxtofl,f
  4720     11C6  29C0               	goto	u4685
  4721     11C7                     l2960:
  4722     11C7  1BFC               	btfsc	___xxtofl@arg+2,7
  4723     11C8  29CA               	goto	u4691
  4724     11C9  29CB               	goto	u4690
  4725     11CA                     u4691:
  4726     11CA  29D1               	goto	l561
  4727     11CB                     u4690:
  4728     11CB                     l2962:
  4729     11CB  3002               	movlw	2
  4730     11CC  0279               	subwf	___xxtofl@exp,w
  4731     11CD  1803               	skipnc
  4732     11CE  29D0               	goto	u4701
  4733     11CF  29D1               	goto	u4700
  4734     11D0                     u4701:
  4735     11D0  29BC               	goto	l2958
  4736     11D1                     u4700:
  4737     11D1                     l561:
  4738     11D1  1879               	btfsc	___xxtofl@exp,0
  4739     11D2  29D4               	goto	u4711
  4740     11D3  29D5               	goto	u4710
  4741     11D4                     u4711:
  4742     11D4  29DD               	goto	l562
  4743     11D5                     u4710:
  4744     11D5                     l2964:
  4745     11D5  30FF               	movlw	255
  4746     11D6  05FA               	andwf	___xxtofl@arg,f
  4747     11D7  30FF               	movlw	255
  4748     11D8  05FB               	andwf	___xxtofl@arg+1,f
  4749     11D9  307F               	movlw	127
  4750     11DA  05FC               	andwf	___xxtofl@arg+2,f
  4751     11DB  30FF               	movlw	255
  4752     11DC  05FD               	andwf	___xxtofl@arg+3,f
  4753     11DD                     l562:
  4754     11DD  1003               	clrc
  4755     11DE  0CF9               	rrf	___xxtofl@exp,f
  4756     11DF                     l2966:
  4757     11DF  0879               	movf	___xxtofl@exp,w
  4758     11E0  00F4               	movwf	??___xxtofl
  4759     11E1  01F5               	clrf	??___xxtofl+1
  4760     11E2  01F6               	clrf	??___xxtofl+2
  4761     11E3  01F7               	clrf	??___xxtofl+3
  4762     11E4  3018               	movlw	24
  4763     11E5                     u4725:
  4764     11E5  1003               	clrc
  4765     11E6  0DF4               	rlf	??___xxtofl,f
  4766     11E7  0DF5               	rlf	??___xxtofl+1,f
  4767     11E8  0DF6               	rlf	??___xxtofl+2,f
  4768     11E9  0DF7               	rlf	??___xxtofl+3,f
  4769     11EA                     u4720:
  4770     11EA  3EFF               	addlw	-1
  4771     11EB  1D03               	skipz
  4772     11EC  29E5               	goto	u4725
  4773     11ED  0874               	movf	??___xxtofl,w
  4774     11EE  04FA               	iorwf	___xxtofl@arg,f
  4775     11EF  0875               	movf	??___xxtofl+1,w
  4776     11F0  04FB               	iorwf	___xxtofl@arg+1,f
  4777     11F1  0876               	movf	??___xxtofl+2,w
  4778     11F2  04FC               	iorwf	___xxtofl@arg+2,f
  4779     11F3  0877               	movf	??___xxtofl+3,w
  4780     11F4  04FD               	iorwf	___xxtofl@arg+3,f
  4781     11F5                     l2968:
  4782     11F5  0878               	movf	___xxtofl@sign,w
  4783     11F6  1903               	btfsc	3,2
  4784     11F7  29F9               	goto	u4731
  4785     11F8  29FA               	goto	u4730
  4786     11F9                     u4731:
  4787     11F9  29FF               	goto	l2974
  4788     11FA                     u4730:
  4789     11FA                     l2970:
  4790     11FA  1FF3               	btfss	___xxtofl@val+3,7
  4791     11FB  29FD               	goto	u4741
  4792     11FC  29FE               	goto	u4740
  4793     11FD                     u4741:
  4794     11FD  29FF               	goto	l2974
  4795     11FE                     u4740:
  4796     11FE                     l2972:
  4797     11FE  17FD               	bsf	___xxtofl@arg+3,7
  4798     11FF                     l2974:
  4799     11FF  087D               	movf	___xxtofl@arg+3,w
  4800     1200  00F3               	movwf	?___xxtofl+3
  4801     1201  087C               	movf	___xxtofl@arg+2,w
  4802     1202  00F2               	movwf	?___xxtofl+2
  4803     1203  087B               	movf	___xxtofl@arg+1,w
  4804     1204  00F1               	movwf	?___xxtofl+1
  4805     1205  087A               	movf	___xxtofl@arg,w
  4806     1206  00F0               	movwf	?___xxtofl
  4807     1207                     l550:
  4808     1207  0008               	return
  4809     1208                     __end_of___xxtofl:
  4810                           
  4811                           	psect	text9
  4812     10BC                     __ptext9:	
  4813 ;; *************** function ___fltol *****************
  4814 ;; Defined at:
  4815 ;;		line 43 in file "C:\Program Files\Microchip\xc8\v2.40\pic\sources\c90\common\fltol.c"
  4816 ;; Parameters:    Size  Location     Type
  4817 ;;  f1              4   73[BANK0 ] unsigned char 
  4818 ;; Auto vars:     Size  Location     Type
  4819 ;;  exp1            1   78[BANK0 ] unsigned char 
  4820 ;;  sign1           1   77[BANK0 ] unsigned char 
  4821 ;; Return value:  Size  Location     Type
  4822 ;;                  4   73[BANK0 ] long 
  4823 ;; Registers used:
  4824 ;;		wreg, status,2, status,0
  4825 ;; Tracked objects:
  4826 ;;		On entry : 0/0
  4827 ;;		On exit  : 0/0
  4828 ;;		Unchanged: 0/0
  4829 ;; Data sizes:     COMMON   BANK0   BANK1   BANK3   BANK2
  4830 ;;      Params:         0       4       0       0       0
  4831 ;;      Locals:         0       2       0       0       0
  4832 ;;      Temps:          0       0       4       0       0
  4833 ;;      Totals:         0       6       4       0       0
  4834 ;;Total ram usage:       10 bytes
  4835 ;; Hardware stack levels used: 1
  4836 ;; This function calls:
  4837 ;;		Nothing
  4838 ;; This function is called by:
  4839 ;;		_main
  4840 ;;		_pow
  4841 ;;		_exp
  4842 ;;		_floor
  4843 ;; This function uses a non-reentrant model
  4844 ;;
  4845                           
  4846     10BC                     ___fltol:	
  4847                           ;psect for function ___fltol
  4848                           
  4849     10BC                     l1694:	
  4850                           ;incstack = 0
  4851                           ; Regs used in ___fltol: [wreg+status,2+status,0]
  4852                           
  4853     10BC  1003               	clrc
  4854     10BD  1283               	bcf	3,5	;RP0=0, select bank0
  4855     10BE  1303               	bcf	3,6	;RP1=0, select bank0
  4856     10BF  0D6B               	rlf	___fltol@f1+2,w
  4857     10C0  0D6C               	rlf	___fltol@f1+3,w
  4858     10C1  00EE               	movwf	___fltol@exp1
  4859     10C2  086E               	movf	___fltol@exp1,w
  4860     10C3  1D03               	btfss	3,2
  4861     10C4  28C6               	goto	u1961
  4862     10C5  28C7               	goto	u1960
  4863     10C6                     u1961:
  4864     10C6  28D0               	goto	l1700
  4865     10C7                     u1960:
  4866     10C7                     l1696:
  4867     10C7  3000               	movlw	0
  4868     10C8  00EC               	movwf	?___fltol+3
  4869     10C9  3000               	movlw	0
  4870     10CA  00EB               	movwf	?___fltol+2
  4871     10CB  3000               	movlw	0
  4872     10CC  00EA               	movwf	?___fltol+1
  4873     10CD  3000               	movlw	0
  4874     10CE  00E9               	movwf	?___fltol
  4875     10CF  294F               	goto	l301
  4876     10D0                     l1700:
  4877     10D0  0869               	movf	___fltol@f1,w
  4878     10D1  1683               	bsf	3,5	;RP0=1, select bank1
  4879     10D2  1303               	bcf	3,6	;RP1=0, select bank1
  4880     10D3  00A0               	movwf	??___fltol^(0+128)
  4881     10D4  1283               	bcf	3,5	;RP0=0, select bank0
  4882     10D5  1303               	bcf	3,6	;RP1=0, select bank0
  4883     10D6  086A               	movf	___fltol@f1+1,w
  4884     10D7  1683               	bsf	3,5	;RP0=1, select bank1
  4885     10D8  1303               	bcf	3,6	;RP1=0, select bank1
  4886     10D9  00A1               	movwf	(??___fltol^(0+128)+1)
  4887     10DA  1283               	bcf	3,5	;RP0=0, select bank0
  4888     10DB  1303               	bcf	3,6	;RP1=0, select bank0
  4889     10DC  086B               	movf	___fltol@f1+2,w
  4890     10DD  1683               	bsf	3,5	;RP0=1, select bank1
  4891     10DE  1303               	bcf	3,6	;RP1=0, select bank1
  4892     10DF  00A2               	movwf	(??___fltol^(0+128)+2)
  4893     10E0  1283               	bcf	3,5	;RP0=0, select bank0
  4894     10E1  1303               	bcf	3,6	;RP1=0, select bank0
  4895     10E2  086C               	movf	___fltol@f1+3,w
  4896     10E3  1683               	bsf	3,5	;RP0=1, select bank1
  4897     10E4  1303               	bcf	3,6	;RP1=0, select bank1
  4898     10E5  00A3               	movwf	(??___fltol^(0+128)+3)
  4899     10E6  301F               	movlw	31
  4900     10E7                     u1975:
  4901     10E7  1003               	clrc
  4902     10E8  0CA3               	rrf	(??___fltol^(0+128)+3),f
  4903     10E9  0CA2               	rrf	(??___fltol^(0+128)+2),f
  4904     10EA  0CA1               	rrf	(??___fltol^(0+128)+1),f
  4905     10EB  0CA0               	rrf	??___fltol^(0+128),f
  4906     10EC                     u1970:
  4907     10EC  3EFF               	addlw	-1
  4908     10ED  1D03               	skipz
  4909     10EE  28E7               	goto	u1975
  4910     10EF  0820               	movf	??___fltol^(0+128),w
  4911     10F0  1283               	bcf	3,5	;RP0=0, select bank0
  4912     10F1  1303               	bcf	3,6	;RP1=0, select bank0
  4913     10F2  00ED               	movwf	___fltol@sign1
  4914     10F3                     l1702:
  4915     10F3  17EB               	bsf	___fltol@f1+2,7
  4916     10F4                     l1704:
  4917     10F4  30FF               	movlw	255
  4918     10F5  05E9               	andwf	___fltol@f1,f
  4919     10F6  30FF               	movlw	255
  4920     10F7  05EA               	andwf	___fltol@f1+1,f
  4921     10F8  30FF               	movlw	255
  4922     10F9  05EB               	andwf	___fltol@f1+2,f
  4923     10FA  3000               	movlw	0
  4924     10FB  05EC               	andwf	___fltol@f1+3,f
  4925     10FC                     l1706:
  4926     10FC  3096               	movlw	150
  4927     10FD  02EE               	subwf	___fltol@exp1,f
  4928     10FE                     l1708:
  4929     10FE  1FEE               	btfss	___fltol@exp1,7
  4930     10FF  2901               	goto	u1981
  4931     1100  2902               	goto	u1980
  4932     1101                     u1981:
  4933     1101  2920               	goto	l1718
  4934     1102                     u1980:
  4935     1102                     l1710:
  4936     1102  086E               	movf	___fltol@exp1,w
  4937     1103  3A80               	xorlw	128
  4938     1104  3E97               	addlw	151
  4939     1105  1803               	skipnc
  4940     1106  2908               	goto	u1991
  4941     1107  2909               	goto	u1990
  4942     1108                     u1991:
  4943     1108  290A               	goto	l1716
  4944     1109                     u1990:
  4945     1109  28C7               	goto	l1696
  4946     110A                     l1716:
  4947     110A  3001               	movlw	1
  4948     110B                     u2005:
  4949     110B  1003               	clrc
  4950     110C  0CEC               	rrf	___fltol@f1+3,f
  4951     110D  0CEB               	rrf	___fltol@f1+2,f
  4952     110E  0CEA               	rrf	___fltol@f1+1,f
  4953     110F  0CE9               	rrf	___fltol@f1,f
  4954     1110  3EFF               	addlw	-1
  4955     1111  1D03               	skipz
  4956     1112  290B               	goto	u2005
  4957     1113  3001               	movlw	1
  4958     1114  1683               	bsf	3,5	;RP0=1, select bank1
  4959     1115  1303               	bcf	3,6	;RP1=0, select bank1
  4960     1116  00A0               	movwf	??___fltol^(0+128)
  4961     1117  0820               	movf	??___fltol^(0+128),w
  4962     1118  1283               	bcf	3,5	;RP0=0, select bank0
  4963     1119  1303               	bcf	3,6	;RP1=0, select bank0
  4964     111A  07EE               	addwf	___fltol@exp1,f
  4965     111B  1D03               	btfss	3,2
  4966     111C  291E               	goto	u2011
  4967     111D  291F               	goto	u2010
  4968     111E                     u2011:
  4969     111E  290A               	goto	l1716
  4970     111F                     u2010:
  4971     111F  293F               	goto	l1726
  4972     1120                     l1718:
  4973     1120  3020               	movlw	32
  4974     1121  026E               	subwf	___fltol@exp1,w
  4975     1122  1C03               	skipc
  4976     1123  2925               	goto	u2021
  4977     1124  2926               	goto	u2020
  4978     1125                     u2021:
  4979     1125  293A               	goto	l308
  4980     1126                     u2020:
  4981     1126  28C7               	goto	l1696
  4982     1127                     l1724:
  4983     1127  3001               	movlw	1
  4984     1128  1683               	bsf	3,5	;RP0=1, select bank1
  4985     1129  1303               	bcf	3,6	;RP1=0, select bank1
  4986     112A  00A0               	movwf	??___fltol^(0+128)
  4987     112B                     u2035:
  4988     112B  1003               	clrc
  4989     112C  1283               	bcf	3,5	;RP0=0, select bank0
  4990     112D  1303               	bcf	3,6	;RP1=0, select bank0
  4991     112E  0DE9               	rlf	___fltol@f1,f
  4992     112F  0DEA               	rlf	___fltol@f1+1,f
  4993     1130  0DEB               	rlf	___fltol@f1+2,f
  4994     1131  0DEC               	rlf	___fltol@f1+3,f
  4995     1132  1683               	bsf	3,5	;RP0=1, select bank1
  4996     1133  1303               	bcf	3,6	;RP1=0, select bank1
  4997     1134  0BA0               	decfsz	??___fltol^(0+128),f
  4998     1135  292B               	goto	u2035
  4999     1136  3001               	movlw	1
  5000     1137  1283               	bcf	3,5	;RP0=0, select bank0
  5001     1138  1303               	bcf	3,6	;RP1=0, select bank0
  5002     1139  02EE               	subwf	___fltol@exp1,f
  5003     113A                     l308:
  5004     113A  086E               	movf	___fltol@exp1,w
  5005     113B  1D03               	btfss	3,2
  5006     113C  293E               	goto	u2041
  5007     113D  293F               	goto	u2040
  5008     113E                     u2041:
  5009     113E  2927               	goto	l1724
  5010     113F                     u2040:
  5011     113F                     l1726:
  5012     113F  086D               	movf	___fltol@sign1,w
  5013     1140  1903               	btfsc	3,2
  5014     1141  2943               	goto	u2051
  5015     1142  2944               	goto	u2050
  5016     1143                     u2051:
  5017     1143  294F               	goto	l311
  5018     1144                     u2050:
  5019     1144                     l1728:
  5020     1144  09E9               	comf	___fltol@f1,f
  5021     1145  09EA               	comf	___fltol@f1+1,f
  5022     1146  09EB               	comf	___fltol@f1+2,f
  5023     1147  09EC               	comf	___fltol@f1+3,f
  5024     1148  0AE9               	incf	___fltol@f1,f
  5025     1149  1903               	skipnz
  5026     114A  0AEA               	incf	___fltol@f1+1,f
  5027     114B  1903               	skipnz
  5028     114C  0AEB               	incf	___fltol@f1+2,f
  5029     114D  1903               	skipnz
  5030     114E  0AEC               	incf	___fltol@f1+3,f
  5031     114F                     l311:
  5032     114F                     l301:
  5033     114F  0008               	return
  5034     1150                     __end_of___fltol:
  5035                           
  5036                           	psect	text10
  5037     080B                     __ptext10:	
  5038 ;; *************** function ___flge *****************
  5039 ;; Defined at:
  5040 ;;		line 4 in file "C:\Program Files\Microchip\xc8\v2.40\pic\sources\c90\common\flge.c"
  5041 ;; Parameters:    Size  Location     Type
  5042 ;;  ff1             4    0[COMMON] long 
  5043 ;;  ff2             4    4[COMMON] long 
  5044 ;; Auto vars:     Size  Location     Type
  5045 ;;		None
  5046 ;; Return value:  Size  Location     Type
  5047 ;;		None               void
  5048 ;; Registers used:
  5049 ;;		wreg, status,2, status,0
  5050 ;; Tracked objects:
  5051 ;;		On entry : 0/0
  5052 ;;		On exit  : 0/0
  5053 ;;		Unchanged: 0/0
  5054 ;; Data sizes:     COMMON   BANK0   BANK1   BANK3   BANK2
  5055 ;;      Params:         8       0       0       0       0
  5056 ;;      Locals:         0       0       0       0       0
  5057 ;;      Temps:          4       0       0       0       0
  5058 ;;      Totals:        12       0       0       0       0
  5059 ;;Total ram usage:       12 bytes
  5060 ;; Hardware stack levels used: 1
  5061 ;; This function calls:
  5062 ;;		Nothing
  5063 ;; This function is called by:
  5064 ;;		_pow
  5065 ;;		_exp
  5066 ;;		_floor
  5067 ;;		_ldexp
  5068 ;;		_log
  5069 ;; This function uses a non-reentrant model
  5070 ;;
  5071                           
  5072     080B                     ___flge:	
  5073                           ;psect for function ___flge
  5074                           
  5075     080B                     l2580:	
  5076                           ;incstack = 0
  5077                           ; Regs used in ___flge: [wreg+status,2+status,0]
  5078                           
  5079     080B  3000               	movlw	0
  5080     080C  0570               	andwf	___flge@ff1,w
  5081     080D  00F8               	movwf	??___flge
  5082     080E  3000               	movlw	0
  5083     080F  0571               	andwf	___flge@ff1+1,w
  5084     0810  00F9               	movwf	??___flge+1
  5085     0811  3080               	movlw	128
  5086     0812  0572               	andwf	___flge@ff1+2,w
  5087     0813  00FA               	movwf	??___flge+2
  5088     0814  307F               	movlw	127
  5089     0815  0573               	andwf	___flge@ff1+3,w
  5090     0816  00FB               	movwf	??___flge+3
  5091     0817  087B               	movf	??___flge+3,w
  5092     0818  047A               	iorwf	??___flge+2,w
  5093     0819  0479               	iorwf	??___flge+1,w
  5094     081A  0478               	iorwf	??___flge,w
  5095     081B  1D03               	skipz
  5096     081C  281E               	goto	u3711
  5097     081D  281F               	goto	u3710
  5098     081E                     u3711:
  5099     081E  2827               	goto	l289
  5100     081F                     u3710:
  5101     081F                     l2582:
  5102     081F  3000               	movlw	0
  5103     0820  00F3               	movwf	___flge@ff1+3
  5104     0821  3000               	movlw	0
  5105     0822  00F2               	movwf	___flge@ff1+2
  5106     0823  3000               	movlw	0
  5107     0824  00F1               	movwf	___flge@ff1+1
  5108     0825  3000               	movlw	0
  5109     0826  00F0               	movwf	___flge@ff1
  5110     0827                     l289:
  5111     0827  3000               	movlw	0
  5112     0828  0574               	andwf	___flge@ff2,w
  5113     0829  00F8               	movwf	??___flge
  5114     082A  3000               	movlw	0
  5115     082B  0575               	andwf	___flge@ff2+1,w
  5116     082C  00F9               	movwf	??___flge+1
  5117     082D  3080               	movlw	128
  5118     082E  0576               	andwf	___flge@ff2+2,w
  5119     082F  00FA               	movwf	??___flge+2
  5120     0830  307F               	movlw	127
  5121     0831  0577               	andwf	___flge@ff2+3,w
  5122     0832  00FB               	movwf	??___flge+3
  5123     0833  087B               	movf	??___flge+3,w
  5124     0834  047A               	iorwf	??___flge+2,w
  5125     0835  0479               	iorwf	??___flge+1,w
  5126     0836  0478               	iorwf	??___flge,w
  5127     0837  1D03               	skipz
  5128     0838  283A               	goto	u3721
  5129     0839  283B               	goto	u3720
  5130     083A                     u3721:
  5131     083A  2843               	goto	l2586
  5132     083B                     u3720:
  5133     083B                     l2584:
  5134     083B  3000               	movlw	0
  5135     083C  00F7               	movwf	___flge@ff2+3
  5136     083D  3000               	movlw	0
  5137     083E  00F6               	movwf	___flge@ff2+2
  5138     083F  3000               	movlw	0
  5139     0840  00F5               	movwf	___flge@ff2+1
  5140     0841  3000               	movlw	0
  5141     0842  00F4               	movwf	___flge@ff2
  5142     0843                     l2586:
  5143     0843  1FF3               	btfss	___flge@ff1+3,7
  5144     0844  2846               	goto	u3731
  5145     0845  2847               	goto	u3730
  5146     0846                     u3731:
  5147     0846  286B               	goto	l2590
  5148     0847                     u3730:
  5149     0847                     l2588:
  5150     0847  3000               	movlw	0
  5151     0848  00F8               	movwf	??___flge
  5152     0849  3000               	movlw	0
  5153     084A  00F9               	movwf	??___flge+1
  5154     084B  3000               	movlw	0
  5155     084C  00FA               	movwf	??___flge+2
  5156     084D  3080               	movlw	128
  5157     084E  00FB               	movwf	??___flge+3
  5158     084F  0870               	movf	___flge@ff1,w
  5159     0850  02F8               	subwf	??___flge,f
  5160     0851  0871               	movf	___flge@ff1+1,w
  5161     0852  1C03               	skipc
  5162     0853  0F71               	incfsz	___flge@ff1+1,w
  5163     0854  2856               	goto	u3741
  5164     0855  2857               	goto	u3742
  5165     0856                     u3741:
  5166     0856  02F9               	subwf	??___flge+1,f
  5167     0857                     u3742:
  5168     0857  0872               	movf	___flge@ff1+2,w
  5169     0858  1C03               	skipc
  5170     0859  0F72               	incfsz	___flge@ff1+2,w
  5171     085A  285C               	goto	u3743
  5172     085B  285D               	goto	u3744
  5173     085C                     u3743:
  5174     085C  02FA               	subwf	??___flge+2,f
  5175     085D                     u3744:
  5176     085D  0873               	movf	___flge@ff1+3,w
  5177     085E  1C03               	skipc
  5178     085F  0F73               	incfsz	___flge@ff1+3,w
  5179     0860  2862               	goto	u3745
  5180     0861  2863               	goto	u3746
  5181     0862                     u3745:
  5182     0862  02FB               	subwf	??___flge+3,f
  5183     0863                     u3746:
  5184     0863  087B               	movf	??___flge+3,w
  5185     0864  00F3               	movwf	___flge@ff1+3
  5186     0865  087A               	movf	??___flge+2,w
  5187     0866  00F2               	movwf	___flge@ff1+2
  5188     0867  0879               	movf	??___flge+1,w
  5189     0868  00F1               	movwf	___flge@ff1+1
  5190     0869  0878               	movf	??___flge,w
  5191     086A  00F0               	movwf	___flge@ff1
  5192     086B                     l2590:
  5193     086B  1FF7               	btfss	___flge@ff2+3,7
  5194     086C  286E               	goto	u3751
  5195     086D  286F               	goto	u3750
  5196     086E                     u3751:
  5197     086E  2893               	goto	l292
  5198     086F                     u3750:
  5199     086F                     l2592:
  5200     086F  3000               	movlw	0
  5201     0870  00F8               	movwf	??___flge
  5202     0871  3000               	movlw	0
  5203     0872  00F9               	movwf	??___flge+1
  5204     0873  3000               	movlw	0
  5205     0874  00FA               	movwf	??___flge+2
  5206     0875  3080               	movlw	128
  5207     0876  00FB               	movwf	??___flge+3
  5208     0877  0874               	movf	___flge@ff2,w
  5209     0878  02F8               	subwf	??___flge,f
  5210     0879  0875               	movf	___flge@ff2+1,w
  5211     087A  1C03               	skipc
  5212     087B  0F75               	incfsz	___flge@ff2+1,w
  5213     087C  287E               	goto	u3761
  5214     087D  287F               	goto	u3762
  5215     087E                     u3761:
  5216     087E  02F9               	subwf	??___flge+1,f
  5217     087F                     u3762:
  5218     087F  0876               	movf	___flge@ff2+2,w
  5219     0880  1C03               	skipc
  5220     0881  0F76               	incfsz	___flge@ff2+2,w
  5221     0882  2884               	goto	u3763
  5222     0883  2885               	goto	u3764
  5223     0884                     u3763:
  5224     0884  02FA               	subwf	??___flge+2,f
  5225     0885                     u3764:
  5226     0885  0877               	movf	___flge@ff2+3,w
  5227     0886  1C03               	skipc
  5228     0887  0F77               	incfsz	___flge@ff2+3,w
  5229     0888  288A               	goto	u3765
  5230     0889  288B               	goto	u3766
  5231     088A                     u3765:
  5232     088A  02FB               	subwf	??___flge+3,f
  5233     088B                     u3766:
  5234     088B  087B               	movf	??___flge+3,w
  5235     088C  00F7               	movwf	___flge@ff2+3
  5236     088D  087A               	movf	??___flge+2,w
  5237     088E  00F6               	movwf	___flge@ff2+2
  5238     088F  0879               	movf	??___flge+1,w
  5239     0890  00F5               	movwf	___flge@ff2+1
  5240     0891  0878               	movf	??___flge,w
  5241     0892  00F4               	movwf	___flge@ff2
  5242     0893                     l292:
  5243     0893  3080               	movlw	128
  5244     0894  06F3               	xorwf	___flge@ff1+3,f
  5245     0895  3080               	movlw	128
  5246     0896  06F7               	xorwf	___flge@ff2+3,f
  5247     0897  0877               	movf	___flge@ff2+3,w
  5248     0898  0273               	subwf	___flge@ff1+3,w
  5249     0899  1D03               	skipz
  5250     089A  28A5               	goto	u3775
  5251     089B  0876               	movf	___flge@ff2+2,w
  5252     089C  0272               	subwf	___flge@ff1+2,w
  5253     089D  1D03               	skipz
  5254     089E  28A5               	goto	u3775
  5255     089F  0875               	movf	___flge@ff2+1,w
  5256     08A0  0271               	subwf	___flge@ff1+1,w
  5257     08A1  1D03               	skipz
  5258     08A2  28A5               	goto	u3775
  5259     08A3  0874               	movf	___flge@ff2,w
  5260     08A4  0270               	subwf	___flge@ff1,w
  5261     08A5                     u3775:
  5262     08A5  1803               	skipnc
  5263     08A6  28A8               	goto	u3771
  5264     08A7  28A9               	goto	u3770
  5265     08A8                     u3771:
  5266     08A8  28AB               	goto	l2596
  5267     08A9                     u3770:
  5268     08A9                     l2594:
  5269     08A9  1003               	clrc
  5270     08AA  28AC               	goto	l293
  5271     08AB                     l2596:
  5272     08AB  1403               	setc
  5273     08AC                     l293:
  5274     08AC  0008               	return
  5275     08AD                     __end_of___flge:
  5276                           
  5277                           	psect	text11
  5278     1208                     __ptext11:	
  5279 ;; *************** function _eval_poly *****************
  5280 ;; Defined at:
  5281 ;;		line 4 in file "C:\Program Files\Microchip\xc8\v2.40\pic\sources\c90\common\evalpoly.c"
  5282 ;; Parameters:    Size  Location     Type
  5283 ;;  x               4   65[BANK0 ] long 
  5284 ;;  d               1   69[BANK0 ] PTR const 
  5285 ;;		 -> log@coeff(36), exp@coeff(40), 
  5286 ;;  n               2   70[BANK0 ] int 
  5287 ;; Auto vars:     Size  Location     Type
  5288 ;;  res             4    0[BANK1 ] int 
  5289 ;; Return value:  Size  Location     Type
  5290 ;;                  4   65[BANK0 ] int 
  5291 ;; Registers used:
  5292 ;;		wreg, fsr0l, fsr0h, status,2, status,0, btemp+1, pclath, cstack
  5293 ;; Tracked objects:
  5294 ;;		On entry : 0/0
  5295 ;;		On exit  : 0/0
  5296 ;;		Unchanged: 0/0
  5297 ;; Data sizes:     COMMON   BANK0   BANK1   BANK3   BANK2
  5298 ;;      Params:         0       7       0       0       0
  5299 ;;      Locals:         0       0       4       0       0
  5300 ;;      Temps:          0       5       0       0       0
  5301 ;;      Totals:         0      12       4       0       0
  5302 ;;Total ram usage:       16 bytes
  5303 ;; Hardware stack levels used: 1
  5304 ;; Hardware stack levels required when called: 2
  5305 ;; This function calls:
  5306 ;;		___fladd
  5307 ;;		___flmul
  5308 ;; This function is called by:
  5309 ;;		_exp
  5310 ;;		_log
  5311 ;; This function uses a non-reentrant model
  5312 ;;
  5313                           
  5314     1208                     _eval_poly:	
  5315                           ;psect for function _eval_poly
  5316                           
  5317     1208                     l3032:	
  5318                           ;incstack = 0
  5319                           ; Regs used in _eval_poly: [wreg-fsr0h+status,2+status,0+btemp+1+pclath+cstack]
  5320                           
  5321     1208  1283               	bcf	3,5	;RP0=0, select bank0
  5322     1209  1303               	bcf	3,6	;RP1=0, select bank0
  5323     120A  0866               	movf	eval_poly@n,w
  5324     120B  00E8               	movwf	??_eval_poly
  5325     120C  3001               	movlw	1
  5326     120D                     u4805:
  5327     120D  1003               	clrc
  5328     120E  0DE8               	rlf	??_eval_poly,f
  5329     120F  3EFF               	addlw	-1
  5330     1210  1D03               	skipz
  5331     1211  2A0D               	goto	u4805
  5332     1212  1003               	clrc
  5333     1213  0D68               	rlf	??_eval_poly,w
  5334     1214  0765               	addwf	eval_poly@d,w
  5335     1215  0084               	movwf	4
  5336     1216  160A  118A  2000  160A  118A  	fcall	stringdir
  5337     121B  00E9               	movwf	??_eval_poly+1
  5338     121C  160A  118A  2000  160A  118A  	fcall	stringdir
  5339     1221  00EA               	movwf	??_eval_poly+2
  5340     1222  160A  118A  2000  160A  118A  	fcall	stringdir
  5341     1227  00EB               	movwf	??_eval_poly+3
  5342     1228  160A  118A  2000  160A  118A  	fcall	stringdir
  5343     122D  00EC               	movwf	??_eval_poly+4
  5344     122E  086C               	movf	??_eval_poly+4,w
  5345     122F  1683               	bsf	3,5	;RP0=1, select bank1
  5346     1230  1303               	bcf	3,6	;RP1=0, select bank1
  5347     1231  00A3               	movwf	(eval_poly@res+3)^(0+128)
  5348     1232  1283               	bcf	3,5	;RP0=0, select bank0
  5349     1233  1303               	bcf	3,6	;RP1=0, select bank0
  5350     1234  086B               	movf	??_eval_poly+3,w
  5351     1235  1683               	bsf	3,5	;RP0=1, select bank1
  5352     1236  1303               	bcf	3,6	;RP1=0, select bank1
  5353     1237  00A2               	movwf	(eval_poly@res+2)^(0+128)
  5354     1238  1283               	bcf	3,5	;RP0=0, select bank0
  5355     1239  1303               	bcf	3,6	;RP1=0, select bank0
  5356     123A  086A               	movf	??_eval_poly+2,w
  5357     123B  1683               	bsf	3,5	;RP0=1, select bank1
  5358     123C  1303               	bcf	3,6	;RP1=0, select bank1
  5359     123D  00A1               	movwf	(eval_poly@res+1)^(0+128)
  5360     123E  1283               	bcf	3,5	;RP0=0, select bank0
  5361     123F  1303               	bcf	3,6	;RP1=0, select bank0
  5362     1240  0869               	movf	??_eval_poly+1,w
  5363     1241  1683               	bsf	3,5	;RP0=1, select bank1
  5364     1242  1303               	bcf	3,6	;RP1=0, select bank1
  5365     1243  00A0               	movwf	eval_poly@res^(0+128)
  5366     1244  2AC3               	goto	l3036
  5367     1245                     l3034:
  5368     1245  30FF               	movlw	255
  5369     1246  07E6               	addwf	eval_poly@n,f
  5370     1247  1803               	skipnc
  5371     1248  0AE7               	incf	eval_poly@n+1,f
  5372     1249  30FF               	movlw	255
  5373     124A  07E7               	addwf	eval_poly@n+1,f
  5374     124B  0866               	movf	eval_poly@n,w
  5375     124C  00E8               	movwf	??_eval_poly
  5376     124D  3001               	movlw	1
  5377     124E                     u4815:
  5378     124E  1003               	clrc
  5379     124F  0DE8               	rlf	??_eval_poly,f
  5380     1250  3EFF               	addlw	-1
  5381     1251  1D03               	skipz
  5382     1252  2A4E               	goto	u4815
  5383     1253  1003               	clrc
  5384     1254  0D68               	rlf	??_eval_poly,w
  5385     1255  0765               	addwf	eval_poly@d,w
  5386     1256  0084               	movwf	4
  5387     1257  160A  118A  2000  160A  118A  	fcall	stringdir
  5388     125C  00E9               	movwf	??_eval_poly+1
  5389     125D  160A  118A  2000  160A  118A  	fcall	stringdir
  5390     1262  00EA               	movwf	??_eval_poly+2
  5391     1263  160A  118A  2000  160A  118A  	fcall	stringdir
  5392     1268  00EB               	movwf	??_eval_poly+3
  5393     1269  160A  118A  2000  160A  118A  	fcall	stringdir
  5394     126E  00EC               	movwf	??_eval_poly+4
  5395     126F  086C               	movf	??_eval_poly+4,w
  5396     1270  00D0               	movwf	___fladd@b+3
  5397     1271  086B               	movf	??_eval_poly+3,w
  5398     1272  00CF               	movwf	___fladd@b+2
  5399     1273  086A               	movf	??_eval_poly+2,w
  5400     1274  00CE               	movwf	___fladd@b+1
  5401     1275  0869               	movf	??_eval_poly+1,w
  5402     1276  00CD               	movwf	___fladd@b
  5403     1277  1683               	bsf	3,5	;RP0=1, select bank1
  5404     1278  1303               	bcf	3,6	;RP1=0, select bank1
  5405     1279  0823               	movf	(eval_poly@res+3)^(0+128),w
  5406     127A  1283               	bcf	3,5	;RP0=0, select bank0
  5407     127B  1303               	bcf	3,6	;RP1=0, select bank0
  5408     127C  00B6               	movwf	___flmul@b+3
  5409     127D  1683               	bsf	3,5	;RP0=1, select bank1
  5410     127E  1303               	bcf	3,6	;RP1=0, select bank1
  5411     127F  0822               	movf	(eval_poly@res+2)^(0+128),w
  5412     1280  1283               	bcf	3,5	;RP0=0, select bank0
  5413     1281  1303               	bcf	3,6	;RP1=0, select bank0
  5414     1282  00B5               	movwf	___flmul@b+2
  5415     1283  1683               	bsf	3,5	;RP0=1, select bank1
  5416     1284  1303               	bcf	3,6	;RP1=0, select bank1
  5417     1285  0821               	movf	(eval_poly@res+1)^(0+128),w
  5418     1286  1283               	bcf	3,5	;RP0=0, select bank0
  5419     1287  1303               	bcf	3,6	;RP1=0, select bank0
  5420     1288  00B4               	movwf	___flmul@b+1
  5421     1289  1683               	bsf	3,5	;RP0=1, select bank1
  5422     128A  1303               	bcf	3,6	;RP1=0, select bank1
  5423     128B  0820               	movf	eval_poly@res^(0+128),w
  5424     128C  1283               	bcf	3,5	;RP0=0, select bank0
  5425     128D  1303               	bcf	3,6	;RP1=0, select bank0
  5426     128E  00B3               	movwf	___flmul@b
  5427     128F  0864               	movf	eval_poly@x+3,w
  5428     1290  00BA               	movwf	___flmul@a+3
  5429     1291  0863               	movf	eval_poly@x+2,w
  5430     1292  00B9               	movwf	___flmul@a+2
  5431     1293  0862               	movf	eval_poly@x+1,w
  5432     1294  00B8               	movwf	___flmul@a+1
  5433     1295  0861               	movf	eval_poly@x,w
  5434     1296  00B7               	movwf	___flmul@a
  5435     1297  120A  158A  24BB  160A  118A  	fcall	___flmul
  5436     129C  1283               	bcf	3,5	;RP0=0, select bank0
  5437     129D  1303               	bcf	3,6	;RP1=0, select bank0
  5438     129E  0836               	movf	?___flmul+3,w
  5439     129F  00D4               	movwf	___fladd@a+3
  5440     12A0  0835               	movf	?___flmul+2,w
  5441     12A1  00D3               	movwf	___fladd@a+2
  5442     12A2  0834               	movf	?___flmul+1,w
  5443     12A3  00D2               	movwf	___fladd@a+1
  5444     12A4  0833               	movf	?___flmul,w
  5445     12A5  00D1               	movwf	___fladd@a
  5446     12A6  120A  118A  201D  160A  118A  	fcall	___fladd
  5447     12AB  1283               	bcf	3,5	;RP0=0, select bank0
  5448     12AC  1303               	bcf	3,6	;RP1=0, select bank0
  5449     12AD  0850               	movf	?___fladd+3,w
  5450     12AE  1683               	bsf	3,5	;RP0=1, select bank1
  5451     12AF  1303               	bcf	3,6	;RP1=0, select bank1
  5452     12B0  00A3               	movwf	(eval_poly@res+3)^(0+128)
  5453     12B1  1283               	bcf	3,5	;RP0=0, select bank0
  5454     12B2  1303               	bcf	3,6	;RP1=0, select bank0
  5455     12B3  084F               	movf	?___fladd+2,w
  5456     12B4  1683               	bsf	3,5	;RP0=1, select bank1
  5457     12B5  1303               	bcf	3,6	;RP1=0, select bank1
  5458     12B6  00A2               	movwf	(eval_poly@res+2)^(0+128)
  5459     12B7  1283               	bcf	3,5	;RP0=0, select bank0
  5460     12B8  1303               	bcf	3,6	;RP1=0, select bank0
  5461     12B9  084E               	movf	?___fladd+1,w
  5462     12BA  1683               	bsf	3,5	;RP0=1, select bank1
  5463     12BB  1303               	bcf	3,6	;RP1=0, select bank1
  5464     12BC  00A1               	movwf	(eval_poly@res+1)^(0+128)
  5465     12BD  1283               	bcf	3,5	;RP0=0, select bank0
  5466     12BE  1303               	bcf	3,6	;RP1=0, select bank0
  5467     12BF  084D               	movf	?___fladd,w
  5468     12C0  1683               	bsf	3,5	;RP0=1, select bank1
  5469     12C1  1303               	bcf	3,6	;RP1=0, select bank1
  5470     12C2  00A0               	movwf	eval_poly@res^(0+128)
  5471     12C3                     l3036:
  5472     12C3  1283               	bcf	3,5	;RP0=0, select bank0
  5473     12C4  1303               	bcf	3,6	;RP1=0, select bank0
  5474     12C5  0866               	movf	eval_poly@n,w
  5475     12C6  0467               	iorwf	eval_poly@n+1,w
  5476     12C7  1D03               	btfss	3,2
  5477     12C8  2ACA               	goto	u4821
  5478     12C9  2ACB               	goto	u4820
  5479     12CA                     u4821:
  5480     12CA  2A45               	goto	l3034
  5481     12CB                     u4820:
  5482     12CB                     l3038:
  5483     12CB  1683               	bsf	3,5	;RP0=1, select bank1
  5484     12CC  1303               	bcf	3,6	;RP1=0, select bank1
  5485     12CD  0823               	movf	(eval_poly@res+3)^(0+128),w
  5486     12CE  1283               	bcf	3,5	;RP0=0, select bank0
  5487     12CF  1303               	bcf	3,6	;RP1=0, select bank0
  5488     12D0  00E4               	movwf	?_eval_poly+3
  5489     12D1  1683               	bsf	3,5	;RP0=1, select bank1
  5490     12D2  1303               	bcf	3,6	;RP1=0, select bank1
  5491     12D3  0822               	movf	(eval_poly@res+2)^(0+128),w
  5492     12D4  1283               	bcf	3,5	;RP0=0, select bank0
  5493     12D5  1303               	bcf	3,6	;RP1=0, select bank0
  5494     12D6  00E3               	movwf	?_eval_poly+2
  5495     12D7  1683               	bsf	3,5	;RP0=1, select bank1
  5496     12D8  1303               	bcf	3,6	;RP1=0, select bank1
  5497     12D9  0821               	movf	(eval_poly@res+1)^(0+128),w
  5498     12DA  1283               	bcf	3,5	;RP0=0, select bank0
  5499     12DB  1303               	bcf	3,6	;RP1=0, select bank0
  5500     12DC  00E2               	movwf	?_eval_poly+1
  5501     12DD  1683               	bsf	3,5	;RP0=1, select bank1
  5502     12DE  1303               	bcf	3,6	;RP1=0, select bank1
  5503     12DF  0820               	movf	eval_poly@res^(0+128),w
  5504     12E0  1283               	bcf	3,5	;RP0=0, select bank0
  5505     12E1  1303               	bcf	3,6	;RP1=0, select bank0
  5506     12E2  00E1               	movwf	?_eval_poly
  5507     12E3                     l605:
  5508     12E3  0008               	return
  5509     12E4                     __end_of_eval_poly:
  5510                           
  5511                           	psect	text12
  5512     0CBB                     __ptext12:	
  5513 ;; *************** function ___flmul *****************
  5514 ;; Defined at:
  5515 ;;		line 8 in file "C:\Program Files\Microchip\xc8\v2.40\pic\sources\c90\common\sprcmul.c"
  5516 ;; Parameters:    Size  Location     Type
  5517 ;;  b               4   19[BANK0 ] int 
  5518 ;;  a               4   23[BANK0 ] int 
  5519 ;; Auto vars:     Size  Location     Type
  5520 ;;  prod            4   39[BANK0 ] struct .
  5521 ;;  grs             4   34[BANK0 ] unsigned long 
  5522 ;;  temp            2   43[BANK0 ] struct .
  5523 ;;  bexp            1   38[BANK0 ] unsigned char 
  5524 ;;  aexp            1   33[BANK0 ] unsigned char 
  5525 ;;  sign            1   32[BANK0 ] unsigned char 
  5526 ;; Return value:  Size  Location     Type
  5527 ;;                  4   19[BANK0 ] unsigned char 
  5528 ;; Registers used:
  5529 ;;		wreg, status,2, status,0, btemp+1, pclath, cstack
  5530 ;; Tracked objects:
  5531 ;;		On entry : 0/0
  5532 ;;		On exit  : 0/0
  5533 ;;		Unchanged: 0/0
  5534 ;; Data sizes:     COMMON   BANK0   BANK1   BANK3   BANK2
  5535 ;;      Params:         0       8       0       0       0
  5536 ;;      Locals:         0      13       0       0       0
  5537 ;;      Temps:          0       5       0       0       0
  5538 ;;      Totals:         0      26       0       0       0
  5539 ;;Total ram usage:       26 bytes
  5540 ;; Hardware stack levels used: 1
  5541 ;; Hardware stack levels required when called: 1
  5542 ;; This function calls:
  5543 ;;		__Umul8_16
  5544 ;; This function is called by:
  5545 ;;		_pow
  5546 ;;		_exp
  5547 ;;		_eval_poly
  5548 ;;		_log
  5549 ;; This function uses a non-reentrant model
  5550 ;;
  5551                           
  5552     0CBB                     ___flmul:	
  5553                           ;psect for function ___flmul
  5554                           
  5555     0CBB                     l2794:	
  5556                           ;incstack = 0
  5557                           ; Regs used in ___flmul: [wreg+status,2+status,0+btemp+1+pclath+cstack]
  5558                           
  5559     0CBB  1283               	bcf	3,5	;RP0=0, select bank0
  5560     0CBC  1303               	bcf	3,6	;RP1=0, select bank0
  5561     0CBD  0836               	movf	___flmul@b+3,w
  5562     0CBE  3980               	andlw	128
  5563     0CBF  00C0               	movwf	___flmul@sign
  5564     0CC0                     l2796:
  5565     0CC0  0836               	movf	___flmul@b+3,w
  5566     0CC1  00BB               	movwf	??___flmul
  5567     0CC2  073B               	addwf	??___flmul,w
  5568     0CC3  00C6               	movwf	___flmul@bexp
  5569     0CC4                     l2798:
  5570     0CC4  1FB5               	btfss	___flmul@b+2,7
  5571     0CC5  2CC7               	goto	u4241
  5572     0CC6  2CC8               	goto	u4240
  5573     0CC7                     u4241:
  5574     0CC7  2CC9               	goto	l2802
  5575     0CC8                     u4240:
  5576     0CC8                     l2800:
  5577     0CC8  1446               	bsf	___flmul@bexp,0
  5578     0CC9                     l2802:
  5579     0CC9  0846               	movf	___flmul@bexp,w
  5580     0CCA  1903               	btfsc	3,2
  5581     0CCB  2CCD               	goto	u4251
  5582     0CCC  2CCE               	goto	u4250
  5583     0CCD                     u4251:
  5584     0CCD  2CDD               	goto	l2810
  5585     0CCE                     u4250:
  5586     0CCE                     l2804:
  5587     0CCE  0A46               	incf	___flmul@bexp,w
  5588     0CCF  1D03               	btfss	3,2
  5589     0CD0  2CD2               	goto	u4261
  5590     0CD1  2CD3               	goto	u4260
  5591     0CD2                     u4261:
  5592     0CD2  2CDB               	goto	l2808
  5593     0CD3                     u4260:
  5594     0CD3                     l2806:
  5595     0CD3  3000               	movlw	0
  5596     0CD4  00B6               	movwf	___flmul@b+3
  5597     0CD5  3000               	movlw	0
  5598     0CD6  00B5               	movwf	___flmul@b+2
  5599     0CD7  3000               	movlw	0
  5600     0CD8  00B4               	movwf	___flmul@b+1
  5601     0CD9  3000               	movlw	0
  5602     0CDA  00B3               	movwf	___flmul@b
  5603     0CDB                     l2808:
  5604     0CDB  17B5               	bsf	___flmul@b+2,7
  5605     0CDC  2CE5               	goto	l2812
  5606     0CDD                     l2810:
  5607     0CDD  3000               	movlw	0
  5608     0CDE  00B6               	movwf	___flmul@b+3
  5609     0CDF  3000               	movlw	0
  5610     0CE0  00B5               	movwf	___flmul@b+2
  5611     0CE1  3000               	movlw	0
  5612     0CE2  00B4               	movwf	___flmul@b+1
  5613     0CE3  3000               	movlw	0
  5614     0CE4  00B3               	movwf	___flmul@b
  5615     0CE5                     l2812:
  5616     0CE5  083A               	movf	___flmul@a+3,w
  5617     0CE6  3980               	andlw	128
  5618     0CE7  00BB               	movwf	??___flmul
  5619     0CE8  083B               	movf	??___flmul,w
  5620     0CE9  06C0               	xorwf	___flmul@sign,f
  5621     0CEA                     l2814:
  5622     0CEA  083A               	movf	___flmul@a+3,w
  5623     0CEB  00BB               	movwf	??___flmul
  5624     0CEC  073B               	addwf	??___flmul,w
  5625     0CED  00C1               	movwf	___flmul@aexp
  5626     0CEE                     l2816:
  5627     0CEE  1FB9               	btfss	___flmul@a+2,7
  5628     0CEF  2CF1               	goto	u4271
  5629     0CF0  2CF2               	goto	u4270
  5630     0CF1                     u4271:
  5631     0CF1  2CF3               	goto	l2820
  5632     0CF2                     u4270:
  5633     0CF2                     l2818:
  5634     0CF2  1441               	bsf	___flmul@aexp,0
  5635     0CF3                     l2820:
  5636     0CF3  0841               	movf	___flmul@aexp,w
  5637     0CF4  1903               	btfsc	3,2
  5638     0CF5  2CF7               	goto	u4281
  5639     0CF6  2CF8               	goto	u4280
  5640     0CF7                     u4281:
  5641     0CF7  2D07               	goto	l2828
  5642     0CF8                     u4280:
  5643     0CF8                     l2822:
  5644     0CF8  0A41               	incf	___flmul@aexp,w
  5645     0CF9  1D03               	btfss	3,2
  5646     0CFA  2CFC               	goto	u4291
  5647     0CFB  2CFD               	goto	u4290
  5648     0CFC                     u4291:
  5649     0CFC  2D05               	goto	l2826
  5650     0CFD                     u4290:
  5651     0CFD                     l2824:
  5652     0CFD  3000               	movlw	0
  5653     0CFE  00BA               	movwf	___flmul@a+3
  5654     0CFF  3000               	movlw	0
  5655     0D00  00B9               	movwf	___flmul@a+2
  5656     0D01  3000               	movlw	0
  5657     0D02  00B8               	movwf	___flmul@a+1
  5658     0D03  3000               	movlw	0
  5659     0D04  00B7               	movwf	___flmul@a
  5660     0D05                     l2826:
  5661     0D05  17B9               	bsf	___flmul@a+2,7
  5662     0D06  2D0F               	goto	l2830
  5663     0D07                     l2828:
  5664     0D07  3000               	movlw	0
  5665     0D08  00BA               	movwf	___flmul@a+3
  5666     0D09  3000               	movlw	0
  5667     0D0A  00B9               	movwf	___flmul@a+2
  5668     0D0B  3000               	movlw	0
  5669     0D0C  00B8               	movwf	___flmul@a+1
  5670     0D0D  3000               	movlw	0
  5671     0D0E  00B7               	movwf	___flmul@a
  5672     0D0F                     l2830:
  5673     0D0F  0841               	movf	___flmul@aexp,w
  5674     0D10  1903               	btfsc	3,2
  5675     0D11  2D13               	goto	u4301
  5676     0D12  2D14               	goto	u4300
  5677     0D13                     u4301:
  5678     0D13  2D19               	goto	l2834
  5679     0D14                     u4300:
  5680     0D14                     l2832:
  5681     0D14  0846               	movf	___flmul@bexp,w
  5682     0D15  1D03               	btfss	3,2
  5683     0D16  2D18               	goto	u4311
  5684     0D17  2D19               	goto	u4310
  5685     0D18                     u4311:
  5686     0D18  2D22               	goto	l2838
  5687     0D19                     u4310:
  5688     0D19                     l2834:
  5689     0D19  3000               	movlw	0
  5690     0D1A  00B6               	movwf	?___flmul+3
  5691     0D1B  3000               	movlw	0
  5692     0D1C  00B5               	movwf	?___flmul+2
  5693     0D1D  3000               	movlw	0
  5694     0D1E  00B4               	movwf	?___flmul+1
  5695     0D1F  3000               	movlw	0
  5696     0D20  00B3               	movwf	?___flmul
  5697     0D21  2FFF               	goto	l504
  5698     0D22                     l2838:
  5699     0D22  0833               	movf	___flmul@b,w
  5700     0D23  00F0               	movwf	__Umul8_16@multiplicand
  5701     0D24  0839               	movf	___flmul@a+2,w
  5702     0D25  160A  158A  2789  120A  158A  	fcall	__Umul8_16
  5703     0D2A  0871               	movf	?__Umul8_16+1,w
  5704     0D2B  1283               	bcf	3,5	;RP0=0, select bank0
  5705     0D2C  1303               	bcf	3,6	;RP1=0, select bank0
  5706     0D2D  00CC               	movwf	___flmul@temp+1
  5707     0D2E  0870               	movf	?__Umul8_16,w
  5708     0D2F  00CB               	movwf	___flmul@temp
  5709     0D30                     l2840:
  5710     0D30  084B               	movf	___flmul@temp,w
  5711     0D31  00BB               	movwf	??___flmul
  5712     0D32  01BC               	clrf	??___flmul+1
  5713     0D33  01BD               	clrf	??___flmul+2
  5714     0D34  01BE               	clrf	??___flmul+3
  5715     0D35  083E               	movf	??___flmul+3,w
  5716     0D36  00C5               	movwf	___flmul@grs+3
  5717     0D37  083D               	movf	??___flmul+2,w
  5718     0D38  00C4               	movwf	___flmul@grs+2
  5719     0D39  083C               	movf	??___flmul+1,w
  5720     0D3A  00C3               	movwf	___flmul@grs+1
  5721     0D3B  083B               	movf	??___flmul,w
  5722     0D3C  00C2               	movwf	___flmul@grs
  5723     0D3D                     l2842:
  5724     0D3D  084C               	movf	___flmul@temp+1,w
  5725     0D3E  00BB               	movwf	??___flmul
  5726     0D3F  01BC               	clrf	??___flmul+1
  5727     0D40  01BD               	clrf	??___flmul+2
  5728     0D41  01BE               	clrf	??___flmul+3
  5729     0D42  083E               	movf	??___flmul+3,w
  5730     0D43  00CA               	movwf	___flmul@prod+3
  5731     0D44  083D               	movf	??___flmul+2,w
  5732     0D45  00C9               	movwf	___flmul@prod+2
  5733     0D46  083C               	movf	??___flmul+1,w
  5734     0D47  00C8               	movwf	___flmul@prod+1
  5735     0D48  083B               	movf	??___flmul,w
  5736     0D49  00C7               	movwf	___flmul@prod
  5737     0D4A  0834               	movf	___flmul@b+1,w
  5738     0D4B  00F0               	movwf	__Umul8_16@multiplicand
  5739     0D4C  0838               	movf	___flmul@a+1,w
  5740     0D4D  160A  158A  2789  120A  158A  	fcall	__Umul8_16
  5741     0D52  0871               	movf	?__Umul8_16+1,w
  5742     0D53  1283               	bcf	3,5	;RP0=0, select bank0
  5743     0D54  1303               	bcf	3,6	;RP1=0, select bank0
  5744     0D55  00CC               	movwf	___flmul@temp+1
  5745     0D56  0870               	movf	?__Umul8_16,w
  5746     0D57  00CB               	movwf	___flmul@temp
  5747     0D58                     l2844:
  5748     0D58  084B               	movf	___flmul@temp,w
  5749     0D59  00BB               	movwf	??___flmul
  5750     0D5A  01BC               	clrf	??___flmul+1
  5751     0D5B  01BD               	clrf	??___flmul+2
  5752     0D5C  01BE               	clrf	??___flmul+3
  5753     0D5D  083B               	movf	??___flmul,w
  5754     0D5E  07C2               	addwf	___flmul@grs,f
  5755     0D5F  083C               	movf	??___flmul+1,w
  5756     0D60  1103               	clrz
  5757     0D61  1803               	skipnc
  5758     0D62  3E01               	addlw	1
  5759     0D63  1903               	skipnz
  5760     0D64  2D66               	goto	u4321
  5761     0D65  07C3               	addwf	___flmul@grs+1,f
  5762     0D66                     u4321:
  5763     0D66  083D               	movf	??___flmul+2,w
  5764     0D67  1103               	clrz
  5765     0D68  1803               	skipnc
  5766     0D69  3E01               	addlw	1
  5767     0D6A  1903               	skipnz
  5768     0D6B  2D6D               	goto	u4322
  5769     0D6C  07C4               	addwf	___flmul@grs+2,f
  5770     0D6D                     u4322:
  5771     0D6D  083E               	movf	??___flmul+3,w
  5772     0D6E  1103               	clrz
  5773     0D6F  1803               	skipnc
  5774     0D70  3E01               	addlw	1
  5775     0D71  1903               	skipnz
  5776     0D72  2D74               	goto	u4323
  5777     0D73  07C5               	addwf	___flmul@grs+3,f
  5778     0D74                     u4323:
  5779     0D74                     l2846:
  5780     0D74  084C               	movf	___flmul@temp+1,w
  5781     0D75  00BB               	movwf	??___flmul
  5782     0D76  01BC               	clrf	??___flmul+1
  5783     0D77  01BD               	clrf	??___flmul+2
  5784     0D78  01BE               	clrf	??___flmul+3
  5785     0D79  083B               	movf	??___flmul,w
  5786     0D7A  07C7               	addwf	___flmul@prod,f
  5787     0D7B  083C               	movf	??___flmul+1,w
  5788     0D7C  1103               	clrz
  5789     0D7D  1803               	skipnc
  5790     0D7E  3E01               	addlw	1
  5791     0D7F  1903               	skipnz
  5792     0D80  2D82               	goto	u4331
  5793     0D81  07C8               	addwf	___flmul@prod+1,f
  5794     0D82                     u4331:
  5795     0D82  083D               	movf	??___flmul+2,w
  5796     0D83  1103               	clrz
  5797     0D84  1803               	skipnc
  5798     0D85  3E01               	addlw	1
  5799     0D86  1903               	skipnz
  5800     0D87  2D89               	goto	u4332
  5801     0D88  07C9               	addwf	___flmul@prod+2,f
  5802     0D89                     u4332:
  5803     0D89  083E               	movf	??___flmul+3,w
  5804     0D8A  1103               	clrz
  5805     0D8B  1803               	skipnc
  5806     0D8C  3E01               	addlw	1
  5807     0D8D  1903               	skipnz
  5808     0D8E  2D90               	goto	u4333
  5809     0D8F  07CA               	addwf	___flmul@prod+3,f
  5810     0D90                     u4333:
  5811     0D90  0835               	movf	___flmul@b+2,w
  5812     0D91  00F0               	movwf	__Umul8_16@multiplicand
  5813     0D92  0837               	movf	___flmul@a,w
  5814     0D93  160A  158A  2789  120A  158A  	fcall	__Umul8_16
  5815     0D98  0871               	movf	?__Umul8_16+1,w
  5816     0D99  1283               	bcf	3,5	;RP0=0, select bank0
  5817     0D9A  1303               	bcf	3,6	;RP1=0, select bank0
  5818     0D9B  00CC               	movwf	___flmul@temp+1
  5819     0D9C  0870               	movf	?__Umul8_16,w
  5820     0D9D  00CB               	movwf	___flmul@temp
  5821     0D9E                     l2848:
  5822     0D9E  084B               	movf	___flmul@temp,w
  5823     0D9F  00BB               	movwf	??___flmul
  5824     0DA0  01BC               	clrf	??___flmul+1
  5825     0DA1  01BD               	clrf	??___flmul+2
  5826     0DA2  01BE               	clrf	??___flmul+3
  5827     0DA3  083B               	movf	??___flmul,w
  5828     0DA4  07C2               	addwf	___flmul@grs,f
  5829     0DA5  083C               	movf	??___flmul+1,w
  5830     0DA6  1103               	clrz
  5831     0DA7  1803               	skipnc
  5832     0DA8  3E01               	addlw	1
  5833     0DA9  1903               	skipnz
  5834     0DAA  2DAC               	goto	u4341
  5835     0DAB  07C3               	addwf	___flmul@grs+1,f
  5836     0DAC                     u4341:
  5837     0DAC  083D               	movf	??___flmul+2,w
  5838     0DAD  1103               	clrz
  5839     0DAE  1803               	skipnc
  5840     0DAF  3E01               	addlw	1
  5841     0DB0  1903               	skipnz
  5842     0DB1  2DB3               	goto	u4342
  5843     0DB2  07C4               	addwf	___flmul@grs+2,f
  5844     0DB3                     u4342:
  5845     0DB3  083E               	movf	??___flmul+3,w
  5846     0DB4  1103               	clrz
  5847     0DB5  1803               	skipnc
  5848     0DB6  3E01               	addlw	1
  5849     0DB7  1903               	skipnz
  5850     0DB8  2DBA               	goto	u4343
  5851     0DB9  07C5               	addwf	___flmul@grs+3,f
  5852     0DBA                     u4343:
  5853     0DBA                     l2850:
  5854     0DBA  084C               	movf	___flmul@temp+1,w
  5855     0DBB  00BB               	movwf	??___flmul
  5856     0DBC  01BC               	clrf	??___flmul+1
  5857     0DBD  01BD               	clrf	??___flmul+2
  5858     0DBE  01BE               	clrf	??___flmul+3
  5859     0DBF  083B               	movf	??___flmul,w
  5860     0DC0  07C7               	addwf	___flmul@prod,f
  5861     0DC1  083C               	movf	??___flmul+1,w
  5862     0DC2  1103               	clrz
  5863     0DC3  1803               	skipnc
  5864     0DC4  3E01               	addlw	1
  5865     0DC5  1903               	skipnz
  5866     0DC6  2DC8               	goto	u4351
  5867     0DC7  07C8               	addwf	___flmul@prod+1,f
  5868     0DC8                     u4351:
  5869     0DC8  083D               	movf	??___flmul+2,w
  5870     0DC9  1103               	clrz
  5871     0DCA  1803               	skipnc
  5872     0DCB  3E01               	addlw	1
  5873     0DCC  1903               	skipnz
  5874     0DCD  2DCF               	goto	u4352
  5875     0DCE  07C9               	addwf	___flmul@prod+2,f
  5876     0DCF                     u4352:
  5877     0DCF  083E               	movf	??___flmul+3,w
  5878     0DD0  1103               	clrz
  5879     0DD1  1803               	skipnc
  5880     0DD2  3E01               	addlw	1
  5881     0DD3  1903               	skipnz
  5882     0DD4  2DD6               	goto	u4353
  5883     0DD5  07CA               	addwf	___flmul@prod+3,f
  5884     0DD6                     u4353:
  5885     0DD6                     l2852:
  5886     0DD6  3008               	movlw	8
  5887     0DD7  00BB               	movwf	??___flmul
  5888     0DD8                     u4365:
  5889     0DD8  1003               	clrc
  5890     0DD9  0DC2               	rlf	___flmul@grs,f
  5891     0DDA  0DC3               	rlf	___flmul@grs+1,f
  5892     0DDB  0DC4               	rlf	___flmul@grs+2,f
  5893     0DDC  0DC5               	rlf	___flmul@grs+3,f
  5894     0DDD  0BBB               	decfsz	??___flmul,f
  5895     0DDE  2DD8               	goto	u4365
  5896     0DDF                     l2854:
  5897     0DDF  0834               	movf	___flmul@b+1,w
  5898     0DE0  00F0               	movwf	__Umul8_16@multiplicand
  5899     0DE1  0837               	movf	___flmul@a,w
  5900     0DE2  160A  158A  2789  120A  158A  	fcall	__Umul8_16
  5901     0DE7  0871               	movf	?__Umul8_16+1,w
  5902     0DE8  1283               	bcf	3,5	;RP0=0, select bank0
  5903     0DE9  1303               	bcf	3,6	;RP1=0, select bank0
  5904     0DEA  00CC               	movwf	___flmul@temp+1
  5905     0DEB  0870               	movf	?__Umul8_16,w
  5906     0DEC  00CB               	movwf	___flmul@temp
  5907     0DED                     l2856:
  5908     0DED  084B               	movf	___flmul@temp,w
  5909     0DEE  00BB               	movwf	??___flmul
  5910     0DEF  084C               	movf	___flmul@temp+1,w
  5911     0DF0  00BC               	movwf	??___flmul+1
  5912     0DF1  01BD               	clrf	??___flmul+2
  5913     0DF2  01BE               	clrf	??___flmul+3
  5914     0DF3  083B               	movf	??___flmul,w
  5915     0DF4  07C2               	addwf	___flmul@grs,f
  5916     0DF5  083C               	movf	??___flmul+1,w
  5917     0DF6  1103               	clrz
  5918     0DF7  1803               	skipnc
  5919     0DF8  3E01               	addlw	1
  5920     0DF9  1903               	skipnz
  5921     0DFA  2DFC               	goto	u4371
  5922     0DFB  07C3               	addwf	___flmul@grs+1,f
  5923     0DFC                     u4371:
  5924     0DFC  083D               	movf	??___flmul+2,w
  5925     0DFD  1103               	clrz
  5926     0DFE  1803               	skipnc
  5927     0DFF  3E01               	addlw	1
  5928     0E00  1903               	skipnz
  5929     0E01  2E03               	goto	u4372
  5930     0E02  07C4               	addwf	___flmul@grs+2,f
  5931     0E03                     u4372:
  5932     0E03  083E               	movf	??___flmul+3,w
  5933     0E04  1103               	clrz
  5934     0E05  1803               	skipnc
  5935     0E06  3E01               	addlw	1
  5936     0E07  1903               	skipnz
  5937     0E08  2E0A               	goto	u4373
  5938     0E09  07C5               	addwf	___flmul@grs+3,f
  5939     0E0A                     u4373:
  5940     0E0A                     l2858:
  5941     0E0A  0833               	movf	___flmul@b,w
  5942     0E0B  00F0               	movwf	__Umul8_16@multiplicand
  5943     0E0C  0838               	movf	___flmul@a+1,w
  5944     0E0D  160A  158A  2789  120A  158A  	fcall	__Umul8_16
  5945     0E12  0871               	movf	?__Umul8_16+1,w
  5946     0E13  1283               	bcf	3,5	;RP0=0, select bank0
  5947     0E14  1303               	bcf	3,6	;RP1=0, select bank0
  5948     0E15  00CC               	movwf	___flmul@temp+1
  5949     0E16  0870               	movf	?__Umul8_16,w
  5950     0E17  00CB               	movwf	___flmul@temp
  5951     0E18                     l2860:
  5952     0E18  084B               	movf	___flmul@temp,w
  5953     0E19  00BB               	movwf	??___flmul
  5954     0E1A  084C               	movf	___flmul@temp+1,w
  5955     0E1B  00BC               	movwf	??___flmul+1
  5956     0E1C  01BD               	clrf	??___flmul+2
  5957     0E1D  01BE               	clrf	??___flmul+3
  5958     0E1E  083B               	movf	??___flmul,w
  5959     0E1F  07C2               	addwf	___flmul@grs,f
  5960     0E20  083C               	movf	??___flmul+1,w
  5961     0E21  1103               	clrz
  5962     0E22  1803               	skipnc
  5963     0E23  3E01               	addlw	1
  5964     0E24  1903               	skipnz
  5965     0E25  2E27               	goto	u4381
  5966     0E26  07C3               	addwf	___flmul@grs+1,f
  5967     0E27                     u4381:
  5968     0E27  083D               	movf	??___flmul+2,w
  5969     0E28  1103               	clrz
  5970     0E29  1803               	skipnc
  5971     0E2A  3E01               	addlw	1
  5972     0E2B  1903               	skipnz
  5973     0E2C  2E2E               	goto	u4382
  5974     0E2D  07C4               	addwf	___flmul@grs+2,f
  5975     0E2E                     u4382:
  5976     0E2E  083E               	movf	??___flmul+3,w
  5977     0E2F  1103               	clrz
  5978     0E30  1803               	skipnc
  5979     0E31  3E01               	addlw	1
  5980     0E32  1903               	skipnz
  5981     0E33  2E35               	goto	u4383
  5982     0E34  07C5               	addwf	___flmul@grs+3,f
  5983     0E35                     u4383:
  5984     0E35                     l2862:
  5985     0E35  3008               	movlw	8
  5986     0E36  00BB               	movwf	??___flmul
  5987     0E37                     u4395:
  5988     0E37  1003               	clrc
  5989     0E38  0DC2               	rlf	___flmul@grs,f
  5990     0E39  0DC3               	rlf	___flmul@grs+1,f
  5991     0E3A  0DC4               	rlf	___flmul@grs+2,f
  5992     0E3B  0DC5               	rlf	___flmul@grs+3,f
  5993     0E3C  0BBB               	decfsz	??___flmul,f
  5994     0E3D  2E37               	goto	u4395
  5995     0E3E  0833               	movf	___flmul@b,w
  5996     0E3F  00F0               	movwf	__Umul8_16@multiplicand
  5997     0E40  0837               	movf	___flmul@a,w
  5998     0E41  160A  158A  2789  120A  158A  	fcall	__Umul8_16
  5999     0E46  0871               	movf	?__Umul8_16+1,w
  6000     0E47  1283               	bcf	3,5	;RP0=0, select bank0
  6001     0E48  1303               	bcf	3,6	;RP1=0, select bank0
  6002     0E49  00CC               	movwf	___flmul@temp+1
  6003     0E4A  0870               	movf	?__Umul8_16,w
  6004     0E4B  00CB               	movwf	___flmul@temp
  6005     0E4C                     l2864:
  6006     0E4C  084B               	movf	___flmul@temp,w
  6007     0E4D  00BB               	movwf	??___flmul
  6008     0E4E  084C               	movf	___flmul@temp+1,w
  6009     0E4F  00BC               	movwf	??___flmul+1
  6010     0E50  01BD               	clrf	??___flmul+2
  6011     0E51  01BE               	clrf	??___flmul+3
  6012     0E52  083B               	movf	??___flmul,w
  6013     0E53  07C2               	addwf	___flmul@grs,f
  6014     0E54  083C               	movf	??___flmul+1,w
  6015     0E55  1103               	clrz
  6016     0E56  1803               	skipnc
  6017     0E57  3E01               	addlw	1
  6018     0E58  1903               	skipnz
  6019     0E59  2E5B               	goto	u4401
  6020     0E5A  07C3               	addwf	___flmul@grs+1,f
  6021     0E5B                     u4401:
  6022     0E5B  083D               	movf	??___flmul+2,w
  6023     0E5C  1103               	clrz
  6024     0E5D  1803               	skipnc
  6025     0E5E  3E01               	addlw	1
  6026     0E5F  1903               	skipnz
  6027     0E60  2E62               	goto	u4402
  6028     0E61  07C4               	addwf	___flmul@grs+2,f
  6029     0E62                     u4402:
  6030     0E62  083E               	movf	??___flmul+3,w
  6031     0E63  1103               	clrz
  6032     0E64  1803               	skipnc
  6033     0E65  3E01               	addlw	1
  6034     0E66  1903               	skipnz
  6035     0E67  2E69               	goto	u4403
  6036     0E68  07C5               	addwf	___flmul@grs+3,f
  6037     0E69                     u4403:
  6038     0E69                     l2866:
  6039     0E69  0834               	movf	___flmul@b+1,w
  6040     0E6A  00F0               	movwf	__Umul8_16@multiplicand
  6041     0E6B  0839               	movf	___flmul@a+2,w
  6042     0E6C  160A  158A  2789  120A  158A  	fcall	__Umul8_16
  6043     0E71  0871               	movf	?__Umul8_16+1,w
  6044     0E72  1283               	bcf	3,5	;RP0=0, select bank0
  6045     0E73  1303               	bcf	3,6	;RP1=0, select bank0
  6046     0E74  00CC               	movwf	___flmul@temp+1
  6047     0E75  0870               	movf	?__Umul8_16,w
  6048     0E76  00CB               	movwf	___flmul@temp
  6049     0E77  084B               	movf	___flmul@temp,w
  6050     0E78  00BB               	movwf	??___flmul
  6051     0E79  084C               	movf	___flmul@temp+1,w
  6052     0E7A  00BC               	movwf	??___flmul+1
  6053     0E7B  01BD               	clrf	??___flmul+2
  6054     0E7C  01BE               	clrf	??___flmul+3
  6055     0E7D  083B               	movf	??___flmul,w
  6056     0E7E  07C7               	addwf	___flmul@prod,f
  6057     0E7F  083C               	movf	??___flmul+1,w
  6058     0E80  1103               	clrz
  6059     0E81  1803               	skipnc
  6060     0E82  3E01               	addlw	1
  6061     0E83  1903               	skipnz
  6062     0E84  2E86               	goto	u4411
  6063     0E85  07C8               	addwf	___flmul@prod+1,f
  6064     0E86                     u4411:
  6065     0E86  083D               	movf	??___flmul+2,w
  6066     0E87  1103               	clrz
  6067     0E88  1803               	skipnc
  6068     0E89  3E01               	addlw	1
  6069     0E8A  1903               	skipnz
  6070     0E8B  2E8D               	goto	u4412
  6071     0E8C  07C9               	addwf	___flmul@prod+2,f
  6072     0E8D                     u4412:
  6073     0E8D  083E               	movf	??___flmul+3,w
  6074     0E8E  1103               	clrz
  6075     0E8F  1803               	skipnc
  6076     0E90  3E01               	addlw	1
  6077     0E91  1903               	skipnz
  6078     0E92  2E94               	goto	u4413
  6079     0E93  07CA               	addwf	___flmul@prod+3,f
  6080     0E94                     u4413:
  6081     0E94                     l2868:
  6082     0E94  0835               	movf	___flmul@b+2,w
  6083     0E95  00F0               	movwf	__Umul8_16@multiplicand
  6084     0E96  0838               	movf	___flmul@a+1,w
  6085     0E97  160A  158A  2789  120A  158A  	fcall	__Umul8_16
  6086     0E9C  0871               	movf	?__Umul8_16+1,w
  6087     0E9D  1283               	bcf	3,5	;RP0=0, select bank0
  6088     0E9E  1303               	bcf	3,6	;RP1=0, select bank0
  6089     0E9F  00CC               	movwf	___flmul@temp+1
  6090     0EA0  0870               	movf	?__Umul8_16,w
  6091     0EA1  00CB               	movwf	___flmul@temp
  6092     0EA2                     l2870:
  6093     0EA2  084B               	movf	___flmul@temp,w
  6094     0EA3  00BB               	movwf	??___flmul
  6095     0EA4  084C               	movf	___flmul@temp+1,w
  6096     0EA5  00BC               	movwf	??___flmul+1
  6097     0EA6  01BD               	clrf	??___flmul+2
  6098     0EA7  01BE               	clrf	??___flmul+3
  6099     0EA8  083B               	movf	??___flmul,w
  6100     0EA9  07C7               	addwf	___flmul@prod,f
  6101     0EAA  083C               	movf	??___flmul+1,w
  6102     0EAB  1103               	clrz
  6103     0EAC  1803               	skipnc
  6104     0EAD  3E01               	addlw	1
  6105     0EAE  1903               	skipnz
  6106     0EAF  2EB1               	goto	u4421
  6107     0EB0  07C8               	addwf	___flmul@prod+1,f
  6108     0EB1                     u4421:
  6109     0EB1  083D               	movf	??___flmul+2,w
  6110     0EB2  1103               	clrz
  6111     0EB3  1803               	skipnc
  6112     0EB4  3E01               	addlw	1
  6113     0EB5  1903               	skipnz
  6114     0EB6  2EB8               	goto	u4422
  6115     0EB7  07C9               	addwf	___flmul@prod+2,f
  6116     0EB8                     u4422:
  6117     0EB8  083E               	movf	??___flmul+3,w
  6118     0EB9  1103               	clrz
  6119     0EBA  1803               	skipnc
  6120     0EBB  3E01               	addlw	1
  6121     0EBC  1903               	skipnz
  6122     0EBD  2EBF               	goto	u4423
  6123     0EBE  07CA               	addwf	___flmul@prod+3,f
  6124     0EBF                     u4423:
  6125     0EBF  0835               	movf	___flmul@b+2,w
  6126     0EC0  00F0               	movwf	__Umul8_16@multiplicand
  6127     0EC1  0839               	movf	___flmul@a+2,w
  6128     0EC2  160A  158A  2789  120A  158A  	fcall	__Umul8_16
  6129     0EC7  0871               	movf	?__Umul8_16+1,w
  6130     0EC8  1283               	bcf	3,5	;RP0=0, select bank0
  6131     0EC9  1303               	bcf	3,6	;RP1=0, select bank0
  6132     0ECA  00CC               	movwf	___flmul@temp+1
  6133     0ECB  0870               	movf	?__Umul8_16,w
  6134     0ECC  00CB               	movwf	___flmul@temp
  6135     0ECD                     l2872:
  6136     0ECD  084B               	movf	___flmul@temp,w
  6137     0ECE  00BB               	movwf	??___flmul
  6138     0ECF  084C               	movf	___flmul@temp+1,w
  6139     0ED0  00BC               	movwf	??___flmul+1
  6140     0ED1  01BD               	clrf	??___flmul+2
  6141     0ED2  01BE               	clrf	??___flmul+3
  6142     0ED3  3008               	movlw	8
  6143     0ED4                     u4435:
  6144     0ED4  1003               	clrc
  6145     0ED5  0DBB               	rlf	??___flmul,f
  6146     0ED6  0DBC               	rlf	??___flmul+1,f
  6147     0ED7  0DBD               	rlf	??___flmul+2,f
  6148     0ED8  0DBE               	rlf	??___flmul+3,f
  6149     0ED9                     u4430:
  6150     0ED9  3EFF               	addlw	-1
  6151     0EDA  1D03               	skipz
  6152     0EDB  2ED4               	goto	u4435
  6153     0EDC  083B               	movf	??___flmul,w
  6154     0EDD  07C7               	addwf	___flmul@prod,f
  6155     0EDE  083C               	movf	??___flmul+1,w
  6156     0EDF  1103               	clrz
  6157     0EE0  1803               	skipnc
  6158     0EE1  3E01               	addlw	1
  6159     0EE2  1903               	skipnz
  6160     0EE3  2EE5               	goto	u4441
  6161     0EE4  07C8               	addwf	___flmul@prod+1,f
  6162     0EE5                     u4441:
  6163     0EE5  083D               	movf	??___flmul+2,w
  6164     0EE6  1103               	clrz
  6165     0EE7  1803               	skipnc
  6166     0EE8  3E01               	addlw	1
  6167     0EE9  1903               	skipnz
  6168     0EEA  2EEC               	goto	u4442
  6169     0EEB  07C9               	addwf	___flmul@prod+2,f
  6170     0EEC                     u4442:
  6171     0EEC  083E               	movf	??___flmul+3,w
  6172     0EED  1103               	clrz
  6173     0EEE  1803               	skipnc
  6174     0EEF  3E01               	addlw	1
  6175     0EF0  1903               	skipnz
  6176     0EF1  2EF3               	goto	u4443
  6177     0EF2  07CA               	addwf	___flmul@prod+3,f
  6178     0EF3                     u4443:
  6179     0EF3                     l2874:
  6180     0EF3  0842               	movf	___flmul@grs,w
  6181     0EF4  00BB               	movwf	??___flmul
  6182     0EF5  0843               	movf	___flmul@grs+1,w
  6183     0EF6  00BC               	movwf	??___flmul+1
  6184     0EF7  0844               	movf	___flmul@grs+2,w
  6185     0EF8  00BD               	movwf	??___flmul+2
  6186     0EF9  0845               	movf	___flmul@grs+3,w
  6187     0EFA  00BE               	movwf	??___flmul+3
  6188     0EFB  3018               	movlw	24
  6189     0EFC                     u4455:
  6190     0EFC  1003               	clrc
  6191     0EFD  0CBE               	rrf	??___flmul+3,f
  6192     0EFE  0CBD               	rrf	??___flmul+2,f
  6193     0EFF  0CBC               	rrf	??___flmul+1,f
  6194     0F00  0CBB               	rrf	??___flmul,f
  6195     0F01                     u4450:
  6196     0F01  3EFF               	addlw	-1
  6197     0F02  1D03               	skipz
  6198     0F03  2EFC               	goto	u4455
  6199     0F04  083B               	movf	??___flmul,w
  6200     0F05  07C7               	addwf	___flmul@prod,f
  6201     0F06  083C               	movf	??___flmul+1,w
  6202     0F07  1103               	clrz
  6203     0F08  1803               	skipnc
  6204     0F09  3E01               	addlw	1
  6205     0F0A  1903               	skipnz
  6206     0F0B  2F0D               	goto	u4461
  6207     0F0C  07C8               	addwf	___flmul@prod+1,f
  6208     0F0D                     u4461:
  6209     0F0D  083D               	movf	??___flmul+2,w
  6210     0F0E  1103               	clrz
  6211     0F0F  1803               	skipnc
  6212     0F10  3E01               	addlw	1
  6213     0F11  1903               	skipnz
  6214     0F12  2F14               	goto	u4462
  6215     0F13  07C9               	addwf	___flmul@prod+2,f
  6216     0F14                     u4462:
  6217     0F14  083E               	movf	??___flmul+3,w
  6218     0F15  1103               	clrz
  6219     0F16  1803               	skipnc
  6220     0F17  3E01               	addlw	1
  6221     0F18  1903               	skipnz
  6222     0F19  2F1B               	goto	u4463
  6223     0F1A  07CA               	addwf	___flmul@prod+3,f
  6224     0F1B                     u4463:
  6225     0F1B                     l2876:
  6226     0F1B  3008               	movlw	8
  6227     0F1C  00BB               	movwf	??___flmul
  6228     0F1D                     u4475:
  6229     0F1D  1003               	clrc
  6230     0F1E  0DC2               	rlf	___flmul@grs,f
  6231     0F1F  0DC3               	rlf	___flmul@grs+1,f
  6232     0F20  0DC4               	rlf	___flmul@grs+2,f
  6233     0F21  0DC5               	rlf	___flmul@grs+3,f
  6234     0F22  0BBB               	decfsz	??___flmul,f
  6235     0F23  2F1D               	goto	u4475
  6236     0F24                     l2878:
  6237     0F24  0846               	movf	___flmul@bexp,w
  6238     0F25  0741               	addwf	___flmul@aexp,w
  6239     0F26  00BB               	movwf	??___flmul
  6240     0F27  01BC               	clrf	??___flmul+1
  6241     0F28  0DBC               	rlf	??___flmul+1,f
  6242     0F29  083B               	movf	??___flmul,w
  6243     0F2A  3E82               	addlw	130
  6244     0F2B  00CB               	movwf	___flmul@temp
  6245     0F2C  083C               	movf	??___flmul+1,w
  6246     0F2D  1803               	skipnc
  6247     0F2E  3E01               	addlw	1
  6248     0F2F  3EFF               	addlw	255
  6249     0F30  00CC               	movwf	___flmul@temp+1
  6250     0F31  2F4F               	goto	l2890
  6251     0F32                     l2880:
  6252     0F32  3001               	movlw	1
  6253     0F33  00BB               	movwf	??___flmul
  6254     0F34                     u4485:
  6255     0F34  1003               	clrc
  6256     0F35  0DC7               	rlf	___flmul@prod,f
  6257     0F36  0DC8               	rlf	___flmul@prod+1,f
  6258     0F37  0DC9               	rlf	___flmul@prod+2,f
  6259     0F38  0DCA               	rlf	___flmul@prod+3,f
  6260     0F39  0BBB               	decfsz	??___flmul,f
  6261     0F3A  2F34               	goto	u4485
  6262     0F3B                     l2882:
  6263     0F3B  1FC5               	btfss	___flmul@grs+3,7
  6264     0F3C  2F3E               	goto	u4491
  6265     0F3D  2F3F               	goto	u4490
  6266     0F3E                     u4491:
  6267     0F3E  2F40               	goto	l2886
  6268     0F3F                     u4490:
  6269     0F3F                     l2884:
  6270     0F3F  1447               	bsf	___flmul@prod,0
  6271     0F40                     l2886:
  6272     0F40  3001               	movlw	1
  6273     0F41  00BB               	movwf	??___flmul
  6274     0F42                     u4505:
  6275     0F42  1003               	clrc
  6276     0F43  0DC2               	rlf	___flmul@grs,f
  6277     0F44  0DC3               	rlf	___flmul@grs+1,f
  6278     0F45  0DC4               	rlf	___flmul@grs+2,f
  6279     0F46  0DC5               	rlf	___flmul@grs+3,f
  6280     0F47  0BBB               	decfsz	??___flmul,f
  6281     0F48  2F42               	goto	u4505
  6282     0F49                     l2888:
  6283     0F49  30FF               	movlw	255
  6284     0F4A  07CB               	addwf	___flmul@temp,f
  6285     0F4B  1803               	skipnc
  6286     0F4C  0ACC               	incf	___flmul@temp+1,f
  6287     0F4D  30FF               	movlw	255
  6288     0F4E  07CC               	addwf	___flmul@temp+1,f
  6289     0F4F                     l2890:
  6290     0F4F  1FC9               	btfss	___flmul@prod+2,7
  6291     0F50  2F52               	goto	u4511
  6292     0F51  2F53               	goto	u4510
  6293     0F52                     u4511:
  6294     0F52  2F32               	goto	l2880
  6295     0F53                     u4510:
  6296     0F53                     l2892:
  6297     0F53  01C1               	clrf	___flmul@aexp
  6298     0F54                     l2894:
  6299     0F54  1FC5               	btfss	___flmul@grs+3,7
  6300     0F55  2F57               	goto	u4521
  6301     0F56  2F58               	goto	u4520
  6302     0F57                     u4521:
  6303     0F57  2F74               	goto	l2902
  6304     0F58                     u4520:
  6305     0F58                     l2896:
  6306     0F58  30FF               	movlw	255
  6307     0F59  0542               	andwf	___flmul@grs,w
  6308     0F5A  00BB               	movwf	??___flmul
  6309     0F5B  30FF               	movlw	255
  6310     0F5C  0543               	andwf	___flmul@grs+1,w
  6311     0F5D  00BC               	movwf	??___flmul+1
  6312     0F5E  30FF               	movlw	255
  6313     0F5F  0544               	andwf	___flmul@grs+2,w
  6314     0F60  00BD               	movwf	??___flmul+2
  6315     0F61  307F               	movlw	127
  6316     0F62  0545               	andwf	___flmul@grs+3,w
  6317     0F63  00BE               	movwf	??___flmul+3
  6318     0F64  083E               	movf	??___flmul+3,w
  6319     0F65  043D               	iorwf	??___flmul+2,w
  6320     0F66  043C               	iorwf	??___flmul+1,w
  6321     0F67  043B               	iorwf	??___flmul,w
  6322     0F68  1903               	skipnz
  6323     0F69  2F6B               	goto	u4531
  6324     0F6A  2F6C               	goto	u4530
  6325     0F6B                     u4531:
  6326     0F6B  2F6F               	goto	l510
  6327     0F6C                     u4530:
  6328     0F6C                     l2898:
  6329     0F6C  01C1               	clrf	___flmul@aexp
  6330     0F6D  0AC1               	incf	___flmul@aexp,f
  6331     0F6E  2F74               	goto	l2902
  6332     0F6F                     l510:
  6333     0F6F  1C47               	btfss	___flmul@prod,0
  6334     0F70  2F72               	goto	u4541
  6335     0F71  2F73               	goto	u4540
  6336     0F72                     u4541:
  6337     0F72  2F74               	goto	l2902
  6338     0F73                     u4540:
  6339     0F73  2F6C               	goto	l2898
  6340     0F74                     l2902:
  6341     0F74  0841               	movf	___flmul@aexp,w
  6342     0F75  1903               	btfsc	3,2
  6343     0F76  2F78               	goto	u4551
  6344     0F77  2F79               	goto	u4550
  6345     0F78                     u4551:
  6346     0F78  2FAA               	goto	l2912
  6347     0F79                     u4550:
  6348     0F79                     l2904:
  6349     0F79  3001               	movlw	1
  6350     0F7A  07C7               	addwf	___flmul@prod,f
  6351     0F7B  3000               	movlw	0
  6352     0F7C  1803               	skipnc
  6353     0F7D  3001               	movlw	1
  6354     0F7E  07C8               	addwf	___flmul@prod+1,f
  6355     0F7F  3000               	movlw	0
  6356     0F80  1803               	skipnc
  6357     0F81  3001               	movlw	1
  6358     0F82  07C9               	addwf	___flmul@prod+2,f
  6359     0F83  3000               	movlw	0
  6360     0F84  1803               	skipnc
  6361     0F85  3001               	movlw	1
  6362     0F86  07CA               	addwf	___flmul@prod+3,f
  6363     0F87                     l2906:
  6364     0F87  1C4A               	btfss	___flmul@prod+3,0
  6365     0F88  2F8A               	goto	u4561
  6366     0F89  2F8B               	goto	u4560
  6367     0F8A                     u4561:
  6368     0F8A  2FAA               	goto	l2912
  6369     0F8B                     u4560:
  6370     0F8B                     l2908:
  6371     0F8B  0847               	movf	___flmul@prod,w
  6372     0F8C  00BB               	movwf	??___flmul
  6373     0F8D  0848               	movf	___flmul@prod+1,w
  6374     0F8E  00BC               	movwf	??___flmul+1
  6375     0F8F  0849               	movf	___flmul@prod+2,w
  6376     0F90  00BD               	movwf	??___flmul+2
  6377     0F91  084A               	movf	___flmul@prod+3,w
  6378     0F92  00BE               	movwf	??___flmul+3
  6379     0F93  3001               	movlw	1
  6380     0F94  00BF               	movwf	??___flmul+4
  6381     0F95                     u4575:
  6382     0F95  0D3E               	rlf	??___flmul+3,w
  6383     0F96  0CBE               	rrf	??___flmul+3,f
  6384     0F97  0CBD               	rrf	??___flmul+2,f
  6385     0F98  0CBC               	rrf	??___flmul+1,f
  6386     0F99  0CBB               	rrf	??___flmul,f
  6387     0F9A                     u4570:
  6388     0F9A  0BBF               	decfsz	??___flmul+4,f
  6389     0F9B  2F95               	goto	u4575
  6390     0F9C  083E               	movf	??___flmul+3,w
  6391     0F9D  00CA               	movwf	___flmul@prod+3
  6392     0F9E  083D               	movf	??___flmul+2,w
  6393     0F9F  00C9               	movwf	___flmul@prod+2
  6394     0FA0  083C               	movf	??___flmul+1,w
  6395     0FA1  00C8               	movwf	___flmul@prod+1
  6396     0FA2  083B               	movf	??___flmul,w
  6397     0FA3  00C7               	movwf	___flmul@prod
  6398     0FA4                     l2910:
  6399     0FA4  3001               	movlw	1
  6400     0FA5  07CB               	addwf	___flmul@temp,f
  6401     0FA6  1803               	skipnc
  6402     0FA7  0ACC               	incf	___flmul@temp+1,f
  6403     0FA8  3000               	movlw	0
  6404     0FA9  07CC               	addwf	___flmul@temp+1,f
  6405     0FAA                     l2912:
  6406     0FAA  084C               	movf	___flmul@temp+1,w
  6407     0FAB  3A80               	xorlw	128
  6408     0FAC  00FF               	movwf	btemp+1
  6409     0FAD  3080               	movlw	128
  6410     0FAE  027F               	subwf	btemp+1,w
  6411     0FAF  1D03               	skipz
  6412     0FB0  2FB3               	goto	u4585
  6413     0FB1  30FF               	movlw	255
  6414     0FB2  024B               	subwf	___flmul@temp,w
  6415     0FB3                     u4585:
  6416     0FB3  1C03               	skipc
  6417     0FB4  2FB6               	goto	u4581
  6418     0FB5  2FB7               	goto	u4580
  6419     0FB6                     u4581:
  6420     0FB6  2FC2               	goto	l2916
  6421     0FB7                     u4580:
  6422     0FB7                     l2914:
  6423     0FB7  307F               	movlw	127
  6424     0FB8  1283               	bcf	3,5	;RP0=0, select bank0
  6425     0FB9  1303               	bcf	3,6	;RP1=0, select bank0
  6426     0FBA  00CA               	movwf	___flmul@prod+3
  6427     0FBB  3080               	movlw	128
  6428     0FBC  00C9               	movwf	___flmul@prod+2
  6429     0FBD  3000               	movlw	0
  6430     0FBE  00C8               	movwf	___flmul@prod+1
  6431     0FBF  3000               	movlw	0
  6432     0FC0  00C7               	movwf	___flmul@prod
  6433     0FC1  2FF3               	goto	l516
  6434     0FC2                     l2916:
  6435     0FC2  1283               	bcf	3,5	;RP0=0, select bank0
  6436     0FC3  1303               	bcf	3,6	;RP1=0, select bank0
  6437     0FC4  084C               	movf	___flmul@temp+1,w
  6438     0FC5  3A80               	xorlw	128
  6439     0FC6  00FF               	movwf	btemp+1
  6440     0FC7  3080               	movlw	128
  6441     0FC8  027F               	subwf	btemp+1,w
  6442     0FC9  1D03               	skipz
  6443     0FCA  2FCD               	goto	u4595
  6444     0FCB  3001               	movlw	1
  6445     0FCC  024B               	subwf	___flmul@temp,w
  6446     0FCD                     u4595:
  6447     0FCD  1803               	skipnc
  6448     0FCE  2FD0               	goto	u4591
  6449     0FCF  2FD1               	goto	u4590
  6450     0FD0                     u4591:
  6451     0FD0  2FDD               	goto	l2922
  6452     0FD1                     u4590:
  6453     0FD1                     l2918:
  6454     0FD1  3000               	movlw	0
  6455     0FD2  1283               	bcf	3,5	;RP0=0, select bank0
  6456     0FD3  1303               	bcf	3,6	;RP1=0, select bank0
  6457     0FD4  00CA               	movwf	___flmul@prod+3
  6458     0FD5  3000               	movlw	0
  6459     0FD6  00C9               	movwf	___flmul@prod+2
  6460     0FD7  3000               	movlw	0
  6461     0FD8  00C8               	movwf	___flmul@prod+1
  6462     0FD9  3000               	movlw	0
  6463     0FDA  00C7               	movwf	___flmul@prod
  6464     0FDB                     l2920:
  6465     0FDB  01C0               	clrf	___flmul@sign
  6466     0FDC  2FF3               	goto	l516
  6467     0FDD                     l2922:
  6468     0FDD  1283               	bcf	3,5	;RP0=0, select bank0
  6469     0FDE  1303               	bcf	3,6	;RP1=0, select bank0
  6470     0FDF  084B               	movf	___flmul@temp,w
  6471     0FE0  00C6               	movwf	___flmul@bexp
  6472     0FE1  30FF               	movlw	255
  6473     0FE2  05C7               	andwf	___flmul@prod,f
  6474     0FE3  30FF               	movlw	255
  6475     0FE4  05C8               	andwf	___flmul@prod+1,f
  6476     0FE5  307F               	movlw	127
  6477     0FE6  05C9               	andwf	___flmul@prod+2,f
  6478     0FE7  3000               	movlw	0
  6479     0FE8  05CA               	andwf	___flmul@prod+3,f
  6480     0FE9                     l2924:
  6481     0FE9  1C46               	btfss	___flmul@bexp,0
  6482     0FEA  2FEC               	goto	u4601
  6483     0FEB  2FED               	goto	u4600
  6484     0FEC                     u4601:
  6485     0FEC  2FEE               	goto	l2928
  6486     0FED                     u4600:
  6487     0FED                     l2926:
  6488     0FED  17C9               	bsf	___flmul@prod+2,7
  6489     0FEE                     l2928:
  6490     0FEE  0846               	movf	___flmul@bexp,w
  6491     0FEF  00BB               	movwf	??___flmul
  6492     0FF0  1003               	clrc
  6493     0FF1  0C3B               	rrf	??___flmul,w
  6494     0FF2  00CA               	movwf	___flmul@prod+3
  6495     0FF3                     l516:
  6496     0FF3  0840               	movf	___flmul@sign,w
  6497     0FF4  00BB               	movwf	??___flmul
  6498     0FF5  083B               	movf	??___flmul,w
  6499     0FF6  04CA               	iorwf	___flmul@prod+3,f
  6500     0FF7                     l2930:
  6501     0FF7  084A               	movf	___flmul@prod+3,w
  6502     0FF8  00B6               	movwf	?___flmul+3
  6503     0FF9  0849               	movf	___flmul@prod+2,w
  6504     0FFA  00B5               	movwf	?___flmul+2
  6505     0FFB  0848               	movf	___flmul@prod+1,w
  6506     0FFC  00B4               	movwf	?___flmul+1
  6507     0FFD  0847               	movf	___flmul@prod,w
  6508     0FFE  00B3               	movwf	?___flmul
  6509     0FFF                     l504:
  6510     0FFF  0008               	return
  6511     1000                     __end_of___flmul:
  6512                           
  6513                           	psect	text13
  6514     1F89                     __ptext13:	
  6515 ;; *************** function __Umul8_16 *****************
  6516 ;; Defined at:
  6517 ;;		line 4 in file "C:\Program Files\Microchip\xc8\v2.40\pic\sources\c90\common\Umul8_16.c"
  6518 ;; Parameters:    Size  Location     Type
  6519 ;;  multiplier      1    wreg     unsigned char 
  6520 ;;  multiplicand    1    0[COMMON] unsigned char 
  6521 ;; Auto vars:     Size  Location     Type
  6522 ;;  multiplier      1    8[COMMON] unsigned char 
  6523 ;;  word_mpld       2    6[COMMON] unsigned int 
  6524 ;;  product         2    4[COMMON] unsigned int 
  6525 ;; Return value:  Size  Location     Type
  6526 ;;                  2    0[COMMON] unsigned int 
  6527 ;; Registers used:
  6528 ;;		wreg, status,2, status,0
  6529 ;; Tracked objects:
  6530 ;;		On entry : 0/0
  6531 ;;		On exit  : 0/0
  6532 ;;		Unchanged: 0/0
  6533 ;; Data sizes:     COMMON   BANK0   BANK1   BANK3   BANK2
  6534 ;;      Params:         2       0       0       0       0
  6535 ;;      Locals:         5       0       0       0       0
  6536 ;;      Temps:          2       0       0       0       0
  6537 ;;      Totals:         9       0       0       0       0
  6538 ;;Total ram usage:        9 bytes
  6539 ;; Hardware stack levels used: 1
  6540 ;; This function calls:
  6541 ;;		Nothing
  6542 ;; This function is called by:
  6543 ;;		___flmul
  6544 ;; This function uses a non-reentrant model
  6545 ;;
  6546                           
  6547     1F89                     __Umul8_16:	
  6548                           ;psect for function __Umul8_16
  6549                           
  6550                           
  6551                           ;incstack = 0
  6552                           ; Regs used in __Umul8_16: [wreg+status,2+status,0]
  6553                           ;__Umul8_16@multiplier stored from wreg
  6554     1F89  00F8               	movwf	__Umul8_16@multiplier
  6555     1F8A                     l2566:
  6556     1F8A  01F4               	clrf	__Umul8_16@product
  6557     1F8B  01F5               	clrf	__Umul8_16@product+1
  6558     1F8C                     l2568:
  6559     1F8C  0870               	movf	__Umul8_16@multiplicand,w
  6560     1F8D  00F2               	movwf	??__Umul8_16
  6561     1F8E  01F3               	clrf	??__Umul8_16+1
  6562     1F8F  0872               	movf	??__Umul8_16,w
  6563     1F90  00F6               	movwf	__Umul8_16@word_mpld
  6564     1F91  0873               	movf	??__Umul8_16+1,w
  6565     1F92  00F7               	movwf	__Umul8_16@word_mpld+1
  6566     1F93                     l2570:
  6567     1F93  1C78               	btfss	__Umul8_16@multiplier,0
  6568     1F94  2F96               	goto	u3681
  6569     1F95  2F97               	goto	u3680
  6570     1F96                     u3681:
  6571     1F96  2F9D               	goto	l523
  6572     1F97                     u3680:
  6573     1F97                     l2572:
  6574     1F97  0876               	movf	__Umul8_16@word_mpld,w
  6575     1F98  07F4               	addwf	__Umul8_16@product,f
  6576     1F99  1803               	skipnc
  6577     1F9A  0AF5               	incf	__Umul8_16@product+1,f
  6578     1F9B  0877               	movf	__Umul8_16@word_mpld+1,w
  6579     1F9C  07F5               	addwf	__Umul8_16@product+1,f
  6580     1F9D                     l523:
  6581     1F9D  3001               	movlw	1
  6582     1F9E                     u3695:
  6583     1F9E  1003               	clrc
  6584     1F9F  0DF6               	rlf	__Umul8_16@word_mpld,f
  6585     1FA0  0DF7               	rlf	__Umul8_16@word_mpld+1,f
  6586     1FA1  3EFF               	addlw	-1
  6587     1FA2  1D03               	skipz
  6588     1FA3  2F9E               	goto	u3695
  6589     1FA4  1003               	clrc
  6590     1FA5  0CF8               	rrf	__Umul8_16@multiplier,f
  6591     1FA6                     l2574:
  6592     1FA6  0878               	movf	__Umul8_16@multiplier,w
  6593     1FA7  1D03               	btfss	3,2
  6594     1FA8  2FAA               	goto	u3701
  6595     1FA9  2FAB               	goto	u3700
  6596     1FAA                     u3701:
  6597     1FAA  2F93               	goto	l2570
  6598     1FAB                     u3700:
  6599     1FAB                     l2576:
  6600     1FAB  0875               	movf	__Umul8_16@product+1,w
  6601     1FAC  00F1               	movwf	?__Umul8_16+1
  6602     1FAD  0874               	movf	__Umul8_16@product,w
  6603     1FAE  00F0               	movwf	?__Umul8_16
  6604     1FAF                     l525:
  6605     1FAF  0008               	return
  6606     1FB0                     __end_of__Umul8_16:
  6607                           
  6608                           	psect	text14
  6609     1F65                     __ptext14:	
  6610 ;; *************** function ___flsub *****************
  6611 ;; Defined at:
  6612 ;;		line 242 in file "C:\Program Files\Microchip\xc8\v2.40\pic\sources\c90\common\sprcadd.c"
  6613 ;; Parameters:    Size  Location     Type
  6614 ;;  a               4   65[BANK0 ] unsigned int 
  6615 ;;  b               4   69[BANK0 ] unsigned int 
  6616 ;; Auto vars:     Size  Location     Type
  6617 ;;		None
  6618 ;; Return value:  Size  Location     Type
  6619 ;;                  4   65[BANK0 ] unsigned int 
  6620 ;; Registers used:
  6621 ;;		wreg, status,2, status,0, btemp+1, pclath, cstack
  6622 ;; Tracked objects:
  6623 ;;		On entry : 0/0
  6624 ;;		On exit  : 0/0
  6625 ;;		Unchanged: 0/0
  6626 ;; Data sizes:     COMMON   BANK0   BANK1   BANK3   BANK2
  6627 ;;      Params:         0       8       0       0       0
  6628 ;;      Locals:         0       0       0       0       0
  6629 ;;      Temps:          0       0       0       0       0
  6630 ;;      Totals:         0       8       0       0       0
  6631 ;;Total ram usage:        8 bytes
  6632 ;; Hardware stack levels used: 1
  6633 ;; Hardware stack levels required when called: 1
  6634 ;; This function calls:
  6635 ;;		___fladd
  6636 ;; This function is called by:
  6637 ;;		_main
  6638 ;;		_exp
  6639 ;; This function uses a non-reentrant model
  6640 ;;
  6641                           
  6642     1F65                     ___flsub:	
  6643                           ;psect for function ___flsub
  6644                           
  6645     1F65                     l2998:	
  6646                           ;incstack = 0
  6647                           ; Regs used in ___flsub: [wreg+status,2+status,0+btemp+1+pclath+cstack]
  6648                           
  6649     1F65  3080               	movlw	128
  6650     1F66  1283               	bcf	3,5	;RP0=0, select bank0
  6651     1F67  1303               	bcf	3,6	;RP1=0, select bank0
  6652     1F68  06E4               	xorwf	___flsub@a+3,f
  6653     1F69                     l3000:
  6654     1F69  0868               	movf	___flsub@b+3,w
  6655     1F6A  00D0               	movwf	___fladd@b+3
  6656     1F6B  0867               	movf	___flsub@b+2,w
  6657     1F6C  00CF               	movwf	___fladd@b+2
  6658     1F6D  0866               	movf	___flsub@b+1,w
  6659     1F6E  00CE               	movwf	___fladd@b+1
  6660     1F6F  0865               	movf	___flsub@b,w
  6661     1F70  00CD               	movwf	___fladd@b
  6662     1F71  0864               	movf	___flsub@a+3,w
  6663     1F72  00D4               	movwf	___fladd@a+3
  6664     1F73  0863               	movf	___flsub@a+2,w
  6665     1F74  00D3               	movwf	___fladd@a+2
  6666     1F75  0862               	movf	___flsub@a+1,w
  6667     1F76  00D2               	movwf	___fladd@a+1
  6668     1F77  0861               	movf	___flsub@a,w
  6669     1F78  00D1               	movwf	___fladd@a
  6670     1F79  120A  118A  201D  160A  158A  	fcall	___fladd
  6671     1F7E  1283               	bcf	3,5	;RP0=0, select bank0
  6672     1F7F  1303               	bcf	3,6	;RP1=0, select bank0
  6673     1F80  0850               	movf	?___fladd+3,w
  6674     1F81  00E4               	movwf	?___flsub+3
  6675     1F82  084F               	movf	?___fladd+2,w
  6676     1F83  00E3               	movwf	?___flsub+2
  6677     1F84  084E               	movf	?___fladd+1,w
  6678     1F85  00E2               	movwf	?___flsub+1
  6679     1F86  084D               	movf	?___fladd,w
  6680     1F87  00E1               	movwf	?___flsub
  6681     1F88                     l454:
  6682     1F88  0008               	return
  6683     1F89                     __end_of___flsub:
  6684                           
  6685                           	psect	text15
  6686     001D                     __ptext15:	
  6687 ;; *************** function ___fladd *****************
  6688 ;; Defined at:
  6689 ;;		line 10 in file "C:\Program Files\Microchip\xc8\v2.40\pic\sources\c90\common\sprcadd.c"
  6690 ;; Parameters:    Size  Location     Type
  6691 ;;  b               4   45[BANK0 ] unsigned int 
  6692 ;;  a               4   49[BANK0 ] unsigned int 
  6693 ;; Auto vars:     Size  Location     Type
  6694 ;;  grs             1   64[BANK0 ] unsigned char 
  6695 ;;  bexp            1   63[BANK0 ] unsigned char 
  6696 ;;  aexp            1   62[BANK0 ] unsigned char 
  6697 ;;  signs           1   61[BANK0 ] unsigned char 
  6698 ;; Return value:  Size  Location     Type
  6699 ;;                  4   45[BANK0 ] unsigned char 
  6700 ;; Registers used:
  6701 ;;		wreg, status,2, status,0, btemp+1
  6702 ;; Tracked objects:
  6703 ;;		On entry : 0/0
  6704 ;;		On exit  : 0/0
  6705 ;;		Unchanged: 0/0
  6706 ;; Data sizes:     COMMON   BANK0   BANK1   BANK3   BANK2
  6707 ;;      Params:         0       8       0       0       0
  6708 ;;      Locals:         0       4       0       0       0
  6709 ;;      Temps:          0       8       0       0       0
  6710 ;;      Totals:         0      20       0       0       0
  6711 ;;Total ram usage:       20 bytes
  6712 ;; Hardware stack levels used: 1
  6713 ;; This function calls:
  6714 ;;		Nothing
  6715 ;; This function is called by:
  6716 ;;		_main
  6717 ;;		___flsub
  6718 ;;		_eval_poly
  6719 ;;		_floor
  6720 ;;		_log
  6721 ;; This function uses a non-reentrant model
  6722 ;;
  6723                           
  6724     001D                     ___fladd:	
  6725                           ;psect for function ___fladd
  6726                           
  6727     001D                     l2600:	
  6728                           ;incstack = 0
  6729                           ; Regs used in ___fladd: [wreg+status,2+status,0+btemp+1]
  6730                           
  6731     001D  1283               	bcf	3,5	;RP0=0, select bank0
  6732     001E  1303               	bcf	3,6	;RP1=0, select bank0
  6733     001F  0850               	movf	___fladd@b+3,w
  6734     0020  3980               	andlw	128
  6735     0021  00DD               	movwf	___fladd@signs
  6736     0022                     l2602:
  6737     0022  0850               	movf	___fladd@b+3,w
  6738     0023  00D5               	movwf	??___fladd
  6739     0024  0755               	addwf	??___fladd,w
  6740     0025  00DF               	movwf	___fladd@bexp
  6741     0026                     l2604:
  6742     0026  1FCF               	btfss	___fladd@b+2,7
  6743     0027  2829               	goto	u3781
  6744     0028  282A               	goto	u3780
  6745     0029                     u3781:
  6746     0029  282B               	goto	l2608
  6747     002A                     u3780:
  6748     002A                     l2606:
  6749     002A  145F               	bsf	___fladd@bexp,0
  6750     002B                     l2608:
  6751     002B  085F               	movf	___fladd@bexp,w
  6752     002C  1903               	btfsc	3,2
  6753     002D  282F               	goto	u3791
  6754     002E  2830               	goto	u3790
  6755     002F                     u3791:
  6756     002F  2840               	goto	l2618
  6757     0030                     u3790:
  6758     0030                     l2610:
  6759     0030  0A5F               	incf	___fladd@bexp,w
  6760     0031  1D03               	btfss	3,2
  6761     0032  2834               	goto	u3801
  6762     0033  2835               	goto	u3800
  6763     0034                     u3801:
  6764     0034  283D               	goto	l2614
  6765     0035                     u3800:
  6766     0035                     l2612:
  6767     0035  3000               	movlw	0
  6768     0036  00D0               	movwf	___fladd@b+3
  6769     0037  3000               	movlw	0
  6770     0038  00CF               	movwf	___fladd@b+2
  6771     0039  3000               	movlw	0
  6772     003A  00CE               	movwf	___fladd@b+1
  6773     003B  3000               	movlw	0
  6774     003C  00CD               	movwf	___fladd@b
  6775     003D                     l2614:
  6776     003D  17CF               	bsf	___fladd@b+2,7
  6777     003E                     l2616:
  6778     003E  01D0               	clrf	___fladd@b+3
  6779     003F  2848               	goto	l2620
  6780     0040                     l2618:
  6781     0040  3000               	movlw	0
  6782     0041  00D0               	movwf	___fladd@b+3
  6783     0042  3000               	movlw	0
  6784     0043  00CF               	movwf	___fladd@b+2
  6785     0044  3000               	movlw	0
  6786     0045  00CE               	movwf	___fladd@b+1
  6787     0046  3000               	movlw	0
  6788     0047  00CD               	movwf	___fladd@b
  6789     0048                     l2620:
  6790     0048  0854               	movf	___fladd@a+3,w
  6791     0049  3980               	andlw	128
  6792     004A  00DE               	movwf	___fladd@aexp
  6793     004B                     l2622:
  6794     004B  085E               	movf	___fladd@aexp,w
  6795     004C  065D               	xorwf	___fladd@signs,w
  6796     004D  1903               	skipnz
  6797     004E  2850               	goto	u3811
  6798     004F  2851               	goto	u3810
  6799     0050                     u3811:
  6800     0050  2852               	goto	l2626
  6801     0051                     u3810:
  6802     0051                     l2624:
  6803     0051  175D               	bsf	___fladd@signs,6
  6804     0052                     l2626:
  6805     0052  0854               	movf	___fladd@a+3,w
  6806     0053  00D5               	movwf	??___fladd
  6807     0054  0755               	addwf	??___fladd,w
  6808     0055  00DE               	movwf	___fladd@aexp
  6809     0056                     l2628:
  6810     0056  1FD3               	btfss	___fladd@a+2,7
  6811     0057  2859               	goto	u3821
  6812     0058  285A               	goto	u3820
  6813     0059                     u3821:
  6814     0059  285B               	goto	l2632
  6815     005A                     u3820:
  6816     005A                     l2630:
  6817     005A  145E               	bsf	___fladd@aexp,0
  6818     005B                     l2632:
  6819     005B  085E               	movf	___fladd@aexp,w
  6820     005C  1903               	btfsc	3,2
  6821     005D  285F               	goto	u3831
  6822     005E  2860               	goto	u3830
  6823     005F                     u3831:
  6824     005F  2870               	goto	l2642
  6825     0060                     u3830:
  6826     0060                     l2634:
  6827     0060  0A5E               	incf	___fladd@aexp,w
  6828     0061  1D03               	btfss	3,2
  6829     0062  2864               	goto	u3841
  6830     0063  2865               	goto	u3840
  6831     0064                     u3841:
  6832     0064  286D               	goto	l2638
  6833     0065                     u3840:
  6834     0065                     l2636:
  6835     0065  3000               	movlw	0
  6836     0066  00D4               	movwf	___fladd@a+3
  6837     0067  3000               	movlw	0
  6838     0068  00D3               	movwf	___fladd@a+2
  6839     0069  3000               	movlw	0
  6840     006A  00D2               	movwf	___fladd@a+1
  6841     006B  3000               	movlw	0
  6842     006C  00D1               	movwf	___fladd@a
  6843     006D                     l2638:
  6844     006D  17D3               	bsf	___fladd@a+2,7
  6845     006E                     l2640:
  6846     006E  01D4               	clrf	___fladd@a+3
  6847     006F  2878               	goto	l408
  6848     0070                     l2642:
  6849     0070  3000               	movlw	0
  6850     0071  00D4               	movwf	___fladd@a+3
  6851     0072  3000               	movlw	0
  6852     0073  00D3               	movwf	___fladd@a+2
  6853     0074  3000               	movlw	0
  6854     0075  00D2               	movwf	___fladd@a+1
  6855     0076  3000               	movlw	0
  6856     0077  00D1               	movwf	___fladd@a
  6857     0078                     l408:
  6858     0078  085F               	movf	___fladd@bexp,w
  6859     0079  025E               	subwf	___fladd@aexp,w
  6860     007A  1803               	skipnc
  6861     007B  287D               	goto	u3851
  6862     007C  287E               	goto	u3850
  6863     007D                     u3851:
  6864     007D  28A4               	goto	l2678
  6865     007E                     u3850:
  6866     007E                     l2644:
  6867     007E  1F5D               	btfss	___fladd@signs,6
  6868     007F  2881               	goto	u3861
  6869     0080  2882               	goto	u3860
  6870     0081                     u3861:
  6871     0081  2886               	goto	l2648
  6872     0082                     u3860:
  6873     0082                     l2646:
  6874     0082  3080               	movlw	128
  6875     0083  00D5               	movwf	??___fladd
  6876     0084  0855               	movf	??___fladd,w
  6877     0085  06DD               	xorwf	___fladd@signs,f
  6878     0086                     l2648:
  6879     0086  085F               	movf	___fladd@bexp,w
  6880     0087  00E0               	movwf	___fladd@grs
  6881     0088                     l2650:
  6882     0088  085E               	movf	___fladd@aexp,w
  6883     0089  00DF               	movwf	___fladd@bexp
  6884     008A                     l2652:
  6885     008A  0860               	movf	___fladd@grs,w
  6886     008B  00DE               	movwf	___fladd@aexp
  6887     008C                     l2654:
  6888     008C  084D               	movf	___fladd@b,w
  6889     008D  00E0               	movwf	___fladd@grs
  6890     008E                     l2656:
  6891     008E  0851               	movf	___fladd@a,w
  6892     008F  00CD               	movwf	___fladd@b
  6893     0090                     l2658:
  6894     0090  0860               	movf	___fladd@grs,w
  6895     0091  00D1               	movwf	___fladd@a
  6896     0092                     l2660:
  6897     0092  084E               	movf	___fladd@b+1,w
  6898     0093  00E0               	movwf	___fladd@grs
  6899     0094                     l2662:
  6900     0094  0852               	movf	___fladd@a+1,w
  6901     0095  00CE               	movwf	___fladd@b+1
  6902     0096                     l2664:
  6903     0096  0860               	movf	___fladd@grs,w
  6904     0097  00D2               	movwf	___fladd@a+1
  6905     0098                     l2666:
  6906     0098  084F               	movf	___fladd@b+2,w
  6907     0099  00E0               	movwf	___fladd@grs
  6908     009A                     l2668:
  6909     009A  0853               	movf	___fladd@a+2,w
  6910     009B  00CF               	movwf	___fladd@b+2
  6911     009C                     l2670:
  6912     009C  0860               	movf	___fladd@grs,w
  6913     009D  00D3               	movwf	___fladd@a+2
  6914     009E                     l2672:
  6915     009E  0850               	movf	___fladd@b+3,w
  6916     009F  00E0               	movwf	___fladd@grs
  6917     00A0                     l2674:
  6918     00A0  0854               	movf	___fladd@a+3,w
  6919     00A1  00D0               	movwf	___fladd@b+3
  6920     00A2                     l2676:
  6921     00A2  0860               	movf	___fladd@grs,w
  6922     00A3  00D4               	movwf	___fladd@a+3
  6923     00A4                     l2678:
  6924     00A4  01E0               	clrf	___fladd@grs
  6925     00A5                     l2680:
  6926     00A5  085E               	movf	___fladd@aexp,w
  6927     00A6  00D5               	movwf	??___fladd
  6928     00A7  01D6               	clrf	??___fladd+1
  6929     00A8  0856               	movf	??___fladd+1,w
  6930     00A9  00D8               	movwf	??___fladd+3
  6931     00AA  085F               	movf	___fladd@bexp,w
  6932     00AB  0255               	subwf	??___fladd,w
  6933     00AC  00D7               	movwf	??___fladd+2
  6934     00AD  1C03               	skipc
  6935     00AE  03D8               	decf	??___fladd+3,f
  6936     00AF  0858               	movf	??___fladd+3,w
  6937     00B0  3A80               	xorlw	128
  6938     00B1  00FF               	movwf	btemp+1
  6939     00B2  3080               	movlw	128
  6940     00B3  027F               	subwf	btemp+1,w
  6941     00B4  1D03               	skipz
  6942     00B5  28B8               	goto	u3875
  6943     00B6  301A               	movlw	26
  6944     00B7  0257               	subwf	??___fladd+2,w
  6945     00B8                     u3875:
  6946     00B8  1C03               	skipc
  6947     00B9  28BB               	goto	u3871
  6948     00BA  28BC               	goto	u3870
  6949     00BB                     u3871:
  6950     00BB  28F3               	goto	l2696
  6951     00BC                     u3870:
  6952     00BC                     l2682:
  6953     00BC  1283               	bcf	3,5	;RP0=0, select bank0
  6954     00BD  1303               	bcf	3,6	;RP1=0, select bank0
  6955     00BE  0850               	movf	___fladd@b+3,w
  6956     00BF  044F               	iorwf	___fladd@b+2,w
  6957     00C0  044E               	iorwf	___fladd@b+1,w
  6958     00C1  044D               	iorwf	___fladd@b,w
  6959     00C2  1D03               	skipz
  6960     00C3  28C5               	goto	u3881
  6961     00C4  28C7               	goto	u3880
  6962     00C5                     u3881:
  6963     00C5  3001               	movlw	1
  6964     00C6  28C8               	goto	u3890
  6965     00C7                     u3880:
  6966     00C7  3000               	movlw	0
  6967     00C8                     u3890:
  6968     00C8  00E0               	movwf	___fladd@grs
  6969     00C9  3000               	movlw	0
  6970     00CA  00D0               	movwf	___fladd@b+3
  6971     00CB  3000               	movlw	0
  6972     00CC  00CF               	movwf	___fladd@b+2
  6973     00CD  3000               	movlw	0
  6974     00CE  00CE               	movwf	___fladd@b+1
  6975     00CF  3000               	movlw	0
  6976     00D0  00CD               	movwf	___fladd@b
  6977     00D1  085E               	movf	___fladd@aexp,w
  6978     00D2  00DF               	movwf	___fladd@bexp
  6979     00D3  28FB               	goto	l412
  6980     00D4                     l414:
  6981     00D4  1C60               	btfss	___fladd@grs,0
  6982     00D5  28D7               	goto	u3901
  6983     00D6  28D8               	goto	u3900
  6984     00D7                     u3901:
  6985     00D7  28DF               	goto	l2686
  6986     00D8                     u3900:
  6987     00D8                     l2684:
  6988     00D8  0860               	movf	___fladd@grs,w
  6989     00D9  00D5               	movwf	??___fladd
  6990     00DA  1003               	clrc
  6991     00DB  0C55               	rrf	??___fladd,w
  6992     00DC  3801               	iorlw	1
  6993     00DD  00E0               	movwf	___fladd@grs
  6994     00DE  28E1               	goto	l2688
  6995     00DF                     l2686:
  6996     00DF  1003               	clrc
  6997     00E0  0CE0               	rrf	___fladd@grs,f
  6998     00E1                     l2688:
  6999     00E1  1C4D               	btfss	___fladd@b,0
  7000     00E2  28E4               	goto	u3911
  7001     00E3  28E5               	goto	u3910
  7002     00E4                     u3911:
  7003     00E4  28E6               	goto	l2692
  7004     00E5                     u3910:
  7005     00E5                     l2690:
  7006     00E5  17E0               	bsf	___fladd@grs,7
  7007     00E6                     l2692:
  7008     00E6  3001               	movlw	1
  7009     00E7  00D5               	movwf	??___fladd
  7010     00E8                     u3925:
  7011     00E8  0D50               	rlf	___fladd@b+3,w
  7012     00E9  0CD0               	rrf	___fladd@b+3,f
  7013     00EA  0CCF               	rrf	___fladd@b+2,f
  7014     00EB  0CCE               	rrf	___fladd@b+1,f
  7015     00EC  0CCD               	rrf	___fladd@b,f
  7016     00ED  0BD5               	decfsz	??___fladd& (0+127),f
  7017     00EE  28E8               	goto	u3925
  7018     00EF                     l2694:
  7019     00EF  3001               	movlw	1
  7020     00F0  00D5               	movwf	??___fladd
  7021     00F1  0855               	movf	??___fladd,w
  7022     00F2  07DF               	addwf	___fladd@bexp,f
  7023     00F3                     l2696:
  7024     00F3  1283               	bcf	3,5	;RP0=0, select bank0
  7025     00F4  1303               	bcf	3,6	;RP1=0, select bank0
  7026     00F5  085E               	movf	___fladd@aexp,w
  7027     00F6  025F               	subwf	___fladd@bexp,w
  7028     00F7  1C03               	skipc
  7029     00F8  28FA               	goto	u3931
  7030     00F9  28FB               	goto	u3930
  7031     00FA                     u3931:
  7032     00FA  28D4               	goto	l414
  7033     00FB                     u3930:
  7034     00FB                     l412:
  7035     00FB  1B5D               	btfsc	___fladd@signs,6
  7036     00FC  28FE               	goto	u3941
  7037     00FD  28FF               	goto	u3940
  7038     00FE                     u3941:
  7039     00FE  2948               	goto	l2722
  7040     00FF                     u3940:
  7041     00FF                     l2698:
  7042     00FF  085F               	movf	___fladd@bexp,w
  7043     0100  1D03               	btfss	3,2
  7044     0101  2903               	goto	u3951
  7045     0102  2904               	goto	u3950
  7046     0103                     u3951:
  7047     0103  290D               	goto	l2704
  7048     0104                     u3950:
  7049     0104                     l2700:
  7050     0104  3000               	movlw	0
  7051     0105  00D0               	movwf	?___fladd+3
  7052     0106  3000               	movlw	0
  7053     0107  00CF               	movwf	?___fladd+2
  7054     0108  3000               	movlw	0
  7055     0109  00CE               	movwf	?___fladd+1
  7056     010A  3000               	movlw	0
  7057     010B  00CD               	movwf	?___fladd
  7058     010C  2A74               	goto	l421
  7059     010D                     l2704:
  7060     010D  0851               	movf	___fladd@a,w
  7061     010E  07CD               	addwf	___fladd@b,f
  7062     010F  0852               	movf	___fladd@a+1,w
  7063     0110  1103               	clrz
  7064     0111  1803               	skipnc
  7065     0112  3E01               	addlw	1
  7066     0113  1903               	skipnz
  7067     0114  2916               	goto	u3961
  7068     0115  07CE               	addwf	___fladd@b+1,f
  7069     0116                     u3961:
  7070     0116  0853               	movf	___fladd@a+2,w
  7071     0117  1103               	clrz
  7072     0118  1803               	skipnc
  7073     0119  3E01               	addlw	1
  7074     011A  1903               	skipnz
  7075     011B  291D               	goto	u3962
  7076     011C  07CF               	addwf	___fladd@b+2,f
  7077     011D                     u3962:
  7078     011D  0854               	movf	___fladd@a+3,w
  7079     011E  1103               	clrz
  7080     011F  1803               	skipnc
  7081     0120  3E01               	addlw	1
  7082     0121  1903               	skipnz
  7083     0122  2924               	goto	u3963
  7084     0123  07D0               	addwf	___fladd@b+3,f
  7085     0124                     u3963:
  7086     0124                     l2706:
  7087     0124  1C50               	btfss	___fladd@b+3,0
  7088     0125  2927               	goto	u3971
  7089     0126  2928               	goto	u3970
  7090     0127                     u3971:
  7091     0127  29FC               	goto	l2756
  7092     0128                     u3970:
  7093     0128                     l2708:
  7094     0128  1C60               	btfss	___fladd@grs,0
  7095     0129  292B               	goto	u3981
  7096     012A  292C               	goto	u3980
  7097     012B                     u3981:
  7098     012B  2933               	goto	l2712
  7099     012C                     u3980:
  7100     012C                     l2710:
  7101     012C  0860               	movf	___fladd@grs,w
  7102     012D  00D5               	movwf	??___fladd
  7103     012E  1003               	clrc
  7104     012F  0C55               	rrf	??___fladd,w
  7105     0130  3801               	iorlw	1
  7106     0131  00E0               	movwf	___fladd@grs
  7107     0132  2935               	goto	l2714
  7108     0133                     l2712:
  7109     0133  1003               	clrc
  7110     0134  0CE0               	rrf	___fladd@grs,f
  7111     0135                     l2714:
  7112     0135  1C4D               	btfss	___fladd@b,0
  7113     0136  2938               	goto	u3991
  7114     0137  2939               	goto	u3990
  7115     0138                     u3991:
  7116     0138  293A               	goto	l2718
  7117     0139                     u3990:
  7118     0139                     l2716:
  7119     0139  17E0               	bsf	___fladd@grs,7
  7120     013A                     l2718:
  7121     013A  3001               	movlw	1
  7122     013B  00D5               	movwf	??___fladd
  7123     013C                     u4005:
  7124     013C  0D50               	rlf	___fladd@b+3,w
  7125     013D  0CD0               	rrf	___fladd@b+3,f
  7126     013E  0CCF               	rrf	___fladd@b+2,f
  7127     013F  0CCE               	rrf	___fladd@b+1,f
  7128     0140  0CCD               	rrf	___fladd@b,f
  7129     0141  0BD5               	decfsz	??___fladd& (0+127),f
  7130     0142  293C               	goto	u4005
  7131     0143                     l2720:
  7132     0143  3001               	movlw	1
  7133     0144  00D5               	movwf	??___fladd
  7134     0145  0855               	movf	??___fladd,w
  7135     0146  07DF               	addwf	___fladd@bexp,f
  7136     0147  29FC               	goto	l2756
  7137     0148                     l2722:
  7138     0148  0850               	movf	___fladd@b+3,w
  7139     0149  3A80               	xorlw	128
  7140     014A  00FF               	movwf	btemp+1
  7141     014B  0854               	movf	___fladd@a+3,w
  7142     014C  3A80               	xorlw	128
  7143     014D  027F               	subwf	btemp+1,w
  7144     014E  1D03               	skipz
  7145     014F  295A               	goto	u4013
  7146     0150  0853               	movf	___fladd@a+2,w
  7147     0151  024F               	subwf	___fladd@b+2,w
  7148     0152  1D03               	skipz
  7149     0153  295A               	goto	u4013
  7150     0154  0852               	movf	___fladd@a+1,w
  7151     0155  024E               	subwf	___fladd@b+1,w
  7152     0156  1D03               	skipz
  7153     0157  295A               	goto	u4013
  7154     0158  0851               	movf	___fladd@a,w
  7155     0159  024D               	subwf	___fladd@b,w
  7156     015A                     u4013:
  7157     015A  1803               	skipnc
  7158     015B  295D               	goto	u4011
  7159     015C  295E               	goto	u4010
  7160     015D                     u4011:
  7161     015D  29B6               	goto	l2732
  7162     015E                     u4010:
  7163     015E                     l2724:
  7164     015E  30FF               	movlw	255
  7165     015F  00D5               	movwf	??___fladd
  7166     0160  30FF               	movlw	255
  7167     0161  00D6               	movwf	??___fladd+1
  7168     0162  30FF               	movlw	255
  7169     0163  00D7               	movwf	??___fladd+2
  7170     0164  30FF               	movlw	255
  7171     0165  00D8               	movwf	??___fladd+3
  7172     0166  0851               	movf	___fladd@a,w
  7173     0167  00D9               	movwf	??___fladd+4
  7174     0168  0852               	movf	___fladd@a+1,w
  7175     0169  00DA               	movwf	??___fladd+5
  7176     016A  0853               	movf	___fladd@a+2,w
  7177     016B  00DB               	movwf	??___fladd+6
  7178     016C  0854               	movf	___fladd@a+3,w
  7179     016D  00DC               	movwf	??___fladd+7
  7180     016E  084D               	movf	___fladd@b,w
  7181     016F  02D9               	subwf	??___fladd+4,f
  7182     0170  084E               	movf	___fladd@b+1,w
  7183     0171  1C03               	skipc
  7184     0172  0F4E               	incfsz	___fladd@b+1,w
  7185     0173  2975               	goto	u4021
  7186     0174  2976               	goto	u4022
  7187     0175                     u4021:
  7188     0175  02DA               	subwf	??___fladd+5,f
  7189     0176                     u4022:
  7190     0176  084F               	movf	___fladd@b+2,w
  7191     0177  1C03               	skipc
  7192     0178  0F4F               	incfsz	___fladd@b+2,w
  7193     0179  297B               	goto	u4023
  7194     017A  297C               	goto	u4024
  7195     017B                     u4023:
  7196     017B  02DB               	subwf	??___fladd+6,f
  7197     017C                     u4024:
  7198     017C  0850               	movf	___fladd@b+3,w
  7199     017D  1C03               	skipc
  7200     017E  0F50               	incfsz	___fladd@b+3,w
  7201     017F  2981               	goto	u4025
  7202     0180  2982               	goto	u4026
  7203     0181                     u4025:
  7204     0181  02DC               	subwf	??___fladd+7,f
  7205     0182                     u4026:
  7206     0182  0859               	movf	??___fladd+4,w
  7207     0183  07D5               	addwf	??___fladd,f
  7208     0184  085A               	movf	??___fladd+5,w
  7209     0185  1803               	skipnc
  7210     0186  0F5A               	incfsz	??___fladd+5,w
  7211     0187  2989               	goto	u4030
  7212     0188  298A               	goto	u4031
  7213     0189                     u4030:
  7214     0189  07D6               	addwf	??___fladd+1,f
  7215     018A                     u4031:
  7216     018A  085B               	movf	??___fladd+6,w
  7217     018B  1803               	skipnc
  7218     018C  0F5B               	incfsz	??___fladd+6,w
  7219     018D  298F               	goto	u4032
  7220     018E  2990               	goto	u4033
  7221     018F                     u4032:
  7222     018F  07D7               	addwf	??___fladd+2,f
  7223     0190                     u4033:
  7224     0190  085C               	movf	??___fladd+7,w
  7225     0191  1803               	skipnc
  7226     0192  0A5C               	incf	??___fladd+7,w
  7227     0193  07D8               	addwf	??___fladd+3,f
  7228     0194  0858               	movf	??___fladd+3,w
  7229     0195  00D0               	movwf	___fladd@b+3
  7230     0196  0857               	movf	??___fladd+2,w
  7231     0197  00CF               	movwf	___fladd@b+2
  7232     0198  0856               	movf	??___fladd+1,w
  7233     0199  00CE               	movwf	___fladd@b+1
  7234     019A  0855               	movf	??___fladd,w
  7235     019B  00CD               	movwf	___fladd@b
  7236     019C                     l2726:
  7237     019C  3080               	movlw	128
  7238     019D  00D5               	movwf	??___fladd
  7239     019E  0855               	movf	??___fladd,w
  7240     019F  06DD               	xorwf	___fladd@signs,f
  7241     01A0  09E0               	comf	___fladd@grs,f
  7242     01A1  0AE0               	incf	___fladd@grs,f
  7243     01A2                     l2728:
  7244     01A2  0860               	movf	___fladd@grs,w
  7245     01A3  1D03               	btfss	3,2
  7246     01A4  29A6               	goto	u4041
  7247     01A5  29A7               	goto	u4040
  7248     01A6                     u4041:
  7249     01A6  29C4               	goto	l429
  7250     01A7                     u4040:
  7251     01A7                     l2730:
  7252     01A7  3001               	movlw	1
  7253     01A8  07CD               	addwf	___fladd@b,f
  7254     01A9  3000               	movlw	0
  7255     01AA  1803               	skipnc
  7256     01AB  3001               	movlw	1
  7257     01AC  07CE               	addwf	___fladd@b+1,f
  7258     01AD  3000               	movlw	0
  7259     01AE  1803               	skipnc
  7260     01AF  3001               	movlw	1
  7261     01B0  07CF               	addwf	___fladd@b+2,f
  7262     01B1  3000               	movlw	0
  7263     01B2  1803               	skipnc
  7264     01B3  3001               	movlw	1
  7265     01B4  07D0               	addwf	___fladd@b+3,f
  7266     01B5  29C4               	goto	l429
  7267     01B6                     l2732:
  7268     01B6  0851               	movf	___fladd@a,w
  7269     01B7  02CD               	subwf	___fladd@b,f
  7270     01B8  0852               	movf	___fladd@a+1,w
  7271     01B9  1C03               	skipc
  7272     01BA  0F52               	incfsz	___fladd@a+1,w
  7273     01BB  02CE               	subwf	___fladd@b+1,f
  7274     01BC  0853               	movf	___fladd@a+2,w
  7275     01BD  1C03               	skipc
  7276     01BE  0F53               	incfsz	___fladd@a+2,w
  7277     01BF  02CF               	subwf	___fladd@b+2,f
  7278     01C0  0854               	movf	___fladd@a+3,w
  7279     01C1  1C03               	skipc
  7280     01C2  0F54               	incfsz	___fladd@a+3,w
  7281     01C3  02D0               	subwf	___fladd@b+3,f
  7282     01C4                     l429:
  7283     01C4  0850               	movf	___fladd@b+3,w
  7284     01C5  044F               	iorwf	___fladd@b+2,w
  7285     01C6  044E               	iorwf	___fladd@b+1,w
  7286     01C7  044D               	iorwf	___fladd@b,w
  7287     01C8  1D03               	skipz
  7288     01C9  29CB               	goto	u4051
  7289     01CA  29CC               	goto	u4050
  7290     01CB                     u4051:
  7291     01CB  29F8               	goto	l2754
  7292     01CC                     u4050:
  7293     01CC                     l2734:
  7294     01CC  0860               	movf	___fladd@grs,w
  7295     01CD  1D03               	btfss	3,2
  7296     01CE  29D0               	goto	u4061
  7297     01CF  29D1               	goto	u4060
  7298     01D0                     u4061:
  7299     01D0  29F8               	goto	l2754
  7300     01D1                     u4060:
  7301     01D1                     l2736:
  7302     01D1  3000               	movlw	0
  7303     01D2  00D0               	movwf	?___fladd+3
  7304     01D3  3000               	movlw	0
  7305     01D4  00CF               	movwf	?___fladd+2
  7306     01D5  3000               	movlw	0
  7307     01D6  00CE               	movwf	?___fladd+1
  7308     01D7  3000               	movlw	0
  7309     01D8  00CD               	movwf	?___fladd
  7310     01D9  2A74               	goto	l421
  7311     01DA                     l2740:
  7312     01DA  3001               	movlw	1
  7313     01DB  00D5               	movwf	??___fladd
  7314     01DC                     u4075:
  7315     01DC  1003               	clrc
  7316     01DD  0DCD               	rlf	___fladd@b,f
  7317     01DE  0DCE               	rlf	___fladd@b+1,f
  7318     01DF  0DCF               	rlf	___fladd@b+2,f
  7319     01E0  0DD0               	rlf	___fladd@b+3,f
  7320     01E1  0BD5               	decfsz	??___fladd,f
  7321     01E2  29DC               	goto	u4075
  7322     01E3                     l2742:
  7323     01E3  1FE0               	btfss	___fladd@grs,7
  7324     01E4  29E6               	goto	u4081
  7325     01E5  29E7               	goto	u4080
  7326     01E6                     u4081:
  7327     01E6  29E8               	goto	l433
  7328     01E7                     u4080:
  7329     01E7                     l2744:
  7330     01E7  144D               	bsf	___fladd@b,0
  7331     01E8                     l433:
  7332     01E8  1C60               	btfss	___fladd@grs,0
  7333     01E9  29EB               	goto	u4091
  7334     01EA  29EC               	goto	u4090
  7335     01EB                     u4091:
  7336     01EB  29EF               	goto	l2748
  7337     01EC                     u4090:
  7338     01EC                     l2746:
  7339     01EC  1403               	setc
  7340     01ED  0DE0               	rlf	___fladd@grs,f
  7341     01EE  29F1               	goto	l2750
  7342     01EF                     l2748:
  7343     01EF  1003               	clrc
  7344     01F0  0DE0               	rlf	___fladd@grs,f
  7345     01F1                     l2750:
  7346     01F1  085F               	movf	___fladd@bexp,w
  7347     01F2  1903               	btfsc	3,2
  7348     01F3  29F5               	goto	u4101
  7349     01F4  29F6               	goto	u4100
  7350     01F5                     u4101:
  7351     01F5  29F8               	goto	l2754
  7352     01F6                     u4100:
  7353     01F6                     l2752:
  7354     01F6  3001               	movlw	1
  7355     01F7  02DF               	subwf	___fladd@bexp,f
  7356     01F8                     l2754:
  7357     01F8  1FCF               	btfss	___fladd@b+2,7
  7358     01F9  29FB               	goto	u4111
  7359     01FA  29FC               	goto	u4110
  7360     01FB                     u4111:
  7361     01FB  29DA               	goto	l2740
  7362     01FC                     u4110:
  7363     01FC                     l2756:
  7364     01FC  01DE               	clrf	___fladd@aexp
  7365     01FD                     l2758:
  7366     01FD  1FE0               	btfss	___fladd@grs,7
  7367     01FE  2A00               	goto	u4121
  7368     01FF  2A01               	goto	u4120
  7369     0200                     u4121:
  7370     0200  2A0F               	goto	l2766
  7371     0201                     u4120:
  7372     0201                     l2760:
  7373     0201  0860               	movf	___fladd@grs,w
  7374     0202  397F               	andlw	127
  7375     0203  1903               	btfsc	3,2
  7376     0204  2A06               	goto	u4131
  7377     0205  2A07               	goto	u4130
  7378     0206                     u4131:
  7379     0206  2A0A               	goto	l439
  7380     0207                     u4130:
  7381     0207                     l2762:
  7382     0207  01DE               	clrf	___fladd@aexp
  7383     0208  0ADE               	incf	___fladd@aexp,f
  7384     0209  2A0F               	goto	l2766
  7385     020A                     l439:
  7386     020A  1C4D               	btfss	___fladd@b,0
  7387     020B  2A0D               	goto	u4141
  7388     020C  2A0E               	goto	u4140
  7389     020D                     u4141:
  7390     020D  2A0F               	goto	l2766
  7391     020E                     u4140:
  7392     020E  2A07               	goto	l2762
  7393     020F                     l2766:
  7394     020F  085E               	movf	___fladd@aexp,w
  7395     0210  1903               	btfsc	3,2
  7396     0211  2A13               	goto	u4151
  7397     0212  2A14               	goto	u4150
  7398     0213                     u4151:
  7399     0213  2A48               	goto	l442
  7400     0214                     u4150:
  7401     0214                     l2768:
  7402     0214  3001               	movlw	1
  7403     0215  07CD               	addwf	___fladd@b,f
  7404     0216  3000               	movlw	0
  7405     0217  1803               	skipnc
  7406     0218  3001               	movlw	1
  7407     0219  07CE               	addwf	___fladd@b+1,f
  7408     021A  3000               	movlw	0
  7409     021B  1803               	skipnc
  7410     021C  3001               	movlw	1
  7411     021D  07CF               	addwf	___fladd@b+2,f
  7412     021E  3000               	movlw	0
  7413     021F  1803               	skipnc
  7414     0220  3001               	movlw	1
  7415     0221  07D0               	addwf	___fladd@b+3,f
  7416     0222                     l2770:
  7417     0222  1C50               	btfss	___fladd@b+3,0
  7418     0223  2A25               	goto	u4161
  7419     0224  2A26               	goto	u4160
  7420     0225                     u4161:
  7421     0225  2A48               	goto	l442
  7422     0226                     u4160:
  7423     0226                     l2772:
  7424     0226  084D               	movf	___fladd@b,w
  7425     0227  00D5               	movwf	??___fladd
  7426     0228  084E               	movf	___fladd@b+1,w
  7427     0229  00D6               	movwf	??___fladd+1
  7428     022A  084F               	movf	___fladd@b+2,w
  7429     022B  00D7               	movwf	??___fladd+2
  7430     022C  0850               	movf	___fladd@b+3,w
  7431     022D  00D8               	movwf	??___fladd+3
  7432     022E  3001               	movlw	1
  7433     022F  00D9               	movwf	??___fladd+4
  7434     0230                     u4175:
  7435     0230  0D58               	rlf	??___fladd+3,w
  7436     0231  0CD8               	rrf	??___fladd+3,f
  7437     0232  0CD7               	rrf	??___fladd+2,f
  7438     0233  0CD6               	rrf	??___fladd+1,f
  7439     0234  0CD5               	rrf	??___fladd,f
  7440     0235                     u4170:
  7441     0235  0BD9               	decfsz	??___fladd+4,f
  7442     0236  2A30               	goto	u4175
  7443     0237  0858               	movf	??___fladd+3,w
  7444     0238  00D0               	movwf	___fladd@b+3
  7445     0239  0857               	movf	??___fladd+2,w
  7446     023A  00CF               	movwf	___fladd@b+2
  7447     023B  0856               	movf	??___fladd+1,w
  7448     023C  00CE               	movwf	___fladd@b+1
  7449     023D  0855               	movf	??___fladd,w
  7450     023E  00CD               	movwf	___fladd@b
  7451     023F  0A5F               	incf	___fladd@bexp,w
  7452     0240  1903               	btfsc	3,2
  7453     0241  2A43               	goto	u4181
  7454     0242  2A44               	goto	u4180
  7455     0243                     u4181:
  7456     0243  2A48               	goto	l442
  7457     0244                     u4180:
  7458     0244                     l2774:
  7459     0244  3001               	movlw	1
  7460     0245  00D5               	movwf	??___fladd
  7461     0246  0855               	movf	??___fladd,w
  7462     0247  07DF               	addwf	___fladd@bexp,f
  7463     0248                     l442:
  7464     0248  0A5F               	incf	___fladd@bexp,w
  7465     0249  1903               	btfsc	3,2
  7466     024A  2A4C               	goto	u4191
  7467     024B  2A4D               	goto	u4190
  7468     024C                     u4191:
  7469     024C  2A52               	goto	l2778
  7470     024D                     u4190:
  7471     024D                     l2776:
  7472     024D  085F               	movf	___fladd@bexp,w
  7473     024E  1D03               	btfss	3,2
  7474     024F  2A51               	goto	u4201
  7475     0250  2A52               	goto	u4200
  7476     0251                     u4201:
  7477     0251  2A60               	goto	l2784
  7478     0252                     u4200:
  7479     0252                     l2778:
  7480     0252  3000               	movlw	0
  7481     0253  00D0               	movwf	___fladd@b+3
  7482     0254  3000               	movlw	0
  7483     0255  00CF               	movwf	___fladd@b+2
  7484     0256  3000               	movlw	0
  7485     0257  00CE               	movwf	___fladd@b+1
  7486     0258  3000               	movlw	0
  7487     0259  00CD               	movwf	___fladd@b
  7488     025A                     l2780:
  7489     025A  085F               	movf	___fladd@bexp,w
  7490     025B  1D03               	btfss	3,2
  7491     025C  2A5E               	goto	u4211
  7492     025D  2A5F               	goto	u4210
  7493     025E                     u4211:
  7494     025E  2A60               	goto	l2784
  7495     025F                     u4210:
  7496     025F                     l2782:
  7497     025F  01DD               	clrf	___fladd@signs
  7498     0260                     l2784:
  7499     0260  1C5F               	btfss	___fladd@bexp,0
  7500     0261  2A63               	goto	u4221
  7501     0262  2A64               	goto	u4220
  7502     0263                     u4221:
  7503     0263  2A66               	goto	l2788
  7504     0264                     u4220:
  7505     0264                     l2786:
  7506     0264  17CF               	bsf	___fladd@b+2,7
  7507     0265  2A6A               	goto	l450
  7508     0266                     l2788:
  7509     0266  307F               	movlw	127
  7510     0267  00D5               	movwf	??___fladd
  7511     0268  0855               	movf	??___fladd,w
  7512     0269  05CF               	andwf	___fladd@b+2,f
  7513     026A                     l450:
  7514     026A  085F               	movf	___fladd@bexp,w
  7515     026B  00D5               	movwf	??___fladd
  7516     026C  1003               	clrc
  7517     026D  0C55               	rrf	??___fladd,w
  7518     026E  00D0               	movwf	___fladd@b+3
  7519     026F                     l2790:
  7520     026F  1FDD               	btfss	___fladd@signs,7
  7521     0270  2A72               	goto	u4231
  7522     0271  2A73               	goto	u4230
  7523     0272                     u4231:
  7524     0272  2A74               	goto	l451
  7525     0273                     u4230:
  7526     0273                     l2792:
  7527     0273  17D0               	bsf	___fladd@b+3,7
  7528     0274                     l451:
  7529     0274                     l421:
  7530     0274  0008               	return
  7531     0275                     __end_of___fladd:
  7532                           
  7533                           	psect	text16
  7534     0003                     __ptext16:	
  7535 ;; *************** function ___flneg *****************
  7536 ;; Defined at:
  7537 ;;		line 15 in file "C:\Program Files\Microchip\xc8\v2.40\pic\sources\c90\common\flneg.c"
  7538 ;; Parameters:    Size  Location     Type
  7539 ;;  f1              4    0[COMMON] unsigned char 
  7540 ;; Auto vars:     Size  Location     Type
  7541 ;;		None
  7542 ;; Return value:  Size  Location     Type
  7543 ;;                  4    0[COMMON] unsigned char 
  7544 ;; Registers used:
  7545 ;;		wreg
  7546 ;; Tracked objects:
  7547 ;;		On entry : 0/0
  7548 ;;		On exit  : 0/0
  7549 ;;		Unchanged: 0/0
  7550 ;; Data sizes:     COMMON   BANK0   BANK1   BANK3   BANK2
  7551 ;;      Params:         4       0       0       0       0
  7552 ;;      Locals:         0       0       0       0       0
  7553 ;;      Temps:          0       0       0       0       0
  7554 ;;      Totals:         4       0       0       0       0
  7555 ;;Total ram usage:        4 bytes
  7556 ;; Hardware stack levels used: 1
  7557 ;; This function calls:
  7558 ;;		Nothing
  7559 ;; This function is called by:
  7560 ;;		_pow
  7561 ;;		_exp
  7562 ;; This function uses a non-reentrant model
  7563 ;;
  7564                           
  7565     0003                     ___flneg:	
  7566                           ;psect for function ___flneg
  7567                           
  7568     0003                     l2128:	
  7569                           ;incstack = 0
  7570                           ; Regs used in ___flneg: [wreg]
  7571                           
  7572     0003  0873               	movf	___flneg@f1+3,w
  7573     0004  0472               	iorwf	___flneg@f1+2,w
  7574     0005  0471               	iorwf	___flneg@f1+1,w
  7575     0006  0470               	iorwf	___flneg@f1,w
  7576     0007  1903               	skipnz
  7577     0008  280A               	goto	u3041
  7578     0009  280B               	goto	u3040
  7579     000A                     u3041:
  7580     000A  280D               	goto	l2132
  7581     000B                     u3040:
  7582     000B                     l2130:
  7583     000B  3080               	movlw	128
  7584     000C  06F3               	xorwf	___flneg@f1+3,f
  7585     000D                     l2132:
  7586     000D                     l297:
  7587     000D  0008               	return
  7588     000E                     __end_of___flneg:
  7589                           
  7590                           	psect	text17
  7591     08AD                     __ptext17:	
  7592 ;; *************** function ___fldiv *****************
  7593 ;; Defined at:
  7594 ;;		line 8 in file "C:\Program Files\Microchip\xc8\v2.40\pic\sources\c90\common\sprcdiv.c"
  7595 ;; Parameters:    Size  Location     Type
  7596 ;;  a               4    0[COMMON] unsigned char 
  7597 ;;  b               4    4[COMMON] unsigned char 
  7598 ;; Auto vars:     Size  Location     Type
  7599 ;;  grs             4    7[BANK0 ] unsigned long 
  7600 ;;  rem             4    0[BANK0 ] unsigned long 
  7601 ;;  new_exp         2    5[BANK0 ] int 
  7602 ;;  aexp            1   12[BANK0 ] unsigned char 
  7603 ;;  bexp            1   11[BANK0 ] unsigned char 
  7604 ;;  sign            1    4[BANK0 ] unsigned char 
  7605 ;; Return value:  Size  Location     Type
  7606 ;;                  4    0[COMMON] unsigned char 
  7607 ;; Registers used:
  7608 ;;		wreg, status,2, status,0, btemp+1
  7609 ;; Tracked objects:
  7610 ;;		On entry : 0/0
  7611 ;;		On exit  : 0/0
  7612 ;;		Unchanged: 0/0
  7613 ;; Data sizes:     COMMON   BANK0   BANK1   BANK3   BANK2
  7614 ;;      Params:         8       0       0       0       0
  7615 ;;      Locals:         0      13       0       0       0
  7616 ;;      Temps:          5       0       0       0       0
  7617 ;;      Totals:        13      13       0       0       0
  7618 ;;Total ram usage:       26 bytes
  7619 ;; Hardware stack levels used: 1
  7620 ;; This function calls:
  7621 ;;		Nothing
  7622 ;; This function is called by:
  7623 ;;		_exp
  7624 ;; This function uses a non-reentrant model
  7625 ;;
  7626                           
  7627     08AD                     ___fldiv:	
  7628                           ;psect for function ___fldiv
  7629                           
  7630     08AD                     l2142:	
  7631                           ;incstack = 0
  7632                           ; Regs used in ___fldiv: [wreg+status,2+status,0+btemp+1]
  7633                           
  7634     08AD  0877               	movf	___fldiv@b+3,w
  7635     08AE  3980               	andlw	128
  7636     08AF  1283               	bcf	3,5	;RP0=0, select bank0
  7637     08B0  1303               	bcf	3,6	;RP1=0, select bank0
  7638     08B1  00A4               	movwf	___fldiv@sign
  7639     08B2                     l2144:
  7640     08B2  0877               	movf	___fldiv@b+3,w
  7641     08B3  00F8               	movwf	??___fldiv
  7642     08B4  0778               	addwf	??___fldiv,w
  7643     08B5  00AB               	movwf	___fldiv@bexp
  7644     08B6                     l2146:
  7645     08B6  1FF6               	btfss	___fldiv@b+2,7
  7646     08B7  28B9               	goto	u3051
  7647     08B8  28BA               	goto	u3050
  7648     08B9                     u3051:
  7649     08B9  28BB               	goto	l2150
  7650     08BA                     u3050:
  7651     08BA                     l2148:
  7652     08BA  142B               	bsf	___fldiv@bexp,0
  7653     08BB                     l2150:
  7654     08BB  082B               	movf	___fldiv@bexp,w
  7655     08BC  1903               	btfsc	3,2
  7656     08BD  28BF               	goto	u3061
  7657     08BE  28C0               	goto	u3060
  7658     08BF                     u3061:
  7659     08BF  28D0               	goto	l2160
  7660     08C0                     u3060:
  7661     08C0                     l2152:
  7662     08C0  0A2B               	incf	___fldiv@bexp,w
  7663     08C1  1D03               	btfss	3,2
  7664     08C2  28C4               	goto	u3071
  7665     08C3  28C5               	goto	u3070
  7666     08C4                     u3071:
  7667     08C4  28CD               	goto	l2156
  7668     08C5                     u3070:
  7669     08C5                     l2154:
  7670     08C5  3000               	movlw	0
  7671     08C6  00F7               	movwf	___fldiv@b+3
  7672     08C7  3000               	movlw	0
  7673     08C8  00F6               	movwf	___fldiv@b+2
  7674     08C9  3000               	movlw	0
  7675     08CA  00F5               	movwf	___fldiv@b+1
  7676     08CB  3000               	movlw	0
  7677     08CC  00F4               	movwf	___fldiv@b
  7678     08CD                     l2156:
  7679     08CD  17F6               	bsf	___fldiv@b+2,7
  7680     08CE                     l2158:
  7681     08CE  01F7               	clrf	___fldiv@b+3
  7682     08CF  28D8               	goto	l2162
  7683     08D0                     l2160:
  7684     08D0  3000               	movlw	0
  7685     08D1  00F7               	movwf	___fldiv@b+3
  7686     08D2  3000               	movlw	0
  7687     08D3  00F6               	movwf	___fldiv@b+2
  7688     08D4  3000               	movlw	0
  7689     08D5  00F5               	movwf	___fldiv@b+1
  7690     08D6  3000               	movlw	0
  7691     08D7  00F4               	movwf	___fldiv@b
  7692     08D8                     l2162:
  7693     08D8  0873               	movf	___fldiv@a+3,w
  7694     08D9  3980               	andlw	128
  7695     08DA  00F8               	movwf	??___fldiv
  7696     08DB  0878               	movf	??___fldiv,w
  7697     08DC  06A4               	xorwf	___fldiv@sign,f
  7698     08DD                     l2164:
  7699     08DD  0873               	movf	___fldiv@a+3,w
  7700     08DE  00F8               	movwf	??___fldiv
  7701     08DF  0778               	addwf	??___fldiv,w
  7702     08E0  00AC               	movwf	___fldiv@aexp
  7703     08E1                     l2166:
  7704     08E1  1FF2               	btfss	___fldiv@a+2,7
  7705     08E2  28E4               	goto	u3081
  7706     08E3  28E5               	goto	u3080
  7707     08E4                     u3081:
  7708     08E4  28E6               	goto	l2170
  7709     08E5                     u3080:
  7710     08E5                     l2168:
  7711     08E5  142C               	bsf	___fldiv@aexp,0
  7712     08E6                     l2170:
  7713     08E6  082C               	movf	___fldiv@aexp,w
  7714     08E7  1903               	btfsc	3,2
  7715     08E8  28EA               	goto	u3091
  7716     08E9  28EB               	goto	u3090
  7717     08EA                     u3091:
  7718     08EA  28FB               	goto	l2180
  7719     08EB                     u3090:
  7720     08EB                     l2172:
  7721     08EB  0A2C               	incf	___fldiv@aexp,w
  7722     08EC  1D03               	btfss	3,2
  7723     08ED  28EF               	goto	u3101
  7724     08EE  28F0               	goto	u3100
  7725     08EF                     u3101:
  7726     08EF  28F8               	goto	l2176
  7727     08F0                     u3100:
  7728     08F0                     l2174:
  7729     08F0  3000               	movlw	0
  7730     08F1  00F3               	movwf	___fldiv@a+3
  7731     08F2  3000               	movlw	0
  7732     08F3  00F2               	movwf	___fldiv@a+2
  7733     08F4  3000               	movlw	0
  7734     08F5  00F1               	movwf	___fldiv@a+1
  7735     08F6  3000               	movlw	0
  7736     08F7  00F0               	movwf	___fldiv@a
  7737     08F8                     l2176:
  7738     08F8  17F2               	bsf	___fldiv@a+2,7
  7739     08F9                     l2178:
  7740     08F9  01F3               	clrf	___fldiv@a+3
  7741     08FA  2903               	goto	l464
  7742     08FB                     l2180:
  7743     08FB  3000               	movlw	0
  7744     08FC  00F3               	movwf	___fldiv@a+3
  7745     08FD  3000               	movlw	0
  7746     08FE  00F2               	movwf	___fldiv@a+2
  7747     08FF  3000               	movlw	0
  7748     0900  00F1               	movwf	___fldiv@a+1
  7749     0901  3000               	movlw	0
  7750     0902  00F0               	movwf	___fldiv@a
  7751     0903                     l464:
  7752     0903  0873               	movf	___fldiv@a+3,w
  7753     0904  0472               	iorwf	___fldiv@a+2,w
  7754     0905  0471               	iorwf	___fldiv@a+1,w
  7755     0906  0470               	iorwf	___fldiv@a,w
  7756     0907  1D03               	skipz
  7757     0908  290A               	goto	u3111
  7758     0909  290B               	goto	u3110
  7759     090A                     u3111:
  7760     090A  2924               	goto	l2190
  7761     090B                     u3110:
  7762     090B                     l2182:
  7763     090B  3000               	movlw	0
  7764     090C  00F7               	movwf	___fldiv@b+3
  7765     090D  3000               	movlw	0
  7766     090E  00F6               	movwf	___fldiv@b+2
  7767     090F  3000               	movlw	0
  7768     0910  00F5               	movwf	___fldiv@b+1
  7769     0911  3000               	movlw	0
  7770     0912  00F4               	movwf	___fldiv@b
  7771     0913  3080               	movlw	128
  7772     0914  04F6               	iorwf	___fldiv@b+2,f
  7773     0915  307F               	movlw	127
  7774     0916  04F7               	iorwf	___fldiv@b+3,f
  7775     0917                     l2184:
  7776     0917  0824               	movf	___fldiv@sign,w
  7777     0918  00F8               	movwf	??___fldiv
  7778     0919  0878               	movf	??___fldiv,w
  7779     091A  04F7               	iorwf	___fldiv@b+3,f
  7780     091B                     l2186:
  7781     091B  0877               	movf	___fldiv@b+3,w
  7782     091C  00F3               	movwf	?___fldiv+3
  7783     091D  0876               	movf	___fldiv@b+2,w
  7784     091E  00F2               	movwf	?___fldiv+2
  7785     091F  0875               	movf	___fldiv@b+1,w
  7786     0920  00F1               	movwf	?___fldiv+1
  7787     0921  0874               	movf	___fldiv@b,w
  7788     0922  00F0               	movwf	?___fldiv
  7789     0923  2A85               	goto	l466
  7790     0924                     l2190:
  7791     0924  082B               	movf	___fldiv@bexp,w
  7792     0925  1D03               	btfss	3,2
  7793     0926  2928               	goto	u3121
  7794     0927  2929               	goto	u3120
  7795     0928                     u3121:
  7796     0928  2932               	goto	l2196
  7797     0929                     u3120:
  7798     0929                     l2192:
  7799     0929  3000               	movlw	0
  7800     092A  00F3               	movwf	?___fldiv+3
  7801     092B  3000               	movlw	0
  7802     092C  00F2               	movwf	?___fldiv+2
  7803     092D  3000               	movlw	0
  7804     092E  00F1               	movwf	?___fldiv+1
  7805     092F  3000               	movlw	0
  7806     0930  00F0               	movwf	?___fldiv
  7807     0931  2A85               	goto	l466
  7808     0932                     l2196:
  7809     0932  082B               	movf	___fldiv@bexp,w
  7810     0933  00F8               	movwf	??___fldiv
  7811     0934  01F9               	clrf	??___fldiv+1
  7812     0935  0879               	movf	??___fldiv+1,w
  7813     0936  00FB               	movwf	??___fldiv+3
  7814     0937  082C               	movf	___fldiv@aexp,w
  7815     0938  0278               	subwf	??___fldiv,w
  7816     0939  00FA               	movwf	??___fldiv+2
  7817     093A  1C03               	skipc
  7818     093B  03FB               	decf	??___fldiv+3,f
  7819     093C  087A               	movf	??___fldiv+2,w
  7820     093D  3E7F               	addlw	127
  7821     093E  00A5               	movwf	___fldiv@new_exp
  7822     093F  087B               	movf	??___fldiv+3,w
  7823     0940  1803               	skipnc
  7824     0941  3E01               	addlw	1
  7825     0942  3E00               	addlw	0
  7826     0943  00A6               	movwf	___fldiv@new_exp+1
  7827     0944                     l2198:
  7828     0944  0877               	movf	___fldiv@b+3,w
  7829     0945  00A3               	movwf	___fldiv@rem+3
  7830     0946  0876               	movf	___fldiv@b+2,w
  7831     0947  00A2               	movwf	___fldiv@rem+2
  7832     0948  0875               	movf	___fldiv@b+1,w
  7833     0949  00A1               	movwf	___fldiv@rem+1
  7834     094A  0874               	movf	___fldiv@b,w
  7835     094B  00A0               	movwf	___fldiv@rem
  7836     094C                     l2200:
  7837     094C  3000               	movlw	0
  7838     094D  00F7               	movwf	___fldiv@b+3
  7839     094E  3000               	movlw	0
  7840     094F  00F6               	movwf	___fldiv@b+2
  7841     0950  3000               	movlw	0
  7842     0951  00F5               	movwf	___fldiv@b+1
  7843     0952  3000               	movlw	0
  7844     0953  00F4               	movwf	___fldiv@b
  7845     0954                     l2202:
  7846     0954  3000               	movlw	0
  7847     0955  00AA               	movwf	___fldiv@grs+3
  7848     0956  3000               	movlw	0
  7849     0957  00A9               	movwf	___fldiv@grs+2
  7850     0958  3000               	movlw	0
  7851     0959  00A8               	movwf	___fldiv@grs+1
  7852     095A  3000               	movlw	0
  7853     095B  00A7               	movwf	___fldiv@grs
  7854     095C                     l2204:
  7855     095C  01AC               	clrf	___fldiv@aexp
  7856     095D  29AE               	goto	l2224
  7857     095E                     l2206:
  7858     095E  082C               	movf	___fldiv@aexp,w
  7859     095F  1903               	btfsc	3,2
  7860     0960  2962               	goto	u3131
  7861     0961  2963               	goto	u3130
  7862     0962                     u3131:
  7863     0962  2983               	goto	l2216
  7864     0963                     u3130:
  7865     0963                     l2208:
  7866     0963  3001               	movlw	1
  7867     0964  00F8               	movwf	??___fldiv
  7868     0965                     u3145:
  7869     0965  1003               	clrc
  7870     0966  0DA0               	rlf	___fldiv@rem,f
  7871     0967  0DA1               	rlf	___fldiv@rem+1,f
  7872     0968  0DA2               	rlf	___fldiv@rem+2,f
  7873     0969  0DA3               	rlf	___fldiv@rem+3,f
  7874     096A  0BF8               	decfsz	??___fldiv,f
  7875     096B  2965               	goto	u3145
  7876     096C  3001               	movlw	1
  7877     096D  00F8               	movwf	??___fldiv
  7878     096E                     u3155:
  7879     096E  1003               	clrc
  7880     096F  0DF4               	rlf	___fldiv@b,f
  7881     0970  0DF5               	rlf	___fldiv@b+1,f
  7882     0971  0DF6               	rlf	___fldiv@b+2,f
  7883     0972  0DF7               	rlf	___fldiv@b+3,f
  7884     0973  0BF8               	decfsz	??___fldiv,f
  7885     0974  296E               	goto	u3155
  7886     0975                     l2210:
  7887     0975  1FAA               	btfss	___fldiv@grs+3,7
  7888     0976  2978               	goto	u3161
  7889     0977  2979               	goto	u3160
  7890     0978                     u3161:
  7891     0978  297A               	goto	l2214
  7892     0979                     u3160:
  7893     0979                     l2212:
  7894     0979  1474               	bsf	___fldiv@b,0
  7895     097A                     l2214:
  7896     097A  3001               	movlw	1
  7897     097B  00F8               	movwf	??___fldiv
  7898     097C                     u3175:
  7899     097C  1003               	clrc
  7900     097D  0DA7               	rlf	___fldiv@grs,f
  7901     097E  0DA8               	rlf	___fldiv@grs+1,f
  7902     097F  0DA9               	rlf	___fldiv@grs+2,f
  7903     0980  0DAA               	rlf	___fldiv@grs+3,f
  7904     0981  0BF8               	decfsz	??___fldiv,f
  7905     0982  297C               	goto	u3175
  7906     0983                     l2216:
  7907     0983  0873               	movf	___fldiv@a+3,w
  7908     0984  0223               	subwf	___fldiv@rem+3,w
  7909     0985  1D03               	skipz
  7910     0986  2991               	goto	u3185
  7911     0987  0872               	movf	___fldiv@a+2,w
  7912     0988  0222               	subwf	___fldiv@rem+2,w
  7913     0989  1D03               	skipz
  7914     098A  2991               	goto	u3185
  7915     098B  0871               	movf	___fldiv@a+1,w
  7916     098C  0221               	subwf	___fldiv@rem+1,w
  7917     098D  1D03               	skipz
  7918     098E  2991               	goto	u3185
  7919     098F  0870               	movf	___fldiv@a,w
  7920     0990  0220               	subwf	___fldiv@rem,w
  7921     0991                     u3185:
  7922     0991  1C03               	skipc
  7923     0992  2994               	goto	u3181
  7924     0993  2995               	goto	u3180
  7925     0994                     u3181:
  7926     0994  29AA               	goto	l2222
  7927     0995                     u3180:
  7928     0995                     l2218:
  7929     0995  172A               	bsf	___fldiv@grs+3,6
  7930     0996                     l2220:
  7931     0996  0870               	movf	___fldiv@a,w
  7932     0997  02A0               	subwf	___fldiv@rem,f
  7933     0998  0871               	movf	___fldiv@a+1,w
  7934     0999  1C03               	skipc
  7935     099A  0F71               	incfsz	___fldiv@a+1,w
  7936     099B  299D               	goto	u3195
  7937     099C  299E               	goto	u3196
  7938     099D                     u3195:
  7939     099D  02A1               	subwf	___fldiv@rem+1,f
  7940     099E                     u3196:
  7941     099E  0872               	movf	___fldiv@a+2,w
  7942     099F  1C03               	skipc
  7943     09A0  0F72               	incfsz	___fldiv@a+2,w
  7944     09A1  29A3               	goto	u3197
  7945     09A2  29A4               	goto	u3198
  7946     09A3                     u3197:
  7947     09A3  02A2               	subwf	___fldiv@rem+2,f
  7948     09A4                     u3198:
  7949     09A4  0873               	movf	___fldiv@a+3,w
  7950     09A5  1C03               	skipc
  7951     09A6  0F73               	incfsz	___fldiv@a+3,w
  7952     09A7  29A9               	goto	u3199
  7953     09A8  29AA               	goto	u3190
  7954     09A9                     u3199:
  7955     09A9  02A3               	subwf	___fldiv@rem+3,f
  7956     09AA                     u3190:
  7957     09AA                     l2222:
  7958     09AA  3001               	movlw	1
  7959     09AB  00F8               	movwf	??___fldiv
  7960     09AC  0878               	movf	??___fldiv,w
  7961     09AD  07AC               	addwf	___fldiv@aexp,f
  7962     09AE                     l2224:
  7963     09AE  301A               	movlw	26
  7964     09AF  022C               	subwf	___fldiv@aexp,w
  7965     09B0  1C03               	skipc
  7966     09B1  29B3               	goto	u3201
  7967     09B2  29B4               	goto	u3200
  7968     09B3                     u3201:
  7969     09B3  295E               	goto	l2206
  7970     09B4                     u3200:
  7971     09B4                     l2226:
  7972     09B4  0823               	movf	___fldiv@rem+3,w
  7973     09B5  0422               	iorwf	___fldiv@rem+2,w
  7974     09B6  0421               	iorwf	___fldiv@rem+1,w
  7975     09B7  0420               	iorwf	___fldiv@rem,w
  7976     09B8  1903               	skipnz
  7977     09B9  29BB               	goto	u3211
  7978     09BA  29BC               	goto	u3210
  7979     09BB                     u3211:
  7980     09BB  29DB               	goto	l2240
  7981     09BC                     u3210:
  7982     09BC                     l2228:
  7983     09BC  1427               	bsf	___fldiv@grs,0
  7984     09BD  29DB               	goto	l2240
  7985     09BE                     l2230:
  7986     09BE  3001               	movlw	1
  7987     09BF  00F8               	movwf	??___fldiv
  7988     09C0                     u3225:
  7989     09C0  1003               	clrc
  7990     09C1  0DF4               	rlf	___fldiv@b,f
  7991     09C2  0DF5               	rlf	___fldiv@b+1,f
  7992     09C3  0DF6               	rlf	___fldiv@b+2,f
  7993     09C4  0DF7               	rlf	___fldiv@b+3,f
  7994     09C5  0BF8               	decfsz	??___fldiv,f
  7995     09C6  29C0               	goto	u3225
  7996     09C7                     l2232:
  7997     09C7  1FAA               	btfss	___fldiv@grs+3,7
  7998     09C8  29CA               	goto	u3231
  7999     09C9  29CB               	goto	u3230
  8000     09CA                     u3231:
  8001     09CA  29CC               	goto	l2236
  8002     09CB                     u3230:
  8003     09CB                     l2234:
  8004     09CB  1474               	bsf	___fldiv@b,0
  8005     09CC                     l2236:
  8006     09CC  3001               	movlw	1
  8007     09CD  00F8               	movwf	??___fldiv
  8008     09CE                     u3245:
  8009     09CE  1003               	clrc
  8010     09CF  0DA7               	rlf	___fldiv@grs,f
  8011     09D0  0DA8               	rlf	___fldiv@grs+1,f
  8012     09D1  0DA9               	rlf	___fldiv@grs+2,f
  8013     09D2  0DAA               	rlf	___fldiv@grs+3,f
  8014     09D3  0BF8               	decfsz	??___fldiv,f
  8015     09D4  29CE               	goto	u3245
  8016     09D5                     l2238:
  8017     09D5  30FF               	movlw	255
  8018     09D6  07A5               	addwf	___fldiv@new_exp,f
  8019     09D7  1803               	skipnc
  8020     09D8  0AA6               	incf	___fldiv@new_exp+1,f
  8021     09D9  30FF               	movlw	255
  8022     09DA  07A6               	addwf	___fldiv@new_exp+1,f
  8023     09DB                     l2240:
  8024     09DB  1FF6               	btfss	___fldiv@b+2,7
  8025     09DC  29DE               	goto	u3251
  8026     09DD  29DF               	goto	u3250
  8027     09DE                     u3251:
  8028     09DE  29BE               	goto	l2230
  8029     09DF                     u3250:
  8030     09DF                     l2242:
  8031     09DF  01AC               	clrf	___fldiv@aexp
  8032     09E0                     l2244:
  8033     09E0  1FAA               	btfss	___fldiv@grs+3,7
  8034     09E1  29E3               	goto	u3261
  8035     09E2  29E4               	goto	u3260
  8036     09E3                     u3261:
  8037     09E3  2A00               	goto	l2252
  8038     09E4                     u3260:
  8039     09E4                     l2246:
  8040     09E4  30FF               	movlw	255
  8041     09E5  0527               	andwf	___fldiv@grs,w
  8042     09E6  00F8               	movwf	??___fldiv
  8043     09E7  30FF               	movlw	255
  8044     09E8  0528               	andwf	___fldiv@grs+1,w
  8045     09E9  00F9               	movwf	??___fldiv+1
  8046     09EA  30FF               	movlw	255
  8047     09EB  0529               	andwf	___fldiv@grs+2,w
  8048     09EC  00FA               	movwf	??___fldiv+2
  8049     09ED  307F               	movlw	127
  8050     09EE  052A               	andwf	___fldiv@grs+3,w
  8051     09EF  00FB               	movwf	??___fldiv+3
  8052     09F0  087B               	movf	??___fldiv+3,w
  8053     09F1  047A               	iorwf	??___fldiv+2,w
  8054     09F2  0479               	iorwf	??___fldiv+1,w
  8055     09F3  0478               	iorwf	??___fldiv,w
  8056     09F4  1903               	skipnz
  8057     09F5  29F7               	goto	u3271
  8058     09F6  29F8               	goto	u3270
  8059     09F7                     u3271:
  8060     09F7  29FB               	goto	l480
  8061     09F8                     u3270:
  8062     09F8                     l2248:
  8063     09F8  01AC               	clrf	___fldiv@aexp
  8064     09F9  0AAC               	incf	___fldiv@aexp,f
  8065     09FA  2A00               	goto	l2252
  8066     09FB                     l480:
  8067     09FB  1C74               	btfss	___fldiv@b,0
  8068     09FC  29FE               	goto	u3281
  8069     09FD  29FF               	goto	u3280
  8070     09FE                     u3281:
  8071     09FE  2A00               	goto	l2252
  8072     09FF                     u3280:
  8073     09FF  29F8               	goto	l2248
  8074     0A00                     l2252:
  8075     0A00  082C               	movf	___fldiv@aexp,w
  8076     0A01  1903               	btfsc	3,2
  8077     0A02  2A04               	goto	u3291
  8078     0A03  2A05               	goto	u3290
  8079     0A04                     u3291:
  8080     0A04  2A36               	goto	l2262
  8081     0A05                     u3290:
  8082     0A05                     l2254:
  8083     0A05  3001               	movlw	1
  8084     0A06  07F4               	addwf	___fldiv@b,f
  8085     0A07  3000               	movlw	0
  8086     0A08  1803               	skipnc
  8087     0A09  3001               	movlw	1
  8088     0A0A  07F5               	addwf	___fldiv@b+1,f
  8089     0A0B  3000               	movlw	0
  8090     0A0C  1803               	skipnc
  8091     0A0D  3001               	movlw	1
  8092     0A0E  07F6               	addwf	___fldiv@b+2,f
  8093     0A0F  3000               	movlw	0
  8094     0A10  1803               	skipnc
  8095     0A11  3001               	movlw	1
  8096     0A12  07F7               	addwf	___fldiv@b+3,f
  8097     0A13                     l2256:
  8098     0A13  1C77               	btfss	___fldiv@b+3,0
  8099     0A14  2A16               	goto	u3301
  8100     0A15  2A17               	goto	u3300
  8101     0A16                     u3301:
  8102     0A16  2A36               	goto	l2262
  8103     0A17                     u3300:
  8104     0A17                     l2258:
  8105     0A17  0874               	movf	___fldiv@b,w
  8106     0A18  00F8               	movwf	??___fldiv
  8107     0A19  0875               	movf	___fldiv@b+1,w
  8108     0A1A  00F9               	movwf	??___fldiv+1
  8109     0A1B  0876               	movf	___fldiv@b+2,w
  8110     0A1C  00FA               	movwf	??___fldiv+2
  8111     0A1D  0877               	movf	___fldiv@b+3,w
  8112     0A1E  00FB               	movwf	??___fldiv+3
  8113     0A1F  3001               	movlw	1
  8114     0A20  00FC               	movwf	??___fldiv+4
  8115     0A21                     u3315:
  8116     0A21  0D7B               	rlf	??___fldiv+3,w
  8117     0A22  0CFB               	rrf	??___fldiv+3,f
  8118     0A23  0CFA               	rrf	??___fldiv+2,f
  8119     0A24  0CF9               	rrf	??___fldiv+1,f
  8120     0A25  0CF8               	rrf	??___fldiv,f
  8121     0A26                     u3310:
  8122     0A26  0BFC               	decfsz	??___fldiv+4,f
  8123     0A27  2A21               	goto	u3315
  8124     0A28  087B               	movf	??___fldiv+3,w
  8125     0A29  00F7               	movwf	___fldiv@b+3
  8126     0A2A  087A               	movf	??___fldiv+2,w
  8127     0A2B  00F6               	movwf	___fldiv@b+2
  8128     0A2C  0879               	movf	??___fldiv+1,w
  8129     0A2D  00F5               	movwf	___fldiv@b+1
  8130     0A2E  0878               	movf	??___fldiv,w
  8131     0A2F  00F4               	movwf	___fldiv@b
  8132     0A30                     l2260:
  8133     0A30  3001               	movlw	1
  8134     0A31  07A5               	addwf	___fldiv@new_exp,f
  8135     0A32  1803               	skipnc
  8136     0A33  0AA6               	incf	___fldiv@new_exp+1,f
  8137     0A34  3000               	movlw	0
  8138     0A35  07A6               	addwf	___fldiv@new_exp+1,f
  8139     0A36                     l2262:
  8140     0A36  0826               	movf	___fldiv@new_exp+1,w
  8141     0A37  3A80               	xorlw	128
  8142     0A38  00FF               	movwf	btemp+1
  8143     0A39  3080               	movlw	128
  8144     0A3A  027F               	subwf	btemp+1,w
  8145     0A3B  1D03               	skipz
  8146     0A3C  2A3F               	goto	u3325
  8147     0A3D  30FF               	movlw	255
  8148     0A3E  0225               	subwf	___fldiv@new_exp,w
  8149     0A3F                     u3325:
  8150     0A3F  1C03               	skipc
  8151     0A40  2A42               	goto	u3321
  8152     0A41  2A43               	goto	u3320
  8153     0A42                     u3321:
  8154     0A42  2A51               	goto	l2266
  8155     0A43                     u3320:
  8156     0A43                     l2264:
  8157     0A43  30FF               	movlw	255
  8158     0A44  1283               	bcf	3,5	;RP0=0, select bank0
  8159     0A45  1303               	bcf	3,6	;RP1=0, select bank0
  8160     0A46  00A5               	movwf	___fldiv@new_exp
  8161     0A47  3000               	movlw	0
  8162     0A48  00A6               	movwf	___fldiv@new_exp+1
  8163     0A49  3000               	movlw	0
  8164     0A4A  00F7               	movwf	___fldiv@b+3
  8165     0A4B  3000               	movlw	0
  8166     0A4C  00F6               	movwf	___fldiv@b+2
  8167     0A4D  3000               	movlw	0
  8168     0A4E  00F5               	movwf	___fldiv@b+1
  8169     0A4F  3000               	movlw	0
  8170     0A50  00F4               	movwf	___fldiv@b
  8171     0A51                     l2266:
  8172     0A51  1283               	bcf	3,5	;RP0=0, select bank0
  8173     0A52  1303               	bcf	3,6	;RP1=0, select bank0
  8174     0A53  0826               	movf	___fldiv@new_exp+1,w
  8175     0A54  3A80               	xorlw	128
  8176     0A55  00FF               	movwf	btemp+1
  8177     0A56  3080               	movlw	128
  8178     0A57  027F               	subwf	btemp+1,w
  8179     0A58  1D03               	skipz
  8180     0A59  2A5C               	goto	u3335
  8181     0A5A  3001               	movlw	1
  8182     0A5B  0225               	subwf	___fldiv@new_exp,w
  8183     0A5C                     u3335:
  8184     0A5C  1803               	skipnc
  8185     0A5D  2A5F               	goto	u3331
  8186     0A5E  2A60               	goto	u3330
  8187     0A5F                     u3331:
  8188     0A5F  2A6D               	goto	l486
  8189     0A60                     u3330:
  8190     0A60                     l2268:
  8191     0A60  1283               	bcf	3,5	;RP0=0, select bank0
  8192     0A61  1303               	bcf	3,6	;RP1=0, select bank0
  8193     0A62  01A5               	clrf	___fldiv@new_exp
  8194     0A63  01A6               	clrf	___fldiv@new_exp+1
  8195     0A64                     l2270:
  8196     0A64  3000               	movlw	0
  8197     0A65  00F7               	movwf	___fldiv@b+3
  8198     0A66  3000               	movlw	0
  8199     0A67  00F6               	movwf	___fldiv@b+2
  8200     0A68  3000               	movlw	0
  8201     0A69  00F5               	movwf	___fldiv@b+1
  8202     0A6A  3000               	movlw	0
  8203     0A6B  00F4               	movwf	___fldiv@b
  8204     0A6C                     l2272:
  8205     0A6C  01A4               	clrf	___fldiv@sign
  8206     0A6D                     l486:
  8207     0A6D  1283               	bcf	3,5	;RP0=0, select bank0
  8208     0A6E  1303               	bcf	3,6	;RP1=0, select bank0
  8209     0A6F  0825               	movf	___fldiv@new_exp,w
  8210     0A70  00AB               	movwf	___fldiv@bexp
  8211     0A71                     l2274:
  8212     0A71  1C2B               	btfss	___fldiv@bexp,0
  8213     0A72  2A74               	goto	u3341
  8214     0A73  2A75               	goto	u3340
  8215     0A74                     u3341:
  8216     0A74  2A77               	goto	l2278
  8217     0A75                     u3340:
  8218     0A75                     l2276:
  8219     0A75  17F6               	bsf	___fldiv@b+2,7
  8220     0A76  2A7B               	goto	l488
  8221     0A77                     l2278:
  8222     0A77  307F               	movlw	127
  8223     0A78  00F8               	movwf	??___fldiv
  8224     0A79  0878               	movf	??___fldiv,w
  8225     0A7A  05F6               	andwf	___fldiv@b+2,f
  8226     0A7B                     l488:
  8227     0A7B  082B               	movf	___fldiv@bexp,w
  8228     0A7C  00F8               	movwf	??___fldiv
  8229     0A7D  1003               	clrc
  8230     0A7E  0C78               	rrf	??___fldiv,w
  8231     0A7F  00F7               	movwf	___fldiv@b+3
  8232     0A80  0824               	movf	___fldiv@sign,w
  8233     0A81  00F8               	movwf	??___fldiv
  8234     0A82  0878               	movf	??___fldiv,w
  8235     0A83  04F7               	iorwf	___fldiv@b+3,f
  8236     0A84  291B               	goto	l2186
  8237     0A85                     l466:
  8238     0A85  0008               	return
  8239     0A86                     __end_of___fldiv:
  8240                           
  8241                           	psect	text18
  8242     000E                     __ptext18:	
  8243 ;; *************** function _delay *****************
  8244 ;; Defined at:
  8245 ;;		line 24 in file "butterfly.c"
  8246 ;; Parameters:    Size  Location     Type
  8247 ;;  t               2    0[COMMON] int 
  8248 ;; Auto vars:     Size  Location     Type
  8249 ;;		None
  8250 ;; Return value:  Size  Location     Type
  8251 ;;                  1    wreg      void 
  8252 ;; Registers used:
  8253 ;;		wreg, status,2, status,0
  8254 ;; Tracked objects:
  8255 ;;		On entry : 0/0
  8256 ;;		On exit  : 0/0
  8257 ;;		Unchanged: 0/0
  8258 ;; Data sizes:     COMMON   BANK0   BANK1   BANK3   BANK2
  8259 ;;      Params:         2       0       0       0       0
  8260 ;;      Locals:         0       0       0       0       0
  8261 ;;      Temps:          0       0       0       0       0
  8262 ;;      Totals:         2       0       0       0       0
  8263 ;;Total ram usage:        2 bytes
  8264 ;; Hardware stack levels used: 1
  8265 ;; This function calls:
  8266 ;;		Nothing
  8267 ;; This function is called by:
  8268 ;;		_main
  8269 ;; This function uses a non-reentrant model
  8270 ;;
  8271                           
  8272     000E                     _delay:	
  8273                           ;psect for function _delay
  8274                           
  8275     000E                     l2428:	
  8276                           ;incstack = 0
  8277                           ; Regs used in _delay: [wreg+status,2+status,0]
  8278                           
  8279     000E                     l2430:	
  8280                           ;butterfly.c: 24: void delay(int t);butterfly.c: 25: {;butterfly.c: 26:     while(t--);
  8281                           
  8282     000E  30FF               	movlw	255
  8283     000F  07F0               	addwf	delay@t,f
  8284     0010  1803               	skipnc
  8285     0011  0AF1               	incf	delay@t+1,f
  8286     0012  30FF               	movlw	255
  8287     0013  07F1               	addwf	delay@t+1,f
  8288     0014  0A70               	incf	delay@t,w
  8289     0015  1D03               	skipz
  8290     0016  281B               	goto	u3561
  8291     0017  0A71               	incf	delay@t+1,w
  8292     0018  1D03               	btfss	3,2
  8293     0019  281B               	goto	u3561
  8294     001A  281C               	goto	u3560
  8295     001B                     u3561:
  8296     001B  280E               	goto	l2430
  8297     001C                     u3560:
  8298     001C                     l20:
  8299     001C  0008               	return
  8300     001D                     __end_of_delay:
  8301     007E                     btemp	set	126	;btemp
  8302     007E                     wtemp0	set	126
  8303                           
  8304                           	psect	idloc
  8305                           
  8306                           ;Config register IDLOC0 @ 0x2000
  8307                           ;	unspecified, using default values
  8308     2000                     	org	8192
  8309     2000  3FFF               	dw	16383
  8310                           
  8311                           ;Config register IDLOC1 @ 0x2001
  8312                           ;	unspecified, using default values
  8313     2001                     	org	8193
  8314     2001  3FFF               	dw	16383
  8315                           
  8316                           ;Config register IDLOC2 @ 0x2002
  8317                           ;	unspecified, using default values
  8318     2002                     	org	8194
  8319     2002  3FFF               	dw	16383
  8320                           
  8321                           ;Config register IDLOC3 @ 0x2003
  8322                           ;	unspecified, using default values
  8323     2003                     	org	8195
  8324     2003  3FFF               	dw	16383
  8325                           
  8326                           	psect	config
  8327                           
  8328                           ;Config register CONFIG1 @ 0x2007
  8329                           ;	Oscillator Selection bits
  8330                           ;	FOSC = INTRC_NOCLKOUT, INTOSCIO oscillator: I/O function on RA6/OSC2/CLKOUT pin, I/O f
      +                          unction on RA7/OSC1/CLKIN
  8331                           ;	Watchdog Timer Enable bit
  8332                           ;	WDTE = OFF, WDT disabled and can be enabled by SWDTEN bit of the WDTCON register
  8333                           ;	Power-up Timer Enable bit
  8334                           ;	PWRTE = ON, PWRT enabled
  8335                           ;	RE3/MCLR pin function select bit
  8336                           ;	MCLRE = ON, RE3/MCLR pin function is MCLR
  8337                           ;	Code Protection bit
  8338                           ;	CP = OFF, Program memory code protection is disabled
  8339                           ;	Data Code Protection bit
  8340                           ;	CPD = OFF, Data memory code protection is disabled
  8341                           ;	Brown Out Reset Selection bits
  8342                           ;	BOREN = OFF, BOR disabled
  8343                           ;	Internal External Switchover bit
  8344                           ;	IESO = ON, Internal/External Switchover mode is enabled
  8345                           ;	Fail-Safe Clock Monitor Enabled bit
  8346                           ;	FCMEN = ON, Fail-Safe Clock Monitor is enabled
  8347                           ;	Low Voltage Programming Enable bit
  8348                           ;	LVP = OFF, RB3 pin has digital I/O, HV on MCLR must be used for programming
  8349                           ;	In-Circuit Debugger Mode bit
  8350                           ;	DEBUG = 0x1, unprogrammed default
  8351     2007                     	org	8199
  8352     2007  2CE4               	dw	11492
  8353                           
  8354                           ;Config register CONFIG2 @ 0x2008
  8355                           ;	Brown-out Reset Selection bit
  8356                           ;	BOR4V = BOR40V, Brown-out Reset set to 4.0V
  8357                           ;	Flash Program Memory Self Write Enable bits
  8358                           ;	WRT = OFF, Write protection off
  8359     2008                     	org	8200
  8360     2008  3FFF               	dw	16383

Data Sizes:
    Strings     0
    Constant    76
    Data        0
    BSS         2
    Persistent  0
    Stack       0

Auto Spaces:
    Space          Size  Autos    Used
    COMMON           14     14      14
    BANK0            80     79      79
    BANK1            80     50      52
    BANK3            96     36      36
    BANK2            96      0       0

Pointer List with Targets:

    frexp@eptr	PTR int  size(1) Largest target is 2
		 -> log@exponent(BANK0[2]), floor@expon(BANK1[2]), 

    eval_poly@d	PTR const  size(1) Largest target is 40
		 -> log@coeff(CODE[36]), exp@coeff(CODE[40]), 


Critical Paths under _main in COMMON

    _main->___xxtofl
    _pow->___xxtofl
    _log->___xxtofl
    _exp->___xxtofl
    _floor->___xxtofl
    ___fleq->___xxtofl
    ___fltol->___xxtofl
    ___flmul->___xxtofl
    ___flsub->___xxtofl
    ___fladd->___xxtofl

Critical Paths under _main in BANK0

    _main->___fltol
    _pow->___fltol
    _pow->_log
    _log->_eval_poly
    _exp->___fltol
    _exp->_ldexp
    _exp->_log
    _ldexp->_eval_poly
    _floor->___fltol
    _frexp->___fleq
    ___fltol->___flsub
    _eval_poly->___fladd
    ___flmul->_frexp
    ___flsub->___fladd
    ___fladd->___flmul

Critical Paths under _main in BANK1

    _main->_pow
    _pow->_exp
    _log->_eval_poly
    _exp->_floor
    _ldexp->_eval_poly
    _floor->___fltol

Critical Paths under _main in BANK3

    None.

Critical Paths under _main in BANK2

    None.

Call Graph Tables:

 ---------------------------------------------------------------------------------
 (Depth) Function   	        Calls       Base Space   Used Autos Params    Refs
 ---------------------------------------------------------------------------------
 (0) _main                                                40    40      0   96426
                                             46 BANK1      4     4      0
                                              0 BANK3     36    36      0
                            ___fladd
                            ___flsub
                            ___fltol
                           ___xxtofl
                              _delay
                                _pow
 ---------------------------------------------------------------------------------
 (1) _pow                                                 21    13      8   82410
                                             25 BANK1     21    13      8
                             ___fleq
                             ___flge
                            ___flmul
                            ___flneg
                            ___fltol
                           ___xxtofl
                                _exp
                                _log
 ---------------------------------------------------------------------------------
 (2) _log                                                  6     2      4   26378
                                             77 BANK0      2     2      0
                                              4 BANK1      4     0      4
                            ___fladd
                             ___fleq
                             ___flge
                            ___flmul
                           ___xxtofl
                          _eval_poly
                              _frexp
 ---------------------------------------------------------------------------------
 (2) _exp                                                 11     7      4   43456
                                             14 BANK1     11     7      4
                            ___fldiv
                             ___fleq
                             ___flge
                            ___flmul
                            ___flneg
                            ___flsub
                            ___fltol
                           ___xxtofl
                          _eval_poly
                              _floor
                              _ldexp
                                _log (ARG)
 ---------------------------------------------------------------------------------
 (3) _ldexp                                                8     2      6    3995
                                             77 BANK0      2     2      0
                                              4 BANK1      6     0      6
                             ___fleq
                             ___flge
                          _eval_poly (ARG)
 ---------------------------------------------------------------------------------
 (3) _floor                                               10     6      4   11835
                                              4 BANK1     10     6      4
                            ___fladd
                             ___flge
                            ___fltol
                           ___xxtofl
                              _frexp
 ---------------------------------------------------------------------------------
 (3) _frexp                                                7     2      5    2252
                                             12 BANK0      7     2      5
                             ___fleq
 ---------------------------------------------------------------------------------
 (4) ___fleq                                              12     4      8    1570
                                              0 BANK0     12     4      8
                           ___xxtofl (ARG)
 ---------------------------------------------------------------------------------
 (3) ___xxtofl                                            14    10      4    1916
                                              0 COMMON    14    10      4
 ---------------------------------------------------------------------------------
 (4) ___fltol                                             10     6      4     761
                                             73 BANK0      6     2      4
                                              0 BANK1      4     4      0
                            ___fladd (ARG)
                            ___flsub (ARG)
                           ___xxtofl (ARG)
 ---------------------------------------------------------------------------------
 (3) ___flge                                              12     4      8    1886
                                              0 COMMON    12     4      8
 ---------------------------------------------------------------------------------
 (3) _eval_poly                                           16     9      7    9569
                                             65 BANK0     12     5      7
                                              0 BANK1      4     4      0
                            ___fladd
                            ___flmul
 ---------------------------------------------------------------------------------
 (4) ___flmul                                             26    18      8    4213
                                             19 BANK0     26    18      8
                          __Umul8_16
                           ___xxtofl (ARG)
                              _frexp (ARG)
 ---------------------------------------------------------------------------------
 (5) __Umul8_16                                            9     7      2     980
                                              0 COMMON     9     7      2
 ---------------------------------------------------------------------------------
 (3) ___flsub                                              8     0      8    5527
                                             65 BANK0      8     0      8
                            ___fladd
                           ___xxtofl (ARG)
 ---------------------------------------------------------------------------------
 (4) ___fladd                                             20    12      8    4562
                                             45 BANK0     20    12      8
                            ___flmul (ARG)
                           ___xxtofl (ARG)
                              _frexp (ARG)
 ---------------------------------------------------------------------------------
 (3) ___flneg                                              4     0      4     273
                                              0 COMMON     4     0      4
 ---------------------------------------------------------------------------------
 (3) ___fldiv                                             26    18      8    1273
                                              0 COMMON    13     5      8
                                              0 BANK0     13    13      0
 ---------------------------------------------------------------------------------
 (1) _delay                                                2     0      2     174
                                              0 COMMON     2     0      2
 ---------------------------------------------------------------------------------
 Estimated maximum stack depth 5
 ---------------------------------------------------------------------------------

 Call Graph Graphs:

 _main (ROOT)
   ___fladd
     ___flmul (ARG)
       __Umul8_16
       ___xxtofl (ARG)
       _frexp (ARG)
         ___fleq
           ___xxtofl (ARG)
     ___xxtofl (ARG)
     _frexp (ARG)
   ___flsub
     ___fladd
     ___xxtofl (ARG)
   ___fltol
     ___fladd (ARG)
     ___flsub (ARG)
     ___xxtofl (ARG)
   ___xxtofl
   _delay
   _pow
     ___fleq
     ___flge
     ___flmul
     ___flneg
     ___fltol
     ___xxtofl
     _exp
       ___fldiv
       ___fleq
       ___flge
       ___flmul
       ___flneg
       ___flsub
       ___fltol
       ___xxtofl
       _eval_poly
         ___fladd
         ___flmul
       _floor
         ___fladd
         ___flge
         ___fltol
         ___xxtofl
         _frexp
       _ldexp
         ___fleq
         ___flge
         _eval_poly (ARG)
       _log (ARG)
         ___fladd
         ___fleq
         ___flge
         ___flmul
         ___xxtofl
         _eval_poly
         _frexp
     _log

 Address spaces:
Name               Size   Autos  Total    Cost      Usage
BITCOMMON            E      0       0       0        0.0%
EEDATA             100      0       0       0        0.0%
NULL                 0      0       0       0        0.0%
CODE                 0      0       0       0        0.0%
COMMON               E      E       E       1      100.0%
BITSFR0              0      0       0       1        0.0%
SFR0                 0      0       0       1        0.0%
BITSFR1              0      0       0       2        0.0%
SFR1                 0      0       0       2        0.0%
STACK                0      0       0       2        0.0%
ABS                  0      0      B5       3        0.0%
BITBANK0            50      0       0       4        0.0%
BITSFR3              0      0       0       4        0.0%
SFR3                 0      0       0       4        0.0%
BANK0               50     4F      4F       5       98.8%
BITSFR2              0      0       0       5        0.0%
SFR2                 0      0       0       5        0.0%
BITBANK1            50      0       0       6        0.0%
BANK1               50     32      34       7       65.0%
BITBANK3            60      0       0       8        0.0%
BANK3               60     24      24       9       37.5%
BITBANK2            60      0       0      10        0.0%
BANK2               60      0       0      11        0.0%
DATA                 0      0      B5      12        0.0%


Microchip Technology PIC Macro Assembler V2.40 build 20220703182018 
Symbol Table                                                                                   Thu May 22 14:25:25 2025

           ___fldiv@aexp 002C             ___fldiv@bexp 002B                        pc 0002  
           ___fldiv@sign 0024                       l20 001C                       l29 07F5  
                     fsr 0004      __Umul8_16@word_mpld 0076                      l301 114F  
                    l311 114F                      l412 00FB                      l308 113A  
                    l421 0274                      l414 00D4                      l510 0F6F  
                    l408 0078                      l504 0FFF                      l433 01E8  
                    l450 026A                      l442 0248                      l451 0274  
                    l523 1F9D                      l516 0FF3                      l292 0893  
                    l284 1FCE                      l620 10BB                      l612 14B8  
                    l429 01C4                      l525 1FAF                      l605 12E3  
                    l293 08AC                      l285 1FEA                      l454 1F88  
                    l550 1207                      l286 1FFF                      l439 020A  
                    l480 09FB                      l464 0903                      l624 13C1  
                    l297 000D                      l289 0827                      l561 11D1  
                    l466 0A85                      l562 11DD                      l554 11B5  
                    l642 1628                      l548 1172                      l573 1674  
                    l486 0A6D                      l574 17FF                      l488 0A7B  
                    l594 0CBA                      l578 17FF                      l598 0CBA  
                    _exp 0A86                      _log 14B9                      _pow 1629  
                    fsr0 0004                      indf 0000             ___flmul@aexp 0041  
           ___flmul@bexp 0046             ___flmul@sign 0040             ___flmul@temp 004B  
           ___flmul@prod 0047             ___fltol@exp1 006E                     l2200 094C  
                   l3000 1F69                     l2210 0975                     l2202 0954  
                   l2130 000B                     l3010 1400                     l2220 0996  
                   l2212 0979                     l2204 095C                     l2132 000D  
                   l3020 141F                     l3004 13C2                     l2230 09BE  
                   l2222 09AA                     l2214 097A                     l2206 095E  
                   l2150 08BB                     l2142 08AD                     l3022 1420  
                   l3014 140B                     l3006 13E1                     l3110 0AD5  
                   l3102 0A86                     l2232 09C7                     l2240 09DB  
                   l2208 0963                     l2216 0983                     l2224 09AE  
                   l2152 08C0                     l2160 08D0                     l2144 08B2  
                   l2128 0003                     l3032 1208                     l3024 146E  
                   l3008 13E7                     l3120 0B0E                     l3104 0AAF  
                   l3200 02A8                     l2242 09DF                     l2234 09CB  
                   l2226 09B4                     l2218 0995                     l2170 08E6  
                   l2162 08D8                     l2154 08C5                     l2146 08B6  
                   l3034 1245                     l3018 1416                     l3050 1342  
                   l3042 12E4                     l3130 0BA0                     l3122 0B2E  
                   l3114 0AE4                     l3210 03EE                     l3202 02E3  
                   l2260 0A30                     l2252 0A00                     l2244 09E0  
                   l2236 09CC                     l2228 09BC                     l2172 08EB  
                   l2180 08FB                     l2164 08DD                     l2156 08CD  
                   l2148 08BA                     l3036 12C3                     l1700 10D0  
                   l3028 14AE                     l3060 1360                     l3052 1346  
                   l3044 130D                     l3140 0C8D                     l3132 0BC7  
                   l3124 0B33                     l3116 0AFF                     l3108 0ABA  
                   l3220 0522                     l3212 0429                     l3204 02FC  
                   l2430 000E                     l2270 0A64                     l2254 0A05  
                   l2262 0A36                     l2246 09E4                     l2238 09D5  
                   l2182 090B                     l2190 0924                     l2174 08F0  
                   l2166 08E1                     l2158 08CE                     l3038 12CB  
                   l1710 1102                     l1702 10F3                     l3070 138A  
                   l3062 1366                     l3134 0C15                     l3126 0B4A  
                   l3150 162C                     l3222 052A                     l3214 0442  
                   l3206 0352                     l2272 0A6C                     l2264 0A43  
                   l2256 0A13                     l2248 09F8                     l2192 0929  
                   l2184 0917                     l2176 08F8                     l2168 08E5  
                   l2600 001D                     l1704 10F4                     l3064 137F  
                   l3048 1318                     l3144 0C98                     l3136 0C61  
                   l3128 0B89                     l3080 14B9                     l3160 16A8  
                   l3152 1653                     l3240 05B4                     l3224 0530  
                   l3216 04D3                     l3208 03D3                     l2274 0A71  
                   l2266 0A51                     l2258 0A17                     l2186 091B  
                   l2178 08F9                     l2610 0030                     l2602 0022  
                   l1706 10FC                     l3074 1395                     l3058 1353  
                   l3138 0C66                     l3082 14D4                     l3154 166E  
                   l3250 06FA                     l3242 060A                     l3234 0545  
                   l3226 053D                     l3218 0519                     l2428 000E  
                   l2276 0A75                     l2268 0A60                     l2196 0932  
                   l2700 0104                     l2620 0048                     l2612 0035  
                   l2604 0026                     l1724 1127                     l1716 110A  
                   l1708 10FE                     l3076 13C1                     l3092 151B  
                   l3180 17CB                     l3172 174B                     l3164 16B3  
                   l3148 1629                     l3260 07E8                     l3252 078B  
                   l3244 068B                     l3236 0560                     l3228 0543  
                   l2278 0A77                     l2198 0944                     l2710 012C  
                   l2630 005A                     l2622 004B                     l2614 003D  
                   l2606 002A                     l1726 113F                     l1718 1120  
                   l3094 1582                     l3086 14E3                     l3182 17E2  
                   l3174 1750                     l3166 16CE                     l3158 167F  
                   l3254 07D1                     l3246 06A6                     l3238 059B  
                   l3190 0285                     l2720 0143                     l2712 0133  
                   l2704 010D                     l2640 006E                     l2632 005B  
                   l2624 0051                     l2616 003E                     l2608 002B  
                   l2800 0CC8                     l1728 1144                     l2560 1FFC  
                   l3096 158A                     l3088 150C                     l3184 17E7  
                   l3168 173C                     l3176 1767                     l3256 07DA  
                   l3248 06E1                     l3192 0289                     l2730 01A7  
                   l2714 0135                     l2706 0124                     l2722 0148  
                   l2650 0088                     l2634 0060                     l2642 0070  
                   l2626 0052                     l2618 0040                     l2570 1F93  
                   l2810 0CDD                     l2802 0CC9                     l2562 1FFE  
                   l2554 1FB0                     l3098 15C5                     l3178 1780  
                   l3258 07E2                     l2740 01DA                     l2724 015E  
                   l2732 01B6                     l2716 0139                     l2708 0128  
                   l2660 0092                     l2652 008A                     l2644 007E  
                   l2636 0065                     l2628 0056                     l2572 1F97  
                   l2820 0CF3                     l2812 0CE5                     l2804 0CCE  
                   l2580 080B                     l2556 1FC6                     l3188 0275  
                   l2750 01F1                     l2742 01E3                     l2734 01CC  
                   l2726 019C                     l2718 013A                     l2670 009C  
                   l2662 0094                     l2654 008C                     l2646 0082  
                   l2638 006D                     l2574 1FA6                     l2566 1F8A  
                   l2910 0FA4                     l2902 0F74                     l2830 0D0F  
                   l2822 0CF8                     l2814 0CEA                     l2806 0CD3  
                   l2590 086B                     l2582 081F                     l1694 10BC  
                   l2558 1FE2                     l3198 028D                     l2760 0201  
                   l2752 01F6                     l2744 01E7                     l2736 01D1  
                   l2728 01A2                     l2680 00A5                     l2672 009E  
                   l2664 0096                     l2656 008E                     l2648 0086  
                   l2576 1FAB                     l2568 1F8C                     l2920 0FDB  
                   l2904 0F79                     l2912 0FAA                     l2840 0D30  
                   l2832 0D14                     l2824 0CFD                     l2816 0CEE  
                   l2808 0CDB                     l2592 086F                     l2584 083B  
                   l1696 10C7                     l2770 0222                     l2762 0207  
                   l2746 01EC                     l2754 01F8                     l2690 00E5  
                   l2682 00BC                     l2674 00A0                     l2666 0098  
                   l2658 0090                     l2930 0FF7                     l2922 0FDD  
                   l2914 0FB7                     l2906 0F87                     l2850 0DBA  
                   l2842 0D3D                     l2834 0D19                     l2826 0D05  
                   l2818 0CF2                     l2594 08A9                     l2586 0843  
                   l2780 025A                     l2772 0226                     l2748 01EF  
                   l2756 01FC                     l2692 00E6                     l2684 00D8  
                   l2676 00A2                     l2668 009A                     l2924 0FE9  
                   l2916 0FC2                     l2908 0F8B                     l2860 0E18  
                   l2852 0DD6                     l2844 0D58                     l2828 0D07  
                   l2596 08AB                     l2588 0847                     l2940 116A  
                   l2790 026F                     l2782 025F                     l2774 0244  
                   l2766 020F                     l2758 01FD                     l2694 00EF  
                   l2686 00DF                     l2678 00A4                     l2926 0FED  
                   l2918 0FD1                     l2870 0EA2                     l2862 0E35  
                   l2854 0DDF                     l2846 0D74                     l2838 0D22  
                   l2950 1193                     l2942 117A                     l2934 1151  
                   l2792 0273                     l2784 0260                     l2776 024D  
                   l2768 0214                     l2688 00E1                     l2696 00F3  
                   l2928 0FEE                     l2880 0F32                     l2872 0ECD  
                   l2864 0E4C                     l2856 0DED                     l2848 0D9E  
                   l2960 11C7                     l2952 119A                     l2936 1156  
                   l2786 0264                     l2778 0252                     l2698 00FF  
                   l2882 0F3B                     l2890 0F4F                     l2874 0EF3  
                   l2866 0E69                     l2858 0E0A                     l2794 0CBB  
                   l2970 11FA                     l2962 11CB                     l2954 119E  
                   l2946 1183                     l2938 115A                     l2788 0266  
                   l2892 0F53                     l2884 0F3F                     l2876 0F1B  
                   l2868 0E94                     l2796 0CC0                     l2972 11FE  
                   l2964 11D5                     l2956 11AC                     l2948 1186  
                   l2980 107B                     l2894 0F54                     l2886 0F40  
                   l2878 0F24                     l2798 0CC4                     l2974 11FF  
                   l2966 11DF                     l2958 11BC                     l2990 10B6  
                   l2982 1083                     l2896 0F58                     l2888 0F49  
                   l2968 11F5                     l2992 10BA                     l2898 0F6C  
                   l2994 10BB                     l2986 108C                     l2978 1060  
                   l2988 10A9                     ?_exp 00AE                     ?_log 00A4  
                   l2998 1F65                     ?_pow 00B9                     u2010 111F  
                   u2011 111E                     u2020 1126                     u2021 1125  
                   u2005 110B                     u2040 113F                     u2041 113E  
                   u2050 1144                     u2051 1143                     u2035 112B  
                   u3100 08F0                     u3101 08EF                     u3110 090B  
                   u3111 090A                     u3200 09B4                     u3120 0929  
                   u3040 000B                     u3201 09B3                     u3121 0928  
                   u3041 000A                     u3210 09BC                     u3130 0963  
                   u3050 08BA                     u4010 015E                     u3211 09BB  
                   u3131 0962                     u3051 08B9                     u4011 015D  
                   u3300 0A17                     u3060 08C0                     u4100 01F6  
                   u3301 0A16                     u3061 08BF                     u4101 01F5  
                   u4021 0175                     u4013 015A                     u4005 013C  
                   u3310 0A26                     u3230 09CB                     u3070 08C5  
                   u4110 01FC                     u4030 0189                     u4022 0176  
                   u3231 09CA                     u3071 08C4                     u4111 01FB  
                   u4031 018A                     u4023 017B                     u3320 0A43  
                   u3160 0979                     u3080 08E5                     u4200 0252  
                   u4120 0201                     u4040 01A7                     u4032 018F  
                   u4024 017C                     u5000 16CE                     u3321 0A42  
                   u3225 09C0                     u3161 0978                     u3145 0965  
                   u3081 08E4                     u4201 0251                     u4121 0200  
                   u4041 01A6                     u4033 0190                     u4025 0181  
                   u5001 16CD                     u3330 0A60                     u3250 09DF  
                   u3090 08EB                     u4210 025F                     u4130 0207  
                   u4050 01CC                     u4026 0182                     u5010 173C  
                   u3331 0A5F                     u3315 0A21                     u3251 09DE  
                   u3155 096E                     u3091 08EA                     u4211 025E  
                   u4131 0206                     u4051 01CB                     u5011 173B  
                   u3340 0A75                     u3260 09E4                     u3180 0995  
                   u4220 0264                     u4140 020E                     u4060 01D1  
                   u4300 0D14                     u5020 17E7                     u3341 0A74  
                   u3325 0A3F                     u3261 09E3                     u3245 09CE  
                   u3181 0994                     u4221 0263                     u4141 020D  
                   u4061 01D0                     u4301 0D13                     u5021 17E6  
                   u3270 09F8                     u3190 09AA                     u4230 0273  
                   u4150 0214                     u4310 0D19                     u5030 053D  
                   u3335 0A5C                     u3271 09F7                     u3175 097C  
                   u4231 0272                     u4151 0213                     u4311 0D18  
                   u5031 053C                     u3280 09FF                     u4160 0226  
                   u4080 01E7                     u4240 0CC8                     u5040 07F5  
                   u3281 09FE                     u3185 0991                     u4161 0225  
                   u4081 01E6                     u4401 0E5B                     u4321 0D66  
                   u4241 0CC7                     u5041 07F4                     u3290 0A05  
                   u4170 0235                     u4090 01EC                     u4402 0E62  
                   u4322 0D6D                     u4250 0CCE                     u3291 0A04  
                   u3195 099D                     u4091 01EB                     u4075 01DC  
                   u4411 0E86                     u4403 0E69                     u4331 0D82  
                   u4323 0D74                     u4251 0CCD                     u5035 0539  
                   u3196 099E                     u4180 0244                     u3700 1FAB  
                   u4412 0E8D                     u4332 0D89                     u4260 0CD3  
                   u3197 09A3                     u4181 0243                     u3701 1FAA  
                   u4421 0EB1                     u4413 0E94                     u4341 0DAC  
                   u4333 0D90                     u4261 0CD2                     u5045 07F1  
                   u3198 09A4                     u4190 024D                     u4510 0F53  
                   u4430 0ED9                     u4422 0EB8                     u4342 0DB3  
                   u4270 0CF2                     u3710 081F                     u3199 09A9  
                   u4191 024C                     u4175 0230                     u4511 0F52  
                   u4423 0EBF                     u4351 0DC8                     u4343 0DBA  
                   u4271 0CF1                     u3711 081E                     u3560 001C  
                   u3800 0035                     u4600 0FED                     u4520 0F58  
                   u4352 0DCF                     u4280 0CF8                     u3720 083B  
                   u1960 10C7                     u3561 001B                     u3801 0034  
                   u4601 0FEC                     u4521 0F57                     u4505 0F42  
                   u4441 0EE5                     u4353 0DD6                     u4281 0CF7  
                   u3721 083A                     u1961 10C6                     u3810 0051  
                   u4530 0F6C                     u4450 0F01                     u4442 0EEC  
                   u4290 0CFD                     u3730 0847                     u1970 10EC  
                   u4610 1156                     u3650 1FC6                     u3811 0050  
                   u4531 0F6B                     u4443 0EF3                     u4435 0ED4  
                   u4371 0DFC                     u4291 0CFC                     u3731 0846  
                   u4611 1155                     u3651 1FC5                     u3900 00D8  
                   u3820 005A                     u4540 0F73                     u4372 0E03  
                   u1980 1102                     u4700 11D1                     u4620 115A  
                   u3660 1FE2                     u3901 00D7                     u3821 0059  
                   u4541 0F72                     u4461 0F0D                     u4381 0E27  
                   u4373 0E0A                     u4365 0DD8                     u3741 0856  
                   u1981 1101                     u4701 11D0                     u4621 1159  
                   u3661 1FE1                     u3910 00E5                     u3830 0060  
                   u4550 0F79                     u4462 0F14                     u4382 0E2E  
                   u3750 086F                     u3742 0857                     u1990 1109  
                   u4710 11D5                     u4630 117A                     u3670 1FFC  
                   u3911 00E4                     u3831 005F                     u4551 0F78  
                   u4463 0F1B                     u4455 0EFC                     u4383 0E35  
                   u3751 086E                     u3743 085C                     u1991 1108  
                   u1975 10E7                     u4711 11D4                     u4631 1179  
                   u3671 1FFB                     u3840 0065                     u3680 1F97  
                   u4560 0F8B                     u3744 085D                     u4720 11EA  
                   u3841 0064                     u3681 1F96                     u4561 0F8A  
                   u3761 087E                     u3745 0862                     u3930 00FB  
                   u3850 007E                     u4570 0F9A                     u4490 0F3F  
                   u3770 08A9                     u3762 087F                     u3746 0863  
                   u4730 11FA                     u4650 1199                     u3931 00FA  
                   u3851 007D                     u4491 0F3E                     u4475 0F1D  
                   u4395 0E37                     u3771 08A8                     u3763 0884  
                   u4731 11F9                     u4651 1198                     u3675 1FF8  
                   u3940 00FF                     u3860 0082                     u3780 002A  
                   u4580 0FB7                     u4820 12CB                     u3764 0885  
                   u4740 11FE                     u4900 0AD5                     u3941 00FE  
                   u3925 00E8                     u3861 0081                     u3781 0029  
                   u4581 0FB6                     u4485 0F34                     u4821 12CA  
                   u4805 120D                     u3765 088A                     u4741 11FD  
                   u4725 11E5                     u4645 118B                     u4901 0AD4  
                   u3950 0104                     u3870 00BC                     u3790 0030  
                   u4590 0FD1                     u3766 088B                     u4670 11BB  
                   u4750 107B                     u4830 130D                     u4910 0AFF  
                   u3951 0103                     u3871 00BB                     u3791 002F  
                   u3695 1F9E                     u4591 0FD0                     u4575 0F95  
                   u4815 124E                     u3775 08A5                     u4671 11BA  
                   u4751 107A                     u4831 130C                     u4911 0AFE  
                   u3880 00C7                     u4760 13E7                     u4840 1346  
                   u4920 0B2A                     u3961 0116                     u3881 00C5  
                   u4585 0FB3                     u4665 11AD                     u4761 13E6  
                   u4841 1345                     u4921 0B28                     u3970 0128  
                   u3962 011D                     u3890 00C8                     u4690 11CB  
                   u4770 1400                     u4850 1360                     u4930 0B2B  
                   u3971 0127                     u3963 0124                     u3875 00B8  
                   u4595 0FCD                     u4691 11CA                     u4771 13FF  
                   u4851 135F                     u3980 012C                     u4780 141F  
                   u4860 137F                     u4940 0B33                     u3981 012B  
                   u4685 11C0                     u4781 141E                     u4861 137E  
                   u4941 0B32                     u3990 0139                     u4790 146E  
                   u4950 0C66                     u4870 14D4                     u3991 0138  
                   u4791 146D                     u4855 135C                     u4951 0C65  
                   u4871 14D3                     u4960 0C8D                     u4880 150C  
                   u4961 0C8C                     u4881 150B                     u4890 0AAF  
                   u4970 1653                     u4891 0AAE                     u4971 1652  
                   u4980 166E                     u4981 166D                     u4990 16A8  
                   u4991 16A7                     _main 0275                     btemp 007E  
                   exp@x 00AE                     log@x 00A4                     pow@x 00B9  
                   pow@y 00BD                     start 0000          ___fldiv@new_exp 0025  
                  ??_exp 007E                    ??_log 007E                    ??_pow 007E  
          ___fltol@sign1 006D          __end_of___fladd 0275                    ?_main 0070  
        __end_of___fldiv 0A86          __end_of___flneg 000E          __end_of___flmul 1000  
        __end_of___flsub 1F89          __end_of___fltol 1150                    _ANSEL 0188  
                  _PORTB 0006                    _PORTD 0008                    _TRISB 0086  
                  _TRISD 0088                    _delay 000E                    _floor 13C2  
                  _ldexp 12E4                    _frexp 1060                    _errno 00D2  
                  main@i 01B0                    main@j 01B2                    pclath 000A  
                  pow@yi 00CA                    status 0003                    wtemp0 007E  
            exp@exponent 00B6              ldexp@newexp 00A8          __initialization 07F8  
            log@exponent 006D             __end_of_main 07F8                   ??_main 00CE  
                 ?_delay 0070                   ?_floor 00A4                   ?_ldexp 00A4  
                 ?_frexp 002C                   _ANSELH 0189         __end_of___xxtofl 1208  
                 ___flge 080B                   ___fleq 1FB0                ??___fladd 0055  
              ??___fldiv 0078                ??___flneg 0074                ??___flmul 003B  
              ??___flsub 007E                ??___fltol 00A0                   delay@t 0070  
                 floor@i 00A8                   floor@x 00A4               ___flge@ff1 0070  
             ___flge@ff2 0074             ___xxtofl@arg 007A         __end_ofexp@coeff 102E  
           ___xxtofl@exp 0079             ___xxtofl@val 0070               ___fleq@ff1 0020  
             ___fleq@ff2 0024         __end_oflog@coeff 1052  __end_of__initialization 07FC  
             ___flneg@f1 0070             eval_poly@res 00A0               ___fltol@f1 0069  
         __pcstackCOMMON 0070            __end_of_delay 001D            __end_of_floor 14B9  
          __end_of_ldexp 13C2            __end_of_frexp 10BC                  ??_delay 0072  
                ??_floor 007E                  ??_ldexp 006D                  ??_frexp 0031  
             __pbssBANK1 00D2        __end_of__Umul8_16 1FB0               __pmaintext 0275  
                ?___flge 0070                  ?___fleq 0020                ?___xxtofl 0070  
             __stringtab 1000                  ___fladd 001D                  ___fldiv 08AD  
                ___flneg 0003                  ___flmul 0CBB                  ___flsub 1F65  
                ___fltol 10BC                  _exp$750 00B2        __end_of_eval_poly 12E4  
                __ptext1 1629                  __ptext2 14B9                  __ptext3 0A86  
                __ptext4 12E4                  __ptext5 13C2                  __ptext6 1060  
                __ptext7 1FB0                  __ptext8 1150                  __ptext9 10BC  
                _pow$748 00C1                  _pow$749 00C5               ??___xxtofl 0074  
   end_of_initialization 07FC                  exp@sign 00B8                  pow@sign 00C9  
            ___fladd@grs 0060            ___xxtofl@sign 0078              ___fldiv@grs 0027  
            ___fldiv@rem 0020              ___flmul@grs 0042           __end_of___flge 08AD  
         __end_of___fleq 2000               floor@expon 00AC      start_initialization 07F8  
             eval_poly@d 0065               eval_poly@n 0066               eval_poly@x 0061  
             ldexp@value 00A4              __end_of_exp 0CBB              __end_of_log 1629  
            __end_of_pow 1800               frexp@value 002C                 ??___flge 0078  
               ??___fleq 0028                __Umul8_16 1F89                ___fladd@a 0051  
              ___fladd@b 004D                ___fldiv@a 0070                ___fldiv@b 0074  
              ___flmul@a 0037                ___flmul@b 0033                ___flsub@a 0061  
              ___flsub@b 0065                ___latbits 0002            __pcstackBANK0 0020  
          __pcstackBANK1 00A0            __pcstackBANK3 0190                 ?___fladd 004D  
               ?___fldiv 0070                 ?___flneg 0070                 ?___flmul 0033  
               ?___flsub 0061                 ?___fltol 0069               ?__Umul8_16 0070  
              __pstrings 1000                _eval_poly 1208              __stringbase 1005  
             ?_eval_poly 0061                frexp@eptr 0030              ??__Umul8_16 0072  
     __end_of__stringtab 1006                 ___xxtofl 1150                 _main$740 01A8  
               _main$741 0190                 _main$742 01AC                 _main$743 0194  
               _main$744 0198                 _main$745 019C                 _main$746 01A0  
               _main$747 01A4                 __ptext10 080B                 __ptext11 1208  
               __ptext12 0CBB                 __ptext13 1F89                 __ptext14 1F65  
               __ptext15 001D                 __ptext16 0003                 __ptext17 08AD  
               __ptext18 000E                 exp@coeff 1006                 log@coeff 102E  
            ??_eval_poly 0068                stringcode 1000   __Umul8_16@multiplicand 0070  
               stringdir 1000                 stringtab 1000            ___fladd@signs 005D  
           ___fladd@aexp 005E             ___fladd@bexp 005F     __Umul8_16@multiplier 0078  
      __Umul8_16@product 0074  
